# file opened: src/main.asm
  1   0000
  2   0000                  OPT --syntax=abfw     ; recommended sub-syntax of current sjasmplus
  3   0000                  ; "a" - multi-arguments for instructions require double-comma, i.e. `push hl,,de,,bc`
  4   0000                  ;     - this helps to avoid common pitfalls like `sub a,a` becoming 2x `sub a` in default syntax
  5   0000                  ;     - making it single "sub a from a" and enabling non-Zilog syntax `sub a,...`
  6   0000                  ; "b" - whole expression parentheses are legal for memory access only
  7   0000                  ;     - things like "ld b,(variable)" will become errors, as there's only ld b,immediate
  8   0000                  ;     - for regular expression parentheses you can disambiguate `ld b,+(1+2+3)` by unary +
  9   0000                  ; "f" - warn about fake instructions of sjasmplus (if used by accident)
 10   0000                  ;     - to use them intentionally, use comment to suppress warning: `ld hl,de ; fake`
 11   0000                  ;     - one extra warning from this class is Z80N extension `mul`, requiring explicit argument `mul de` or `mul d,e`
 12   0000                  ; "w" - report warnings as errors
 13   0000
 14   0000                  org 0x8000
 15   8000
 16   8000                  DEVICE ZXSPECTRUMNEXT
 17   8000              	CSPECTMAP main.map
 18   8000
 19   8000
 20   8000              start:
 21   8000 F3           	di
 22   8001 31 FE 7F     	ld sp,0x7FFE
 23   8004 ED 91 07 03  	nextreg $7,3 ;set Mhz mode (3=28mhz)
 24   8008 ED 91 15 0B  	nextreg $15,%00001011 ;sprites/layers system register
 25   800C CD E3 85     	call game_init
 26   800F C3 12 80     	jp main_loop
 27   8012
 28   8012              main_loop:
 29   8012 CD F9 85     	call game_update
 30   8015 CD 0E 86     	call game_draw
 31   8018 C3 12 80     	jp main_loop
 32   801B
 33   801B
 34   801B
 35   801B
 36   801B              STACK_SIZE equ 20
 37   801B 00 00 00...  stack_bottom ds STACK_SIZE, 0
 38   802F 00           stack_top db 0
 39   8030
 40   8030              	include 'retrotools\constants.asm'
# file opened: src/retrotools/constants.asm
  1+  8030              FALSE equ 0
  2+  8030              TRUE equ 1
  3+  8030
  4+  8030              DEAD equ 0
  5+  8030              ALIVE equ 1
  6+  8030
  7+  8030              NOT_VISIBLE equ 0
  8+  8030              VISIBLE equ 1
  9+  8030
 10+  8030              NOT_ENABLED equ 0
 11+  8030              ENABLED equ 1
 12+  8030
 13+  8030
 14+  8030              ;DIRECTIONS:
 15+  8030              LEFT equ 0
 16+  8030              RIGHT equ 1
 17+  8030              UP equ 2
 18+  8030              DOWN equ 3
 19+  8030
 20+  8030
 21+  8030              ;48k Screen
 22+  8030              SCREEN_WIDTH_CELLS equ 32
 23+  8030              SCREEN_HEIGHT_CELLS equ 24
 24+  8030
 25+  8030
 26+  8030
 27+  8030              ;Next Screen
 28+  8030              GUTTER equ 32
 29+  8030
 30+  8030
 31+  8030
 32+  8030
 33+  8030              END_OF_ARRAY equ 255
 34+  8030
 35+  8030
 36+  8030
 37+  8030
 38+  8030
 39+  8030
 40+  8030
 41+  8030
 42+  8030
 43+  8030
# file closed: src/retrotools/constants.asm
 41   8030              	include 'retrotools\tools.asm'
# file opened: src/retrotools/tools.asm
  1+  8030              ;MACROS
  2+  8030              	MACRO BREAKPOINT
  3+  8030 ~            		DW $01DD
  4+  8030              	ENDM
  5+  8030
  6+  8030              	MACRO CLIPTILES x1,y1,x2,y2
  7+  8030 ~            		ld a,x1
  8+  8030 ~            		nextreg $1b,a
  9+  8030 ~            		ld a,y1
 10+  8030 ~            		nextreg $1b,a
 11+  8030 ~            		ld a,x2
 12+  8030 ~            		nextreg $1b,a
 13+  8030 ~            		ld a,y2
 14+  8030 ~            		nextreg $1b,a
 15+  8030 ~
 16+  8030              	ENDM
 17+  8030
 18+  8030              	MACRO CLIP_LAYER2 x1,x2,y1,y2
 19+  8030 ~            		ld a,x1
 20+  8030 ~            		nextreg $18,a
 21+  8030 ~            		ld a,x2
 22+  8030 ~            		nextreg $18,a
 23+  8030 ~            		ld a,y1
 24+  8030 ~            		nextreg $18,a
 25+  8030 ~            		ld a,y2
 26+  8030 ~            		nextreg $18,a
 27+  8030 ~
 28+  8030              	ENDM
 29+  8030
 30+  8030
 31+  8030              ;;;;;;;;;;;;;;;;;;;;;;;;;;;;;;;;;;;;
 32+  8030              ;; Wait for n clock cycles
 33+  8030              ;; Inputs: BC=n
 34+  8030              ;; Outputs: none
 35+  8030              ;; Destroys: A,BC
 36+  8030              ;;;;;;;;;;;;;;;;;;;;;;;;;;;;;;;;;;;;
 37+  8030              wait:
 38+  8030 0B           	dec bc
 39+  8031 78           	ld a,b
 40+  8032 FE 00        	cp 0
 41+  8034 C2 30 80     	jp nz, wait
 42+  8037 C9           	ret
 43+  8038
 44+  8038
 45+  8038
 46+  8038              ;;;em00k wrote this;;;;
 47+  8038              ;;;;;;;;;;;;;;;;;;;;;;;;;;;;;;;;;;;;
 48+  8038              ;; Wait for vertical blank
 49+  8038              ;; Inputs: B=frames delay count
 50+  8038              ;; Outputs:
 51+  8038              ;; Destroys:
 52+  8038              ;;;;;;;;;;;;;;;;;;;;;;;;;;;;;;;;;;;;
 53+  8038              WaitRasterLine:
 54+  8038 CD 3E 80     	call RastererWait
 55+  803B 10 FB        	djnz WaitRasterLine
 56+  803D C9           	ret
 57+  803E              RastererWait:
 58+  803E C5           	push bc
 59+  803F 1E 10        	ld e,16
 59+  8041 3E 1F          ld a,$1f
 59+  8043 01 3B 24       ld bc,$243b
 59+  8046 ED 79          out (c),a
 59+  8048 04             inc b
 60+  8049              WaitForLinea:
 61+  8049 ED 78        	in a,(c)
 61+  804B BB             cp e
 61+  804C 20 FB          jr nz,WaitForLinea
 62+  804E C1           	pop bc
 63+  804F C9           	ret
 64+  8050
 65+  8050
 66+  8050
 67+  8050
 68+  8050
 69+  8050
 70+  8050
 71+  8050
 72+  8050
 73+  8050
 74+  8050
 75+  8050              LAYER2_ACCESS_PORT	EQU 	$123B
 76+  8050
 77+  8050              		;----------------
 78+  8050              		; Original code by Michael Ware adjustd to work with ZXB
 79+  8050              		; Plot tile to layer 2 (needs to accept > 256 tiles)
 80+  8050              		; in - hl = y/x tile coordinate (0-17, 0-31)
 81+  8050              		; in - a = number of tile to display
 82+  8050              		;----------------
 83+  8050              PlotTile8:
 84+  8050 ED 91 56 11  		nextreg $56,17
 85+  8054
 86+  8054 16 40        		ld d,64
 87+  8056 5F           		ld e,a					; 11
 88+  8057 ED 30        		mul de
 89+  8059
 90+  8059 3E C0        		ld a,%11000000 			; this points to $c000
 91+  805B B2           		or d		 			; 8
 92+  805C EB           		ex de,hl				; 4			; cannot avoid an ex (de now = yx)
 93+  805D 67           		ld h,a					; 4
 94+  805E 7B           		ld a,e
 95+  805F 07           		rlca
 96+  8060 07           		rlca
 97+  8061 07           		rlca
 98+  8062 5F           		ld e,a					; 4+4+4+4+4 = 20	; mul x,8
 99+  8063 7A           		ld a,d
100+  8064 07           		rlca
101+  8065 07           		rlca
102+  8066 07           		rlca
103+  8067 57           		ld d,a					; 4+4+4+4+4 = 20	; mul y,8
104+  8068 E6 C0        		and 192
105+  806A F6 03        		or 3					; or 3 to keep layer on				; 8
106+  806C 01 3B 12     		ld bc,LAYER2_ACCESS_PORT
107+  806F ED 79        		out (c),a      ; 21			; select bank
108+  8071
109+  8071 7A           		ld a,d
110+  8072 E6 3F        		and 63
111+  8074 57           		ld d,a					; clear top 2 bits of y (dest) (4+4+4 = 12)
112+  8075              		; T96 here
113+  8075 3E 08        		ld a,8					; 7
114+  8077              .plotTilesLoop2:
115+  8077 D5           		push de					; 11
116+  8078 ED A0        		ldi
117+  807A ED A0        		ldi
118+  807C ED A0        		ldi
119+  807E ED A0        		ldi
120+  8080 ED A0        		ldi
121+  8082 ED A0        		ldi
122+  8084 ED A0        		ldi
123+  8086 ED A0        		ldi					; 8 * 16 = 128
124+  8088
125+  8088 D1           		pop de					; 11
126+  8089 14           		inc d					; 4 add 256 for next line down
127+  808A 3D           		dec a					; 4
128+  808B 20 EA        		jr nz,.plotTilesLoop2			; 12/7
129+  808D
130+  808D ED 91 56 0E  		nextreg $56,14 ;$0e
131+  8091 C9           		ret
132+  8092
133+  8092
134+  8092
135+  8092
136+  8092
137+  8092
138+  8092              ; ;HL=mem address start yx
139+  8092              ; ;DE=message address
140+  8092              ; display_string:
141+  8092              ;     ld a,(de)
142+  8092              ;     cp 0
143+  8092              ;     ret z
144+  8092              ;     cp ' '
145+  8092              ;     jp nz,disp_char_next
146+  8092              ; 	inc a
147+  8092              ; disp_char_next:
148+  8092              ;     sub FONT_ASCII_OFFSET
149+  8092              ;     push de
150+  8092              ;     push hl
151+  8092              ;     call PlotTile8
152+  8092              ;     pop hl
153+  8092              ;     pop de
154+  8092
155+  8092              ;     inc de
156+  8092              ;     inc l
157+  8092              ;     jp display_string
158+  8092
159+  8092
160+  8092              ; display_numbers:
161+  8092              ;     ld c,-100
162+  8092              ;     call dispnums_add_offset
163+  8092              ;     ld c,-10
164+  8092              ;     call dispnums_add_offset
165+  8092              ;     ld c,-1
166+  8092              ; dispnums_add_offset:
167+  8092              ;     ld b,FONT_START
168+  8092              ; dispnums_inc:
169+  8092              ;     inc b
170+  8092              ;     add a,c
171+  8092              ;     jr c, dispnums_inc
172+  8092              ;     sub c ;actually adding (its holding minus number)
173+  8092              ;     push af
174+  8092              ;     ld a,b
175+  8092              ;     push hl
176+  8092              ;     call PlotTile8
177+  8092              ;     pop hl
178+  8092              ;     inc l
179+  8092              ;     pop af
180+  8092              ;     ret
181+  8092
182+  8092
183+  8092
184+  8092
# file closed: src/retrotools/tools.asm
 42   8092
 43   8092              	include 'player.asm'
# file opened: src/player.asm
  1+  8092
  2+  8092
  3+  8092
  4+  8092
  5+  8092
  6+  8092              PLAYER_SLOT equ 50
  7+  8092
  8+  8092              PLAYER_DEFAULT_ATTR3 equ %11000000
  9+  8092
 10+  8092              PLAYER_HEIGHT equ 32
 11+  8092
 12+  8092              SCROLL_MARKER_X equ 320/2
 13+  8092
 14+  8092              PLAYER_WALK_SPEED equ 1
 15+  8092
 16+  8092
 17+  8092
 18+  8092 00           player_world_x db 0 ;in cells
 19+  8093 00           player_world_y db 0
 20+  8094
 21+  8094 30 00        px dw 48
 22+  8096 00           py db 0
 23+  8097 00           player_attr_2 db %00000000
 24+  8098 C0           player_attr_3 db PLAYER_DEFAULT_ATTR3
 25+  8099 20           player_attr_4 db %00100000
 26+  809A
 27+  809A 00           player_animation_timer db 0
 28+  809B              PLAYER_ANIMATION_DELAY equ 4
 29+  809B
 30+  809B
 31+  809B              ;movement states:
 32+  809B              WALKING equ 0xA
 33+  809B              JUMPING equ 0xB
 34+  809B              ATTACKING equ 0xC
 35+  809B              CLIMBING equ 0xD
 36+  809B
 37+  809B 0B           player_animation_state db JUMPING
 38+  809C
 39+  809C
 40+  809C 00 00        vy dw 0
 41+  809E
 42+  809E              DOWN_FORCE equ 32
 43+  809E              UP_FORCE equ 64
 44+  809E
 45+  809E              MAX_DOWN_SPEED equ 7
 46+  809E              MAX_UP_SPEED equ 5
 47+  809E
 48+  809E
 49+  809E
 50+  809E 00           player_collided_solid db FALSE
 51+  809F
 52+  809F
 53+  809F
 54+  809F 01           player_walk_direction db RIGHT
 55+  80A0 03           player_jump_direction db DOWN
 56+  80A1 D0           player_jump_point db 208
 57+  80A2              PLAYER_JUMP_HEIGHT equ 15
 58+  80A2              PLAYER_JUMP_ATTR3 equ %11001001
 59+  80A2 00           player_grounded db FALSE
 60+  80A3
 61+  80A3
 62+  80A3              player_init:
 63+  80A3 CD A8 80         call player_init_sprites
 64+  80A6
 65+  80A6 C9               ret
 66+  80A7
 67+  80A7
 68+  80A7              draw_debug_sprite:
 69+  80A7
 70+  80A7 C9               ret
 71+  80A8
 72+  80A8              player_init_sprites:
 73+  80A8 3E 32            ld a,PLAYER_SLOT
 74+  80AA ED 92 34         nextreg $34,a
 75+  80AD
 76+  80AD                  ;Axx
 77+  80AD                  ;xxx
 78+  80AD                  ;xxx
 79+  80AD
 80+  80AD                  ;attr 0
 81+  80AD 3A 94 80         ld a,(px)
 82+  80B0 ED 92 35         nextreg $35,a
 83+  80B3
 84+  80B3                  ;attr 1
 85+  80B3 3A 96 80         ld a,(py)
 86+  80B6 ED 92 36         nextreg $36,a
 87+  80B9
 88+  80B9                  ;attr 2
 89+  80B9 3A 97 80         ld a,(player_attr_2)
 90+  80BC 47               ld b,a
 91+  80BD 2A 94 80         ld hl,(px)
 92+  80C0 7C               ld a,h
 93+  80C1 B0               or b
 94+  80C2 ED 92 37         nextreg $37,a
 95+  80C5
 96+  80C5                  ;attr 3
 97+  80C5 3A 98 80         ld a,(player_attr_3)
 98+  80C8 ED 92 38         nextreg $38,a
 99+  80CB
100+  80CB                  ;attr 4
101+  80CB 3A 99 80         ld a,(player_attr_4)
102+  80CE ED 92 39         nextreg $39,a
103+  80D1
104+  80D1                  ;relative sprites...
105+  80D1
106+  80D1                  ;r1:
107+  80D1                  ;ARx
108+  80D1                  ;xxx
109+  80D1                  ;xxx
110+  80D1
111+  80D1 3E 33            ld a,PLAYER_SLOT+1
112+  80D3 ED 92 34         nextreg $34,a
113+  80D6
114+  80D6                  ;a0
115+  80D6 3E 10            ld a,16
116+  80D8 ED 92 35         nextreg $35,a
117+  80DB
118+  80DB                  ;a1
119+  80DB 3E 00            ld a,0
120+  80DD ED 92 36         nextreg $36,a
121+  80E0
122+  80E0                  ;a2
123+  80E0 3E 01            ld a,%00000001
124+  80E2 ED 92 37         nextreg $37,a
125+  80E5
126+  80E5                  ;a3
127+  80E5 3E C1            ld a,%11000001
128+  80E7 ED 92 38         nextreg $38,a
129+  80EA
130+  80EA                  ;a4
131+  80EA 3E 41            ld a,%01000001
132+  80EC ED 92 39         nextreg $39,a
133+  80EF
134+  80EF                  ;r2:
135+  80EF                  ;AxR
136+  80EF                  ;xxx
137+  80EF                  ;xxx
138+  80EF
139+  80EF 3E 34            ld a,PLAYER_SLOT+2
140+  80F1 ED 92 34         nextreg $34,a
141+  80F4
142+  80F4                  ;a0
143+  80F4 3E 20            ld a,32
144+  80F6 ED 92 35         nextreg $35,a
145+  80F9
146+  80F9                  ;a1
147+  80F9 3E 00            ld a,0
148+  80FB ED 92 36         nextreg $36,a
149+  80FE
150+  80FE                  ;a2
151+  80FE 3E 01            ld a,%00000001
152+  8100 ED 92 37         nextreg $37,a
153+  8103
154+  8103                  ;a3
155+  8103 3E C2            ld a,%11000010
156+  8105 ED 92 38         nextreg $38,a
157+  8108
158+  8108                  ;a4
159+  8108 3E 41            ld a,%01000001
160+  810A ED 92 39         nextreg $39,a
161+  810D
162+  810D                  ;r3:
163+  810D                  ;Axx
164+  810D                  ;Rxx
165+  810D                  ;xxx
166+  810D 3E 35            ld a,PLAYER_SLOT+3
167+  810F ED 92 34         nextreg $34,a
168+  8112
169+  8112                  ;a0
170+  8112 3E 00            ld a,0
171+  8114 ED 92 35         nextreg $35,a
172+  8117
173+  8117                  ;a1
174+  8117 3E 10            ld a,16
175+  8119 ED 92 36         nextreg $36,a
176+  811C
177+  811C                  ;a2
178+  811C 3E 01            ld a,%00000001
179+  811E ED 92 37         nextreg $37,a
180+  8121
181+  8121                  ;a3
182+  8121 3E C3            ld a,%11000011
183+  8123 ED 92 38         nextreg $38,a
184+  8126
185+  8126                  ;a4
186+  8126 3E 41            ld a,%01000001
187+  8128 ED 92 39         nextreg $39,a
188+  812B
189+  812B                  ;r4:
190+  812B                  ;Axx
191+  812B                  ;xRx
192+  812B                  ;xxx
193+  812B 3E 36            ld a,PLAYER_SLOT+4
194+  812D ED 92 34         nextreg $34,a
195+  8130
196+  8130                  ;a0
197+  8130 3E 10            ld a,16
198+  8132 ED 92 35         nextreg $35,a
199+  8135
200+  8135                  ;a1
201+  8135 3E 10            ld a,16
202+  8137 ED 92 36         nextreg $36,a
203+  813A
204+  813A                  ;a2
205+  813A 3E 01            ld a,%00000001
206+  813C ED 92 37         nextreg $37,a
207+  813F
208+  813F                  ;a3
209+  813F 3E C4            ld a,%11000100
210+  8141 ED 92 38         nextreg $38,a
211+  8144
212+  8144                  ;a4
213+  8144 3E 41            ld a,%01000001
214+  8146 ED 92 39         nextreg $39,a
215+  8149
216+  8149                  ;r5:
217+  8149                  ;Axx
218+  8149                  ;xxR
219+  8149                  ;xxx
220+  8149 3E 37            ld a,PLAYER_SLOT+5
221+  814B ED 92 34         nextreg $34,a
222+  814E
223+  814E                  ;a0
224+  814E 3E 20            ld a,32
225+  8150 ED 92 35         nextreg $35,a
226+  8153
227+  8153                  ;a1
228+  8153 3E 10            ld a,16
229+  8155 ED 92 36         nextreg $36,a
230+  8158
231+  8158                  ;a2
232+  8158 3E 01            ld a,%00000001
233+  815A ED 92 37         nextreg $37,a
234+  815D
235+  815D                  ;a3
236+  815D 3E C5            ld a,%11000101
237+  815F ED 92 38         nextreg $38,a
238+  8162
239+  8162                  ;a4
240+  8162 3E 41            ld a,%01000001
241+  8164 ED 92 39         nextreg $39,a
242+  8167
243+  8167                  ;r6:
244+  8167                  ;Axx
245+  8167                  ;xxx
246+  8167                  ;Rxx
247+  8167 3E 38            ld a,PLAYER_SLOT+6
248+  8169 ED 92 34         nextreg $34,a
249+  816C
250+  816C                  ;a0
251+  816C 3E 00            ld a,0
252+  816E ED 92 35         nextreg $35,a
253+  8171
254+  8171                  ;a1
255+  8171 3E 20            ld a,32
256+  8173 ED 92 36         nextreg $36,a
257+  8176
258+  8176                  ;a2
259+  8176 3E 01            ld a,%00000001
260+  8178 ED 92 37         nextreg $37,a
261+  817B
262+  817B                  ;a3
263+  817B 3E C6            ld a,%11000110
264+  817D ED 92 38         nextreg $38,a
265+  8180
266+  8180                  ;a4
267+  8180 3E 41            ld a,%01000001
268+  8182 ED 92 39         nextreg $39,a
269+  8185
270+  8185                  ;r7:
271+  8185                  ;Axx
272+  8185                  ;xxx
273+  8185                  ;xRx
274+  8185 3E 39            ld a,PLAYER_SLOT+7
275+  8187 ED 92 34         nextreg $34,a
276+  818A
277+  818A                  ;a0
278+  818A 3E 10            ld a,16
279+  818C ED 92 35         nextreg $35,a
280+  818F
281+  818F                  ;a1
282+  818F 3E 20            ld a,32
283+  8191 ED 92 36         nextreg $36,a
284+  8194
285+  8194                  ;a2
286+  8194 3E 01            ld a,%00000001
287+  8196 ED 92 37         nextreg $37,a
288+  8199
289+  8199                  ;a3
290+  8199 3E C7            ld a,%11000111
291+  819B ED 92 38         nextreg $38,a
292+  819E
293+  819E                  ;a4
294+  819E 3E 41            ld a,%01000001
295+  81A0 ED 92 39         nextreg $39,a
296+  81A3
297+  81A3                  ;r8:
298+  81A3                  ;Axx
299+  81A3                  ;xxx
300+  81A3                  ;xxR
301+  81A3 3E 3A            ld a,PLAYER_SLOT+8
302+  81A5 ED 92 34         nextreg $34,a
303+  81A8
304+  81A8                  ;a0
305+  81A8 3E 20            ld a,32
306+  81AA ED 92 35         nextreg $35,a
307+  81AD
308+  81AD                  ;a1
309+  81AD 3E 20            ld a,32
310+  81AF ED 92 36         nextreg $36,a
311+  81B2
312+  81B2                  ;a2
313+  81B2 3E 01            ld a,%00000001
314+  81B4 ED 92 37         nextreg $37,a
315+  81B7
316+  81B7                  ;a3
317+  81B7 3E C8            ld a,%11001000
318+  81B9 ED 92 38         nextreg $38,a
319+  81BC
320+  81BC                  ;a4
321+  81BC 3E 41            ld a,%01000001
322+  81BE ED 92 39         nextreg $39,a
323+  81C1
324+  81C1 C9               ret
325+  81C2              ;
326+  81C2
327+  81C2
328+  81C2
329+  81C2              player_update:
330+  81C2
331+  81C2
332+  81C2
333+  81C2
334+  81C2 3A 9B 80         ld a,(player_animation_state)
335+  81C5 FE 0A            cp WALKING
336+  81C7 CA E9 81         jp z, player_update_walking
337+  81CA FE 0B            cp JUMPING
338+  81CC CA 2A 82         jp z, player_update_jumping
339+  81CF                  ; cp ATTACKING
340+  81CF                  ; cp CLIMBING
341+  81CF
342+  81CF
343+  81CF C9               ret
344+  81D0
345+  81D0
346+  81D0
347+  81D0              player_walking_start:
348+  81D0 3A 9B 80         ld a,(player_animation_state)
349+  81D3 FE 0A            cp WALKING
350+  81D5 CA E9 81         jp z,player_update_walking
351+  81D8
352+  81D8 21 00 00         ld hl,0
353+  81DB 22 9C 80         ld (vy),hl
354+  81DE
355+  81DE 3E 0A            ld a,WALKING
356+  81E0 32 9B 80         ld (player_animation_state),a
357+  81E3
358+  81E3 3E C0            ld a,PLAYER_DEFAULT_ATTR3
359+  81E5 32 98 80         ld (player_attr_3),a
360+  81E8
361+  81E8 C9               ret
362+  81E9              player_update_walking:
363+  81E9 3A 9A 80         ld a,(player_animation_timer)
364+  81EC 3C               inc a
365+  81ED 32 9A 80         ld (player_animation_timer),a
366+  81F0
367+  81F0 3A 17 86         ld a,(keypressed_A)
368+  81F3 FE 01            cp TRUE
369+  81F5 CC 93 82         call z,plyr_move_left_start
370+  81F8
371+  81F8 3A 1B 86         ld a,(keypressed_D)
372+  81FB FE 01            cp TRUE
373+  81FD CC DD 82         call z,plyr_move_right_start
374+  8200
375+  8200 3A 23 86         ld a,(keypressed_Space)
376+  8203 FE 01            cp TRUE
377+  8205 CC 0C 82         call z,player_jump_start
378+  8208
379+  8208
380+  8208
381+  8208 CD ED 83         call check_grounded
382+  820B
383+  820B C9               ret
384+  820C
385+  820C              player_jump_start:
386+  820C                  ; ld a,(keypressed_Space_Held)
387+  820C                  ; cp TRUE
388+  820C                  ; ret z
389+  820C
390+  820C 3E C9            ld a,PLAYER_JUMP_ATTR3
391+  820E 32 98 80         ld (player_attr_3),a
392+  8211
393+  8211 3A 9B 80         ld a,(player_animation_state)
394+  8214 FE 0B            cp JUMPING
395+  8216 C8               ret z
396+  8217
397+  8217 3E 0B            ld a,JUMPING
398+  8219 32 9B 80         ld (player_animation_state),a
399+  821C
400+  821C 3A 96 80         ld a,(py)
401+  821F 32 A1 80         ld (player_jump_point),a
402+  8222
403+  8222 3E 02            ld a,UP
404+  8224 32 A0 80         ld (player_jump_direction),a
405+  8227
406+  8227 C3 C2 81         jp player_update
407+  822A
408+  822A
409+  822A              player_update_jumping:
410+  822A 3A 17 86         ld a,(keypressed_A)
411+  822D FE 01            cp TRUE
412+  822F CC 93 82         call z,plyr_move_left_start
413+  8232
414+  8232 3A 1B 86         ld a,(keypressed_D)
415+  8235 FE 01            cp TRUE
416+  8237 CC DD 82         call z,plyr_move_right_start
417+  823A
418+  823A CD 67 83         call player_calculate_world_position
419+  823D
420+  823D CD AD 83         call check_collision_jumping
421+  8240
422+  8240 3A A1 80         ld a,(player_jump_point)
423+  8243 D6 0F            sub PLAYER_JUMP_HEIGHT
424+  8245 47               ld b,a
425+  8246 3A 96 80         ld a,(py)
426+  8249 B8               cp b
427+  824A DC 62 82         call c,plyr_set_jump_down
428+  824D
429+  824D
430+  824D 3A A0 80         ld a,(player_jump_direction)
431+  8250 FE 02            cp UP
432+  8252 F5               push af
433+  8253 CC 68 82         call z, apply_force_up
434+  8256 F1               pop af
435+  8257 FE 03            cp DOWN
436+  8259 F5               push af
437+  825A CC 77 82         call z, apply_force_down
438+  825D F1               pop af
439+  825E
440+  825E
441+  825E
442+  825E CD 86 82         call apply_velocity
443+  8261
444+  8261
445+  8261 C9               ret
446+  8262
447+  8262
448+  8262
449+  8262
450+  8262              plyr_set_jump_down:
451+  8262 3E 03            ld a,DOWN
452+  8264 32 A0 80         ld (player_jump_direction),a
453+  8267 C9               ret
454+  8268
455+  8268              apply_force_up:
456+  8268 2A 9C 80         ld hl,(vy)
457+  826B 7C               ld a,h
458+  826C FE FB            cp -MAX_UP_SPEED
459+  826E C8               ret z
460+  826F
461+  826F ED 34 80 FF      add hl,-UP_FORCE*2
462+  8273 22 9C 80         ld (vy),hl
463+  8276 C9               ret
464+  8277              apply_force_down:
465+  8277 2A 9C 80         ld hl,(vy)
466+  827A 7C               ld a,h
467+  827B FE 07            cp MAX_DOWN_SPEED
468+  827D C8               ret z
469+  827E ED 34 20 00      add hl,DOWN_FORCE
470+  8282 22 9C 80         ld (vy),hl
471+  8285 C9               ret
472+  8286
473+  8286              apply_velocity:
474+  8286 21 96 80         ld hl,py
475+  8289 46               ld b,(hl)
476+  828A 2A 9C 80         ld hl,(vy)
477+  828D 7C               ld a,h
478+  828E 80               add a,b
479+  828F 32 96 80         ld (py),a
480+  8292 C9               ret
481+  8293
482+  8293
483+  8293
484+  8293              plyr_move_left_start:
485+  8293 3E 00            ld a,LEFT
486+  8295 32 9F 80         ld (player_walk_direction),a
487+  8298
488+  8298 3A 97 80         ld a,(player_attr_2)
489+  829B CB 5F            bit 3,a
490+  829D C2 B2 82         jp nz,plyr_move_left
491+  82A0
492+  82A0 3A 97 80         ld a,(player_attr_2)
493+  82A3 CB DF            set 3,a
494+  82A5 32 97 80         ld (player_attr_2),a
495+  82A8
496+  82A8 2A 94 80         ld hl,(px)
497+  82AB ED 34 20 00      add hl,32 ;2 relatives width (plus anchor)
498+  82AF 22 94 80         ld (px),hl
499+  82B2              plyr_move_left:
500+  82B2
501+  82B2 CD 67 83         call player_calculate_world_position
502+  82B5                  ; ; ; ; ; ; ; ; call check_collision_left
503+  82B5
504+  82B5 3A 9E 80         ld a,(player_collided_solid)
505+  82B8 FE 01            cp TRUE
506+  82BA C8               ret z
507+  82BB
508+  82BB 3A 9A 80         ld a,(player_animation_timer)
509+  82BE FE 04            cp PLAYER_ANIMATION_DELAY
510+  82C0 D4 4B 83         call nc, player_animate_walk
511+  82C3
512+  82C3 2A 94 80         ld hl,(px)
513+  82C6 7C               ld a,h
514+  82C7 FE 00            cp 0
515+  82C9 C2 D5 82         jp nz,p_move_left
516+  82CC 7D               ld a,l
517+  82CD FE A1            cp SCROLL_MARKER_X+1
518+  82CF DA ED 8C         jp c,scroll_left
519+  82D2 D2 D5 82         jp nc,p_move_left
520+  82D5
521+  82D5              p_move_left:
522+  82D5 ED 34 FF FF      add hl,-PLAYER_WALK_SPEED
523+  82D9 22 94 80         ld (px),hl
524+  82DC C9               ret
525+  82DD
526+  82DD
527+  82DD              plyr_move_right_start:
528+  82DD 3E 01            ld a,RIGHT
529+  82DF 32 9F 80         ld (player_walk_direction),a
530+  82E2
531+  82E2 3A 97 80         ld a,(player_attr_2)
532+  82E5 CB 5F            bit 3,a
533+  82E7 CA FC 82         jp z,plyr_move_right
534+  82EA
535+  82EA 3A 97 80         ld a,(player_attr_2)
536+  82ED CB 9F            res 3,a
537+  82EF 32 97 80         ld (player_attr_2),a
538+  82F2
539+  82F2 2A 94 80         ld hl,(px)
540+  82F5 ED 34 E0 FF      add hl,-32
541+  82F9 22 94 80         ld (px),hl
542+  82FC              plyr_move_right:
543+  82FC CD 67 83         call player_calculate_world_position
544+  82FF                  ; ; ; ; ; ; ; ; ; ; call check_collision_right
545+  82FF
546+  82FF 3A 9E 80         ld a,(player_collided_solid)
547+  8302 FE 01            cp TRUE
548+  8304 C8               ret z
549+  8305
550+  8305 3A 9A 80         ld a,(player_animation_timer)
551+  8308 FE 04            cp PLAYER_ANIMATION_DELAY
552+  830A D4 4B 83         call nc, player_animate_walk
553+  830D
554+  830D 2A 94 80         ld hl,(px)
555+  8310 7D               ld a,l
556+  8311 FE A0            cp SCROLL_MARKER_X
557+  8313 D2 C8 8D         jp nc,scroll_right
558+  8316 DA 19 83         jp c,p_move_right
559+  8319
560+  8319              p_move_right
561+  8319 ED 34 01 00      add hl,PLAYER_WALK_SPEED
562+  831D 22 94 80         ld (px),hl
563+  8320 C9               ret
564+  8321
565+  8321
566+  8321
567+  8321
568+  8321
569+  8321
570+  8321              player_draw:
571+  8321 3E 32            ld a,PLAYER_SLOT
572+  8323 ED 92 34         nextreg $34,a
573+  8326
574+  8326                  ;attr 0
575+  8326 3A 94 80         ld a,(px)
576+  8329 ED 92 35         nextreg $35,a
577+  832C
578+  832C                  ;attr 1
579+  832C 3A 96 80         ld a,(py)
580+  832F ED 92 36         nextreg $36,a
581+  8332
582+  8332                  ;attr 2
583+  8332 3A 97 80         ld a,(player_attr_2)
584+  8335 47               ld b,a
585+  8336 2A 94 80         ld hl,(px)
586+  8339 7C               ld a,h
587+  833A B0               or b
588+  833B ED 92 37         nextreg $37,a
589+  833E
590+  833E                  ;attr 3
591+  833E 3A 98 80         ld a,(player_attr_3)
592+  8341 ED 92 38         nextreg $38,a
593+  8344
594+  8344                  ;attr 4
595+  8344 3A 99 80         ld a,(player_attr_4)
596+  8347 ED 92 39         nextreg $39,a
597+  834A
598+  834A C9               ret
599+  834B
600+  834B
601+  834B
602+  834B
603+  834B              player_animate_walk:
604+  834B AF               xor a
605+  834C 32 9A 80         ld (player_animation_timer),a
606+  834F
607+  834F 3A 98 80         ld a,(player_attr_3)
608+  8352 E6 3F            and %00111111 ;mask out top 2 bits
609+  8354 FE 1B            cp SPRITE_PLAYER_COUNT-SPRITE_SEGMENTS
610+  8356 CA 61 83         jp z,player_set_to_default_frame
611+  8359 C6 09            add a,SPRITE_SEGMENTS
612+  835B C6 C0            add a,PLAYER_DEFAULT_ATTR3
613+  835D 32 98 80         ld (player_attr_3),a
614+  8360 C9               ret
615+  8361
616+  8361              player_set_to_default_frame:
617+  8361 3E C0            ld a,PLAYER_DEFAULT_ATTR3
618+  8363 32 98 80         ld (player_attr_3),a
619+  8366 C9               ret
620+  8367
621+  8367
622+  8367              player_calculate_world_position:
623+  8367 3A 96 80         ld a,(py)
624+  836A E6 F0            and %11110000
625+  836C 0F               rrca
626+  836D 0F               rrca
627+  836E 0F               rrca
628+  836F 0F               rrca
629+  8370 32 93 80         ld (player_world_y),a
630+  8373
631+  8373 3A 9F 80         ld a,(player_walk_direction)
632+  8376 FE 01            cp RIGHT
633+  8378 CA 92 83         jp z, p_wp_r
634+  837B
635+  837B              p_wp_l:
636+  837B 2A 94 80         ld hl,(px)
637+  837E                  ; add hl,32
638+  837E 7D               ld a,l
639+  837F E6 F0            and %11110000
640+  8381 0F               rrca
641+  8382 0F               rrca
642+  8383 0F               rrca
643+  8384 0F               rrca
644+  8385 47               ld b,a
645+  8386 3A F6 8B         ld a,(cam_edge_r)
646+  8389 D6 14            sub VIEW_WIDTH_META
647+  838B 4F               ld c,a
648+  838C 78               ld a,b
649+  838D 81               add a,c
650+  838E 32 92 80         ld (player_world_x),a
651+  8391 C9               ret
652+  8392              p_wp_r:
653+  8392 2A 94 80         ld hl,(px)
654+  8395 ED 34 18 00      add hl,24
655+  8399 7D               ld a,l
656+  839A E6 F0            and %11110000
657+  839C 0F               rrca
658+  839D 0F               rrca
659+  839E 0F               rrca
660+  839F 0F               rrca
661+  83A0 47               ld b,a
662+  83A1 3A F6 8B         ld a,(cam_edge_r)
663+  83A4 D6 14            sub VIEW_WIDTH_META
664+  83A6 4F               ld c,a
665+  83A7 78               ld a,b
666+  83A8 81               add a,c
667+  83A9 32 92 80         ld (player_world_x),a
668+  83AC C9               ret
669+  83AD
670+  83AD
671+  83AD
672+  83AD              check_collision_jumping:
673+  83AD 3A 9B 80         ld a,(player_animation_state)
674+  83B0 FE 0B            cp JUMPING
675+  83B2 C0               ret nz
676+  83B3
677+  83B3 3A A0 80         ld a,(player_jump_direction)
678+  83B6 FE 03            cp DOWN
679+  83B8 C0               ret nz
680+  83B9
681+  83B9
682+  83B9 21 74 87         ld hl,metalevel
683+  83BC 3A 93 80         ld a,(player_world_y)
684+  83BF FE 05            cp 5
685+  83C1 D8               ret c
686+  83C2 D6 05            sub 5
687+  83C4 57               ld d,a
688+  83C5 1E 50            ld e,LEVEL_WIDTH_META
689+  83C7 ED 30            mul d,e
690+  83C9 19               add hl,de
691+  83CA 3A 92 80         ld a,(player_world_x)
692+  83CD 5F               ld e,a
693+  83CE 16 00            ld d,0
694+  83D0 19               add hl,de
695+  83D1 7E               ld a,(hl)
696+  83D2 CD 6B 87         call check_solid
697+  83D5 CA D9 83         jp z,collided_jumping
698+  83D8
699+  83D8
700+  83D8
701+  83D8 C9               ret
702+  83D9
703+  83D9
704+  83D9              collided_jumping:
705+  83D9
706+  83D9                  ;snap to nearest cell
707+  83D9 3A 93 80         ld a,(player_world_y)
708+  83DC 87               add a,a
709+  83DD 87               add a,a
710+  83DE 87               add a,a
711+  83DF 87               add a,a
712+  83E0 32 96 80         ld (py),a
713+  83E3
714+  83E3 3A A0 80         ld a,(player_jump_direction)
715+  83E6 FE 02            cp UP
716+  83E8 C8               ret z
717+  83E9
718+  83E9                  ;collided
719+  83E9 CD D0 81         call player_walking_start
720+  83EC
721+  83EC
722+  83EC
723+  83EC C9               ret
724+  83ED
725+  83ED
726+  83ED              check_grounded:
727+  83ED 3A A0 80         ld a,(player_jump_direction)
728+  83F0 FE 03            cp DOWN
729+  83F2 C0               ret nz
730+  83F3
731+  83F3 21 74 87         ld hl,metalevel
732+  83F6 3A 93 80         ld a,(player_world_y)
733+  83F9 FE 05            cp 5
734+  83FB D8               ret c
735+  83FC D6 05            sub 5
736+  83FE 57               ld d,a
737+  83FF 1E 50            ld e,LEVEL_WIDTH_META
738+  8401 ED 30            mul d,e
739+  8403 19               add hl,de
740+  8404 3A 92 80         ld a,(player_world_x)
741+  8407 5F               ld e,a
742+  8408 16 00            ld d,0
743+  840A 19               add hl,de
744+  840B 7E               ld a,(hl)
745+  840C CD 6B 87         call check_solid
746+  840F CA 15 84         jp z,grounded_true
747+  8412
748+  8412
749+  8412 C3 1B 84         jp grounded_false
750+  8415              grounded_true:
751+  8415                  ; BREAKPOINT
752+  8415 3E 01            ld a,TRUE
753+  8417 32 A2 80         ld (player_grounded),a
754+  841A C9               ret
755+  841B
756+  841B              grounded_false:
757+  841B 3E 00            ld a,FALSE
758+  841D 32 A2 80         ld (player_grounded),a
759+  8420
760+  8420
761+  8420 3E 0B            ld a,JUMPING
762+  8422 32 9B 80         ld (player_animation_state),a
763+  8425
764+  8425 C9               ret
765+  8426
766+  8426
767+  8426              ; check_collision_left:
768+  8426              ;     ld hl,level1
769+  8426              ;     ld a,(player_world_y)
770+  8426              ;     add a,2
771+  8426              ;     ld d,a
772+  8426              ;     ld e,WORLD_WIDTH
773+  8426              ;     mul d,e
774+  8426              ;     add hl,de
775+  8426              ;     ld a,(player_world_x)
776+  8426              ;     ld e,a
777+  8426              ;     ld d,0
778+  8426              ;     add hl,de
779+  8426              ;     ld a,(hl)
780+  8426              ;     cp 12
781+  8426              ;     jp c,collided_solid_sideways
782+  8426
783+  8426              ;     ld a,FALSE
784+  8426              ;     ld (player_collided_solid),a
785+  8426
786+  8426              ;     ret
787+  8426
788+  8426
789+  8426
790+  8426              ; check_collision_right:
791+  8426              ;     ld hl,(px)
792+  8426              ;     ld a,h
793+  8426              ;     cp 0
794+  8426              ;     jp nz, check_collision_right_x8
795+  8426
796+  8426              ;     ld hl,level1
797+  8426              ;     ld a,(player_world_y)
798+  8426              ;     ld d,a
799+  8426              ;     ld e,WORLD_WIDTH
800+  8426              ;     mul d,e
801+  8426              ;     add hl,de
802+  8426              ;     ld a,(player_world_x)
803+  8426              ;     add a,1
804+  8426              ;     ld e,a
805+  8426              ;     ld d,0
806+  8426              ;     add hl,de
807+  8426              ;     ld a,(hl)
808+  8426              ;     cp 12
809+  8426              ;     jp c,collided_solid_sideways
810+  8426
811+  8426              ;     ld hl,level1
812+  8426              ;     ld a,(player_world_y)
813+  8426              ;     add a,1
814+  8426              ;     ld d,a
815+  8426              ;     ld e,WORLD_WIDTH
816+  8426              ;     mul d,e
817+  8426              ;     add hl,de
818+  8426              ;     ld a,(player_world_x)
819+  8426              ;     add a,1
820+  8426              ;     ld e,a
821+  8426              ;     ld d,0
822+  8426              ;     add hl,de
823+  8426              ;     ld a,(hl)
824+  8426              ;     cp 12
825+  8426              ;     jp c,collided_solid_sideways
826+  8426
827+  8426              ;     ld hl,level1
828+  8426              ;     ld a,(player_world_y)
829+  8426              ;     add a,2
830+  8426              ;     ld d,a
831+  8426              ;     ld e,WORLD_WIDTH
832+  8426              ;     mul d,e
833+  8426              ;     add hl,de
834+  8426              ;     ld a,(player_world_x)
835+  8426              ;     add a,1
836+  8426              ;     ld e,a
837+  8426              ;     ld d,0
838+  8426              ;     add hl,de
839+  8426              ;     ld a,(hl)
840+  8426              ;     cp 12
841+  8426              ;     jp c,collided_solid_sideways
842+  8426
843+  8426              ;     ld hl,level1
844+  8426              ;     ld a,(player_world_y)
845+  8426              ;     add a,3
846+  8426              ;     ld d,a
847+  8426              ;     ld e,WORLD_WIDTH
848+  8426              ;     mul d,e
849+  8426              ;     add hl,de
850+  8426              ;     ld a,(player_world_x)
851+  8426              ;     add a,1
852+  8426              ;     ld e,a
853+  8426              ;     ld d,0
854+  8426              ;     add hl,de
855+  8426              ;     ld a,(hl)
856+  8426              ;     cp 12
857+  8426              ;     jp c,collided_solid_sideways
858+  8426
859+  8426
860+  8426
861+  8426              ;     ld a,FALSE
862+  8426              ;     ld (player_collided_solid),a
863+  8426
864+  8426              ;     ret
865+  8426
866+  8426              ; check_collision_right_x8:
867+  8426              ;     ld hl,level1
868+  8426              ;     ld a,(player_world_y)
869+  8426              ;     ld d,a
870+  8426              ;     ld e,WORLD_WIDTH
871+  8426              ;     mul d,e
872+  8426              ;     add hl,de
873+  8426              ;     ld a,(player_world_x)
874+  8426              ;     add a,33
875+  8426              ;     ld e,a
876+  8426              ;     ld d,0
877+  8426              ;     add hl,de
878+  8426              ;     ld a,(hl)
879+  8426              ;     cp 12
880+  8426              ;     jp c,collided_solid_sideways
881+  8426
882+  8426              ;     ld hl,level1
883+  8426              ;     ld a,(player_world_y)
884+  8426              ;     add a,1
885+  8426              ;     ld d,a
886+  8426              ;     ld e,WORLD_WIDTH
887+  8426              ;     mul d,e
888+  8426              ;     add hl,de
889+  8426              ;     ld a,(player_world_x)
890+  8426              ;     add a,33
891+  8426              ;     ld e,a
892+  8426              ;     ld d,0
893+  8426              ;     add hl,de
894+  8426              ;     ld a,(hl)
895+  8426              ;     cp 12
896+  8426              ;     jp c,collided_solid_sideways
897+  8426
898+  8426              ;     ld hl,level1
899+  8426              ;     ld a,(player_world_y)
900+  8426              ;     add a,2
901+  8426              ;     ld d,a
902+  8426              ;     ld e,WORLD_WIDTH
903+  8426              ;     mul d,e
904+  8426              ;     add hl,de
905+  8426              ;     ld a,(player_world_x)
906+  8426              ;     add a,33
907+  8426              ;     ld e,a
908+  8426              ;     ld d,0
909+  8426              ;     add hl,de
910+  8426              ;     ld a,(hl)
911+  8426              ;     cp 12
912+  8426              ;     jp c,collided_solid_sideways
913+  8426
914+  8426              ;     ld hl,level1
915+  8426              ;     ld a,(player_world_y)
916+  8426              ;     add a,3
917+  8426              ;     ld d,a
918+  8426              ;     ld e,WORLD_WIDTH
919+  8426              ;     mul d,e
920+  8426              ;     add hl,de
921+  8426              ;     ld a,(player_world_x)
922+  8426              ;     add a,33
923+  8426              ;     ld e,a
924+  8426              ;     ld d,0
925+  8426              ;     add hl,de
926+  8426              ;     ld a,(hl)
927+  8426              ;     cp 12
928+  8426              ;     jp c,collided_solid_sideways
929+  8426
930+  8426
931+  8426
932+  8426              ;     ld a,FALSE
933+  8426              ;     ld (player_collided_solid),a
934+  8426
935+  8426              ;     ret
936+  8426
937+  8426
938+  8426
939+  8426
940+  8426
941+  8426
942+  8426              ; collided_solid_sideways:
943+  8426              ;     ld a,TRUE
944+  8426              ;     ld (player_collided_solid),a
945+  8426              ;     ret
# file closed: src/player.asm
 44   8426              	include 'objects.asm'
# file opened: src/objects.asm
  1+  8426
  2+  8426
  3+  8426
  4+  8426              OBJECT_PUMPKIN equ 0
  5+  8426              OBJECT_GHOST equ 1
  6+  8426              OBJECT_GHOST_WALKER equ 2
  7+  8426              OBJECT_DEAD equ 100
  8+  8426              OBJECT_COLLIDED equ $FF
  9+  8426              OBJECT_HEIGHT equ 16
 10+  8426
 11+  8426
 12+  8426              ;::All objects have 2 frame animation::
 13+  8426
 14+  8426              ;0=isInView
 15+  8426              ;1=objType
 16+  8426              ;2=wX
 17+  8426              ;3=wY
 18+  8426              ;4,5=XX
 19+  8426              ;6=Y
 20+  8426              ;7=att2
 21+  8426              ;8=att3
 22+  8426              ;9=att4
 23+  8426              ;10=slot_ID
 24+  8426              ;11=sprites specific XOR value
 25+  8426              ;12=direction
 26+  8426
 27+  8426              objects:
 28+  8426                  ; db FALSE, OBJECT_PUMPKIN, 01, 01  : dw 0 : db 0,  %00000000,%01010000,%00000000,0,1,RIGHT
 29+  8426                  ; db FALSE, OBJECT_GHOST, 50, 19 : dw 0 : db 0, %00000000,%01010010,%00000000,11,1,RIGHT
 30+  8426                  ; db FALSE, OBJECT_GHOST_WALKER, 39, 24 : dw 0 : db 0, %00000000,%01010010,%00000000,15,1,LEFT
 31+  8426                  ; db FALSE, OBJECT_GHOST_WALKER, 50, 26 : dw 0 : db 0, %00000000,%01010010,%00000000,15,1,LEFT
 32+  8426                  ; db FALSE, OBJECT_GHOST_WALKER, 72, 26 : dw 0 : db 0, %00000000,%01010010,%00000000,15,1,LEFT
 33+  8426                  ; db FALSE, OBJECT_GHOST_WALKER, 110, 26 : dw 0 : db 0, %00000000,%01010010,%00000000,15,1,LEFT
 34+  8426 FF               db END_OF_ARRAY
 35+  8427
 36+  8427              OBJECTS_DATA_LENGTH equ 13
 37+  8427
 38+  8427
 39+  8427              GHOST_SPEED equ 2
 40+  8427              GHOST_MAX_MOVEMENT_X equ 30
 41+  8427
 42+  8427
 43+  8427
 44+  8427              ;sX= wX-(cam_edge_r-VW)*8
 45+  8427              ;sY= wY*8
 46+  8427
 47+  8427
 48+  8427
 49+  8427              objects_init:
 50+  8427 C9               ret
 51+  8428
 52+  8428
 53+  8428
 54+  8428              objects_update:
 55+  8428 DD 21 26 84      ld ix,objects
 56+  842C              objs_update_start:
 57+  842C DD 7E 00         ld a,(ix)
 58+  842F FE FF            cp END_OF_ARRAY
 59+  8431 C8               ret z
 60+  8432
 61+  8432 CD 52 84         call object_update
 62+  8435
 63+  8435 11 0D 00         ld de,OBJECTS_DATA_LENGTH
 64+  8438 DD 19            add ix,de
 65+  843A C3 2C 84         jp objs_update_start
 66+  843D
 67+  843D
 68+  843D
 69+  843D
 70+  843D              objects_draw:
 71+  843D DD 21 26 84      ld ix,objects
 72+  8441              objs_draw_start:
 73+  8441 DD 7E 00         ld a,(ix)
 74+  8444 FE FF            cp END_OF_ARRAY
 75+  8446 C8               ret z
 76+  8447
 77+  8447 CD 0D 85         call object_draw
 78+  844A
 79+  844A 11 0D 00         ld de,OBJECTS_DATA_LENGTH
 80+  844D DD 19            add ix,de
 81+  844F C3 41 84         jp objs_draw_start
 82+  8452
 83+  8452
 84+  8452
 85+  8452
 86+  8452
 87+  8452
 88+  8452
 89+  8452              object_update:
 90+  8452 DD 7E 01         ld a,(ix+1)
 91+  8455 FE 64            cp OBJECT_DEAD
 92+  8457 C8               ret z
 93+  8458
 94+  8458
 95+  8458 CD 6B 84         call object_check_in_view
 96+  845B CD FA 84         call animate_object
 97+  845E
 98+  845E DD 7E 01         ld a,(ix+1)
 99+  8461 FE 00            cp OBJECT_PUMPKIN
100+  8463 C8               ret z
101+  8464
102+  8464 CD 3D 85         call handle_behaviour
103+  8467 CD 76 85         call object_check_collision_player
104+  846A
105+  846A C9               ret
106+  846B
107+  846B
108+  846B
109+  846B              object_check_in_view:
110+  846B
111+  846B
112+  846B DD 7E 02         ld a,(ix+2)
113+  846E 47               ld b,a
114+  846F 3A F6 8B         ld a,(cam_edge_r)
115+  8472 B8               cp b
116+  8473 DA 93 84         jp c, obj_set_not_inview
117+  8476
118+  8476 3A F6 8B         ld a,(cam_edge_r)
119+  8479 D6 28            sub VIEW_WIDTH
120+  847B 47               ld b,a
121+  847C DD 7E 02         ld a,(ix+2)
122+  847F B8               cp b
123+  8480 DA 93 84         jp c, obj_set_not_inview
124+  8483
125+  8483                  ; set to inview=yes
126+  8483 DD 36 00 01      ld (ix),TRUE
127+  8487 DD 7E 08         ld a,(ix+8)
128+  848A CB FF            set 7,a
129+  848C DD 77 08         ld (ix+8),a
130+  848F
131+  848F CD A3 84         call object_calculate_screen_pos
132+  8492 C9               ret
133+  8493
134+  8493              obj_set_not_inview:
135+  8493 DD 36 00 00      ld (ix),FALSE
136+  8497 DD 7E 08         ld a,(ix+8)
137+  849A CB BF            res 7,a
138+  849C DD 77 08         ld (ix+8),a
139+  849F CD 13 85         call obj_drw
140+  84A2 C9               ret
141+  84A3
142+  84A3
143+  84A3
144+  84A3              object_calculate_screen_pos:
145+  84A3                  ;Y
146+  84A3 DD 7E 03         ld a,(ix+3)
147+  84A6 87               add a,a
148+  84A7 87               add a,a
149+  84A8 87               add a,a ;A*8
150+  84A9 DD 77 06         ld (ix+6),a
151+  84AC
152+  84AC 3A F5 8B         ld a,(scroll_direction)
153+  84AF FE 00            cp LEFT
154+  84B1 CA BA 84         jp z,obj_screen_moving_left
155+  84B4 FE 01            cp RIGHT
156+  84B6 CA D8 84         jp z,obj_screen_moving_right
157+  84B9
158+  84B9 C9               ret
159+  84BA
160+  84BA              obj_screen_moving_left:
161+  84BA                  ;X (scroll left)
162+  84BA 3A F6 8B         ld a,(cam_edge_r)
163+  84BD D6 28            sub VIEW_WIDTH
164+  84BF 47               ld b,a
165+  84C0 DD 7E 02         ld a,(ix+2) ;wX
166+  84C3 90               sub b ;wX-camX
167+  84C4 21 00 00         ld hl,0
168+  84C7 ED 31            add hl,a
169+  84C9 29               add hl,hl
170+  84CA 29               add hl,hl
171+  84CB 29               add hl,hl
172+  84CC 3A F4 8B         ld a,(current_scroll)
173+  84CF ED 31            add hl,a
174+  84D1 DD 75 04         ld (ix+4),l
175+  84D4 DD 74 05         ld (ix+5),h ;X8
176+  84D7 C9               ret
177+  84D8
178+  84D8              obj_screen_moving_right:
179+  84D8                  ;X (scroll left)
180+  84D8 3A F6 8B         ld a,(cam_edge_r)
181+  84DB D6 28            sub VIEW_WIDTH
182+  84DD 47               ld b,a
183+  84DE DD 7E 02         ld a,(ix+2) ;wX
184+  84E1 90               sub b ;wX-camX
185+  84E2 21 00 00         ld hl,0
186+  84E5 ED 31            add hl,a
187+  84E7 29               add hl,hl
188+  84E8 29               add hl,hl
189+  84E9 29               add hl,hl
190+  84EA 3A F4 8B         ld a,(current_scroll)
191+  84ED 47               ld b,a
192+  84EE 3E 08            ld a,8
193+  84F0 90               sub b
194+  84F1 ED 31            add hl,a
195+  84F3 DD 75 04         ld (ix+4),l
196+  84F6 DD 74 05         ld (ix+5),h ;X8
197+  84F9
198+  84F9 C9               ret
199+  84FA
200+  84FA
201+  84FA              animate_object:
202+  84FA DD 7E 08         ld a,(ix+8)
203+  84FD E6 C0            and %11000000
204+  84FF 47               ld b,a
205+  8500 DD 7E 08         ld a,(ix+8)
206+  8503 E6 3F            and %00111111
207+  8505 DD AE 0B         xor (ix+11)
208+  8508 80               add a,b
209+  8509 DD 77 08         ld (ix+8),a
210+  850C C9               ret
211+  850D
212+  850D
213+  850D              object_draw:
214+  850D DD 7E 00         ld a,(ix)
215+  8510 FE 01            cp TRUE
216+  8512 C0               ret nz
217+  8513              obj_drw:
218+  8513 DD 7E 0A         ld a,(ix+10)
219+  8516 ED 92 34         nextreg $34,a
220+  8519
221+  8519                  ;attr 0
222+  8519 DD 7E 04         ld a,(ix+4)
223+  851C ED 92 35         nextreg $35,a
224+  851F
225+  851F                  ;attr 1
226+  851F DD 7E 06         ld a,(ix+6)
227+  8522 ED 92 36         nextreg $36,a
228+  8525
229+  8525                  ;attr 2
230+  8525 DD 7E 07         ld a,(ix+7)
231+  8528 47               ld b,a
232+  8529 DD 7E 05         ld a,(ix+5)
233+  852C B0               or b
234+  852D ED 92 37         nextreg $37,a
235+  8530
236+  8530                  ;attr 3
237+  8530 DD 7E 08         ld a,(ix+8)
238+  8533 ED 92 38         nextreg $38,a
239+  8536
240+  8536                  ;attr 4
241+  8536 DD 7E 09         ld a,(ix+9)
242+  8539 ED 92 39         nextreg $39,a
243+  853C
244+  853C C9               ret
245+  853D
246+  853D
247+  853D
248+  853D
249+  853D
250+  853D
251+  853D
252+  853D              handle_behaviour:
253+  853D DD 7E 00         ld a,(ix)
254+  8540 FE 00            cp FALSE
255+  8542 C8               ret z
256+  8543
257+  8543 DD 7E 01         ld a,(ix+1)
258+  8546 FE 01            cp OBJECT_GHOST
259+  8548 CA 51 85         jp z, handle_behaviour_ghost
260+  854B FE 02            cp OBJECT_GHOST_WALKER
261+  854D CA 61 85         jp z, handle_behaviour_ghost_walker
262+  8550 C9               ret
263+  8551
264+  8551
265+  8551              handle_behaviour_ghost:
266+  8551 DD 7E 0C         ld a,(ix+12)
267+  8554 FE 00            cp LEFT
268+  8556 CA 5F 85         jp z,ghost_move_left
269+  8559 FE 01            cp RIGHT
270+  855B CA 60 85         jp z,ghost_move_right
271+  855E
272+  855E C9               ret
273+  855F
274+  855F              ghost_move_left:
275+  855F                  ; ld a,(ix+2)
276+  855F                  ; dec a
277+  855F                  ; ld (ix+2),a
278+  855F
279+  855F                  ; ; ld a,h
280+  855F                  ; ; or l
281+  855F                  ; ; ret nz
282+  855F
283+  855F                  ; ; ld a,RIGHT
284+  855F                  ; ; ld (ix+12),a
285+  855F
286+  855F C9               ret
287+  8560              ghost_move_right:
288+  8560                  ; ld h,(ix+14)
289+  8560                  ; ld l,(ix+15)
290+  8560                  ; add hl,GHOST_SPEED
291+  8560                  ; ld (ix+14),h
292+  8560                  ; ld (ix+15),l
293+  8560
294+  8560                  ; ld a,l
295+  8560                  ; cp GHOST_MAX_MOVEMENT_X
296+  8560                  ; ret nz
297+  8560
298+  8560                  ; ld a,LEFT
299+  8560                  ; ld (ix+12),a
300+  8560
301+  8560
302+  8560 C9               ret
303+  8561
304+  8561
305+  8561              handle_behaviour_ghost_walker:
306+  8561 DD 7E 02         ld a,(ix+2)
307+  8564 3D               dec a
308+  8565 DD 77 02         ld (ix+2),a
309+  8568
310+  8568 47               ld b,a
311+  8569 3A F7 8B         ld a,(cam_x)
312+  856C B8               cp b
313+  856D D8               ret c
314+  856E
315+  856E
316+  856E                  ;kill ghost
317+  856E DD 36 01 64      ld (ix+1),OBJECT_DEAD
318+  8572 CD 93 84         call obj_set_not_inview
319+  8575
320+  8575 C9               ret
321+  8576
322+  8576
323+  8576
324+  8576
325+  8576
326+  8576              object_check_collision_player
327+  8576 DD 7E 00         ld a,(ix)
328+  8579 FE 01            cp TRUE
329+  857B C0               ret nz
330+  857C
331+  857C DD 7E 01         ld a,(ix+1)
332+  857F FE 01            cp OBJECT_GHOST
333+  8581 CA AB 85         jp z,checkcollision_player_ghost
334+  8584 FE 02            cp OBJECT_GHOST_WALKER
335+  8586 CA C6 85         jp z,checkcollision_player_ghostwalker
336+  8589              obj_check_coll_y:
337+  8589                  ;player above object:
338+  8589 DD 7E 06         ld a,(ix+6)
339+  858C 47               ld b,a
340+  858D 3A 96 80         ld a,(py)
341+  8590 C6 20            add a,PLAYER_HEIGHT
342+  8592 B8               cp b
343+  8593 38 15            jr c,obj_nocollision
344+  8595
345+  8595                  ;player below object:
346+  8595 3A 96 80         ld a,(py)
347+  8598 47               ld b,a
348+  8599 DD 7E 06         ld a,(ix+6)
349+  859C C6 10            add a,OBJECT_HEIGHT
350+  859E B8               cp b
351+  859F 38 09            jr c,obj_nocollision
352+  85A1
353+  85A1 2A 94 80         ld hl,(px)
354+  85A4 DD 7E 05         ld a,(ix+5)
355+  85A7 BC               cp h
356+  85A8 20 00            jr nz,obj_nocollision
357+  85AA
358+  85AA                  ;collided...
359+  85AA
360+  85AA              obj_nocollision:
361+  85AA C9               ret
362+  85AB
363+  85AB              checkcollision_player_ghost:
364+  85AB                  ;x axis collision check:
365+  85AB DD 66 04         ld h,(ix+4)
366+  85AE DD 6E 05         ld l,(ix+5)
367+  85B1 DD 56 0E         ld d,(ix+14)
368+  85B4 DD 5E 0F         ld e,(ix+15)
369+  85B7 19               add hl,de
370+  85B8 ED 5B 94 80      ld de,(px)
371+  85BC B7               or a
372+  85BD ED 52            sbc hl,de
373+  85BF 7D               ld a,l
374+  85C0 FE 1C            cp 28
375+  85C2 DA 89 85         jp c,obj_check_coll_y
376+  85C5 C9               ret
377+  85C6
378+  85C6              checkcollision_player_ghostwalker:
379+  85C6                  ;x axis collision check:
380+  85C6 DD 66 04         ld h,(ix+4)
381+  85C9 DD 6E 05         ld l,(ix+5)
382+  85CC DD 56 0E         ld d,(ix+14)
383+  85CF DD 5E 0F         ld e,(ix+15)
384+  85D2 B7               or a
385+  85D3 ED 52            sbc hl,de
386+  85D5 ED 5B 94 80      ld de,(px)
387+  85D9 B7               or a
388+  85DA ED 52            sbc hl,de
389+  85DC 7D               ld a,l
390+  85DD FE 1C            cp 28
391+  85DF DA 89 85         jp c,obj_check_coll_y
392+  85E2 C9               ret
# file closed: src/objects.asm
 45   85E3              	include 'game.asm'
# file opened: src/game.asm
  1+  85E3
  2+  85E3              game_init:
  3+  85E3 CD FA 8B         call layer2_init
  4+  85E6 ED 91 56 0E      nextreg $56,14
  5+  85EA 06 24            ld b,SPRITE_COUNT
  6+  85EC 21 00 C0         ld hl,$c000
  7+  85EF CD 55 87         call sprites_init
  8+  85F2
  9+  85F2 CD 1B 8C         call tiles_init
 10+  85F5 CD A3 80         call player_init
 11+  85F8
 12+  85F8 C9               ret
 13+  85F9
 14+  85F9
 15+  85F9              game_update:
 16+  85F9 06 0B            ld b,11
 17+  85FB CD 38 80         call WaitRasterLine
 18+  85FE
 19+  85FE CD 50 8C         call layer2_update
 20+  8601 CD 25 86         call check_keys
 21+  8604 CD C2 81         call player_update
 22+  8607 CD A7 80         call draw_debug_sprite
 23+  860A CD 28 84         call objects_update
 24+  860D
 25+  860D C9               ret
 26+  860E
 27+  860E              game_draw:
 28+  860E CD 21 83         call player_draw
 29+  8611 CD 3D 84         call objects_draw
 30+  8614 C9               ret
 31+  8615
 32+  8615
# file closed: src/game.asm
 46   8615              	include 'retrotools\keycacher.asm'
# file opened: src/retrotools/keycacher.asm
  1+  8615              ;Usage:
  2+  8615              ;first call check_keys
  3+  8615              ;compare states of cached values (eg. keypressed_W) before doing movement/actions etc.
  4+  8615              ;after all actions, call reset_keys
  5+  8615
  6+  8615
  7+  8615              ; 32766 B, N, M, Symbol Shift, Space
  8+  8615              ; 49150 H, J, K, L, Enter
  9+  8615              ; 57342 Y, U, I, O, P
 10+  8615              ; 61438 6, 7, 8, 9, 0
 11+  8615              ; 63486 5, 4, 3, 2, 1
 12+  8615              ; 64510 T, R, E, W, Q
 13+  8615              ; 65022 G, F, D, S, A
 14+  8615              ; 65278 V, C, X, Z, Caps Shift
 15+  8615
 16+  8615
 17+  8615 00           keypressed_W db FALSE
 18+  8616 00           keypressed_W_Held db FALSE
 19+  8617 00           keypressed_A db FALSE
 20+  8618 00           keypressed_A_Held db FALSE
 21+  8619 00           keypressed_S db FALSE
 22+  861A 00           keypressed_S_Held db FALSE
 23+  861B 00           keypressed_D db FALSE
 24+  861C
 25+  861C 00           keypressed_F db FALSE
 26+  861D 00           keypressed_F_Held db FALSE
 27+  861E 00           keypressed_I db FALSE
 28+  861F 00           keypressed_Q db FALSE
 29+  8620 00           keypressed_Q_Held db FALSE
 30+  8621 00           keypressed_O db FALSE
 31+  8622 00           keypressed_P db FALSE
 32+  8623 00           keypressed_Space db FALSE
 33+  8624 00           keypressed_Space_Held db FALSE
 34+  8625
 35+  8625              check_keys:
 36+  8625 3A 15 86         ld a,(keypressed_W)
 37+  8628 FE 01            cp TRUE
 38+  862A CC DD 86         call z,set_W_Held
 39+  862D C4 E3 86         call nz, reset_W_Held
 40+  8630
 41+  8630 3A 19 86         ld a,(keypressed_S)
 42+  8633 FE 01            cp TRUE
 43+  8635 CC FF 86         call z,set_S_Held
 44+  8638 C4 05 87         call nz, reset_S_Held
 45+  863B
 46+  863B 3A 1C 86         ld a,(keypressed_F)
 47+  863E FE 01            cp TRUE
 48+  8640 CC 16 87         call z, set_F_Held
 49+  8643 C4 1C 87         call nz, reset_F_Held
 50+  8646
 51+  8646 3A 17 86         ld a,(keypressed_A)
 52+  8649 FE 01            cp TRUE
 53+  864B CC EE 86         call z,set_A_Held
 54+  864E C4 F4 86         call nz, reset_A_Held
 55+  8651
 56+  8651 3A 1F 86         ld a,(keypressed_Q)
 57+  8654 FE 01            cp TRUE
 58+  8656 CC 2D 87         call z,set_Q_Held
 59+  8659 C4 33 87         call nz, reset_Q_Held
 60+  865C
 61+  865C 3A 23 86         ld a,(keypressed_Space)
 62+  865F FE 01            cp TRUE
 63+  8661 CC 4A 87         call z,set_Space_Held
 64+  8664 C4 50 87         call nz, reset_Space_Held
 65+  8667
 66+  8667
 67+  8667
 68+  8667 AF               xor a
 69+  8668 32 15 86         ld (keypressed_W),a
 70+  866B 32 17 86         ld (keypressed_A),a
 71+  866E 32 19 86         ld (keypressed_S),a
 72+  8671 32 1B 86         ld (keypressed_D),a
 73+  8674 32 1C 86         ld (keypressed_F),a
 74+  8677 32 1E 86         ld (keypressed_I),a
 75+  867A 32 1F 86         ld (keypressed_Q),a
 76+  867D 32 21 86         ld (keypressed_O),a
 77+  8680 32 22 86         ld (keypressed_P),a
 78+  8683 32 23 86         ld (keypressed_Space),a
 79+  8686
 80+  8686
 81+  8686 01 FE FD         ld bc,0xFDFE ;ASDFG
 82+  8689 ED 78            in a,(c)
 83+  868B 1F               rra
 84+  868C F5               push af
 85+  868D D4 E8 86         call nc, set_A
 86+  8690 F1               pop af
 87+  8691 1F               rra
 88+  8692 F5               push af
 89+  8693 D4 F9 86         call nc, set_S
 90+  8696 F1               pop af
 91+  8697 1F               rra
 92+  8698 F5               push af
 93+  8699 D4 0A 87         call nc, set_D
 94+  869C F1               pop af
 95+  869D 1F               rra
 96+  869E F5               push af
 97+  869F D4 10 87         call nc, set_F
 98+  86A2 F1               pop af
 99+  86A3
100+  86A3 01 FE FB         ld bc,0xFBFE ;QWERT
101+  86A6 ED 78            in a,(c)
102+  86A8 1F               rra ;Q
103+  86A9 F5               push af
104+  86AA D4 27 87         call nc, set_Q
105+  86AD F1               pop af
106+  86AE 1F               rra ;W
107+  86AF F5               push af
108+  86B0 D4 D7 86         call nc, set_W
109+  86B3 F1               pop af
110+  86B4
111+  86B4 01 FE DF         ld bc,0xDFFE ;POIUY
112+  86B7 ED 78            in a,(c)
113+  86B9 1F               rra ;P
114+  86BA F5               push af
115+  86BB D4 3E 87         call nc, set_P
116+  86BE F1               pop af
117+  86BF 1F               rra ;O
118+  86C0 F5               push af
119+  86C1 D4 38 87         call nc, set_O
120+  86C4 F1               pop af
121+  86C5 1F               rra ;I
122+  86C6 F5               push af
123+  86C7 D4 21 87         call nc, set_I
124+  86CA F1               pop af
125+  86CB
126+  86CB 01 FE 7F         ld bc,32766
127+  86CE ED 78            in a,(c)
128+  86D0 1F               rra
129+  86D1 F5               push af
130+  86D2 D4 44 87         call nc, set_Space
131+  86D5 F1               pop af
132+  86D6
133+  86D6
134+  86D6 C9               ret
135+  86D7
136+  86D7              set_W:
137+  86D7 3E 01            ld a,TRUE
138+  86D9 32 15 86         ld (keypressed_W),a
139+  86DC C9               ret
140+  86DD
141+  86DD              set_W_Held:
142+  86DD 3E 01            ld a,TRUE
143+  86DF 32 16 86         ld (keypressed_W_Held),a
144+  86E2 C9               ret
145+  86E3              reset_W_Held:
146+  86E3 AF               xor a
147+  86E4 32 16 86         ld (keypressed_W_Held),a
148+  86E7 C9               ret
149+  86E8
150+  86E8              set_A:
151+  86E8 3E 01            ld a,TRUE
152+  86EA 32 17 86         ld (keypressed_A),a
153+  86ED C9               ret
154+  86EE
155+  86EE              set_A_Held:
156+  86EE 3E 01            ld a,TRUE
157+  86F0 32 18 86         ld (keypressed_A_Held),a
158+  86F3 C9               ret
159+  86F4
160+  86F4              reset_A_Held:
161+  86F4 AF               xor a
162+  86F5 32 18 86         ld (keypressed_A_Held),a
163+  86F8 C9               ret
164+  86F9
165+  86F9              set_S:
166+  86F9 3E 01            ld a,TRUE
167+  86FB 32 19 86         ld (keypressed_S),a
168+  86FE C9               ret
169+  86FF              set_S_Held:
170+  86FF 3E 01            ld a,TRUE
171+  8701 32 1A 86         ld (keypressed_S_Held),a
172+  8704 C9               ret
173+  8705              reset_S_Held:
174+  8705 AF               xor a
175+  8706 32 1A 86         ld (keypressed_S_Held),a
176+  8709 C9               ret
177+  870A
178+  870A              set_D:
179+  870A 3E 01            ld a,TRUE
180+  870C 32 1B 86         ld (keypressed_D),a
181+  870F C9               ret
182+  8710
183+  8710              set_F:
184+  8710 3E 01            ld a,TRUE
185+  8712 32 1C 86         ld (keypressed_F),a
186+  8715 C9               ret
187+  8716
188+  8716
189+  8716              set_F_Held:
190+  8716 3E 01            ld a,TRUE
191+  8718 32 1D 86         ld (keypressed_F_Held),a
192+  871B C9               ret
193+  871C
194+  871C              reset_F_Held:
195+  871C AF               xor a
196+  871D 32 1D 86         ld (keypressed_F_Held),a
197+  8720 C9               ret
198+  8721
199+  8721
200+  8721
201+  8721              set_I:
202+  8721 3E 01            ld a,TRUE
203+  8723 32 1E 86         ld (keypressed_I),a
204+  8726 C9               ret
205+  8727
206+  8727
207+  8727              set_Q:
208+  8727 3E 01            ld a,TRUE
209+  8729 32 1F 86         ld (keypressed_Q),a
210+  872C C9               ret
211+  872D
212+  872D              set_Q_Held:
213+  872D 3E 01            ld a,TRUE
214+  872F 32 20 86         ld (keypressed_Q_Held),a
215+  8732 C9               ret
216+  8733
217+  8733              reset_Q_Held:
218+  8733 AF               xor a
219+  8734 32 20 86         ld (keypressed_Q_Held),a
220+  8737 C9               ret
221+  8738
222+  8738              set_O:
223+  8738 3E 01            ld a,TRUE
224+  873A 32 21 86         ld (keypressed_O),a
225+  873D C9               ret
226+  873E
227+  873E              set_P:
228+  873E 3E 01            ld a,TRUE
229+  8740 32 22 86         ld (keypressed_P),a
230+  8743 C9               ret
231+  8744
232+  8744              set_Space:
233+  8744 3E 01            ld a,TRUE
234+  8746 32 23 86         ld (keypressed_Space),a
235+  8749 C9               ret
236+  874A              set_Space_Held:
237+  874A 3E 01            ld a,TRUE
238+  874C 32 24 86         ld (keypressed_Space_Held),a
239+  874F C9               ret
240+  8750
241+  8750              reset_Space_Held:
242+  8750 AF               xor a
243+  8751 32 24 86         ld (keypressed_Space_Held),a
244+  8754 C9               ret
245+  8755
# file closed: src/retrotools/keycacher.asm
 47   8755              	include 'retrotools\spritetools.asm'
# file opened: src/retrotools/spritetools.asm
  1+  8755              VISIBILITY equ %10000000
  2+  8755              EXTENDED equ %01000000
  3+  8755              MIRROR_X equ %00001000
  4+  8755              MIRROR_Y equ %00000100
  5+  8755
  6+  8755
  7+  8755
  8+  8755              ;;;;;;;;;;;;;;;;;;;;;;;;;;;;;;;;;;;;
  9+  8755              ;; Upload spritesheet to 16K FPGA Internal Memory
 10+  8755              ;; Inputs: B=Sprite Count HL=Sprite data Ptr
 11+  8755              ;; Outputs: none
 12+  8755              ;; Destroys: A,BC,HL
 13+  8755              ;;;;;;;;;;;;;;;;;;;;;;;;;;;;;;;;;;;;
 14+  8755              sprites_init:
 15+  8755 C5           	push bc
 16+  8756 3E 00        	ld a,0
 17+  8758 01 3B 30     	ld bc,$303b
 18+  875B ED 79        	out (c),a
 19+  875D C1           	pop bc
 20+  875E              is_loop:
 21+  875E C5           	push bc
 22+  875F 01 5B 00     	ld bc,$005b
 23+  8762 ED B3        	otir
 24+  8764 C1           	pop bc
 25+  8765 10 F7        	djnz is_loop
 26+  8767 C9           	ret
# file closed: src/retrotools/spritetools.asm
 48   8768              	include 'levels\levels.asm'
# file opened: src/levels/levels.asm
  1+  8768              ; another way to check solids (if not in order)
  2+  8768              meta_solids:
  3+  8768 11 13 31         db 17,19,49
  4+  876B
  5+  876B              SOLIDS_LENGTH equ 3
  6+  876B
  7+  876B              ;INPUTS:
  8+  876B              ;A=value to test against 'solids' array
  9+  876B              check_solid:
 10+  876B 21 68 87         ld hl,meta_solids
 11+  876E 01 03 00         ld bc,SOLIDS_LENGTH
 12+  8771 ED B1            cpir
 13+  8773 C9               ret
 14+  8774
 15+  8774
 16+  8774              ;Platform::
 17+  8774              ;01 03 03 01*
 18+  8774              ;17 19 19 17*
 19+  8774              ;02 04 04 02*
 20+  8774              ;18 20 20 18*
 21+  8774
 22+  8774
 23+  8774              LEVEL_Y_START_ADDRESS equ $4500 ;half way down
 24+  8774              LEVEL_WIDTH_META equ 80
 25+  8774              LEVEL_HEIGHT_META equ 8
 26+  8774
 27+  8774
 28+  8774              TILE_ATTR_NOMIRROR equ %00000000
 29+  8774              TILE_ATTR_MIRROR equ %00001000
 30+  8774
 31+  8774              metalevel:
 32+  8774 00 00 00 00      db 00,00,00,00,00,00,00,00,00,00,00,00,00,00,00,00,00,00,00,00,00,00,00,00,00,00,00,00,00,00,00,00,00,00,00,00,00,00,00,00,00,00,00,00,00,00,00,00,00,00,00,00,00,00,00,00,00,00,00,00,00,00,00,00,00,00,00,00,00,00,00,00,00,00,00,00,00,00,00,00
 32+  8778 00 00 00 00
 32+  877C 00 00 00 00
 32+  8780 00 00 00 00
 32+  8784 00 00 00 00
 32+  8788 00 00 00 00
 32+  878C 00 00 00 00
 32+  8790 00 00 00 00
 32+  8794 00 00 00 00
 32+  8798 00 00 00 00
 32+  879C 00 00 00 00
 32+  87A0 00 00 00 00
 32+  87A4 00 00 00 00
 32+  87A8 00 00 00 00
 32+  87AC 00 00 00 00
 32+  87B0 00 00 00 00
 32+  87B4 00 00 00 00
 32+  87B8 00 00 00 00
 32+  87BC 00 00 00 00
 32+  87C0 00 00 00 00
 33+  87C4 00 00 00 00      db 00,00,00,00,00,00,00,00,00,00,00,00,00,00,00,00,00,00,00,00,00,00,00,00,00,00,00,00,00,00,00,00,00,00,00,00,00,00,00,00,00,00,00,00,00,00,00,00,00,00,00,00,00,01,03,03,03,33,00,00,00,00,00,00,00,00,00,00,00,00,00,00,00,00,00,00,00,00,00,00
 33+  87C8 00 00 00 00
 33+  87CC 00 00 00 00
 33+  87D0 00 00 00 00
 33+  87D4 00 00 00 00
 33+  87D8 00 00 00 00
 33+  87DC 00 00 00 00
 33+  87E0 00 00 00 00
 33+  87E4 00 00 00 00
 33+  87E8 00 00 00 00
 33+  87EC 00 00 00 00
 33+  87F0 00 00 00 00
 33+  87F4 00 00 00 00
 33+  87F8 00 01 03 03
 33+  87FC 03 21 00 00
 33+  8800 00 00 00 00
 33+  8804 00 00 00 00
 33+  8808 00 00 00 00
 33+  880C 00 00 00 00
 33+  8810 00 00 00 00
 34+  8814 00 00 00 00      db 00,00,00,00,00,00,00,00,00,00,00,00,00,00,00,00,00,00,00,00,00,00,00,00,00,00,00,00,00,00,00,00,00,00,00,00,00,00,00,00,00,00,00,00,00,00,00,00,00,00,00,00,00,17,19,19,19,49,00,00,00,00,00,00,00,00,00,00,00,00,00,00,00,00,00,00,00,00,00,00
 34+  8818 00 00 00 00
 34+  881C 00 00 00 00
 34+  8820 00 00 00 00
 34+  8824 00 00 00 00
 34+  8828 00 00 00 00
 34+  882C 00 00 00 00
 34+  8830 00 00 00 00
 34+  8834 00 00 00 00
 34+  8838 00 00 00 00
 34+  883C 00 00 00 00
 34+  8840 00 00 00 00
 34+  8844 00 00 00 00
 34+  8848 00 11 13 13
 34+  884C 13 31 00 00
 34+  8850 00 00 00 00
 34+  8854 00 00 00 00
 34+  8858 00 00 00 00
 34+  885C 00 00 00 00
 34+  8860 00 00 00 00
 35+  8864 00 00 00 00      db 00,00,00,00,00,00,00,00,00,00,00,00,00,00,00,00,00,00,00,00,00,00,00,00,00,00,00,00,00,00,00,00,00,00,00,00,00,00,00,00,00,00,00,01,33,00,00,01,03,03,03,33,00,02,20,20,20,34,00,00,00,00,00,00,00,00,00,00,00,00,00,00,00,00,00,00,00,00,00,00
 35+  8868 00 00 00 00
 35+  886C 00 00 00 00
 35+  8870 00 00 00 00
 35+  8874 00 00 00 00
 35+  8878 00 00 00 00
 35+  887C 00 00 00 00
 35+  8880 00 00 00 00
 35+  8884 00 00 00 00
 35+  8888 00 00 00 00
 35+  888C 00 00 00 01
 35+  8890 21 00 00 01
 35+  8894 03 03 03 21
 35+  8898 00 02 14 14
 35+  889C 14 22 00 00
 35+  88A0 00 00 00 00
 35+  88A4 00 00 00 00
 35+  88A8 00 00 00 00
 35+  88AC 00 00 00 00
 35+  88B0 00 00 00 00
 36+  88B4 00 00 00 00      db 00,00,00,00,00,00,00,00,00,00,00,00,00,00,00,00,00,00,00,00,01,03,03,03,03,03,03,03,03,03,03,03,33,00,00,00,00,00,00,00,00,00,00,17,19,00,00,17,19,19,19,49,00,18,19,19,19,50,00,00,00,00,00,00,00,00,00,00,00,00,00,00,00,00,00,00,00,00,00,00
 36+  88B8 00 00 00 00
 36+  88BC 00 00 00 00
 36+  88C0 00 00 00 00
 36+  88C4 00 00 00 00
 36+  88C8 01 03 03 03
 36+  88CC 03 03 03 03
 36+  88D0 03 03 03 03
 36+  88D4 21 00 00 00
 36+  88D8 00 00 00 00
 36+  88DC 00 00 00 11
 36+  88E0 13 00 00 11
 36+  88E4 13 13 13 31
 36+  88E8 00 12 13 13
 36+  88EC 13 32 00 00
 36+  88F0 00 00 00 00
 36+  88F4 00 00 00 00
 36+  88F8 00 00 00 00
 36+  88FC 00 00 00 00
 36+  8900 00 00 00 00
 37+  8904 00 00 00 00      db 00,00,00,00,00,00,00,00,00,00,00,00,00,00,00,00,00,00,00,00,17,19,19,19,19,19,19,19,19,19,19,19,49,00,00,00,00,00,01,03,03,03,03,02,49,00,00,02,20,20,20,34,00,02,20,20,20,34,00,00,00,00,00,00,00,00,00,00,00,00,00,00,00,00,00,00,00,00,00,00
 37+  8908 00 00 00 00
 37+  890C 00 00 00 00
 37+  8910 00 00 00 00
 37+  8914 00 00 00 00
 37+  8918 11 13 13 13
 37+  891C 13 13 13 13
 37+  8920 13 13 13 13
 37+  8924 31 00 00 00
 37+  8928 00 00 01 03
 37+  892C 03 03 03 02
 37+  8930 31 00 00 02
 37+  8934 14 14 14 22
 37+  8938 00 02 14 14
 37+  893C 14 22 00 00
 37+  8940 00 00 00 00
 37+  8944 00 00 00 00
 37+  8948 00 00 00 00
 37+  894C 00 00 00 00
 37+  8950 00 00 00 00
 38+  8954 00 01 03 03      db 00,01,03,03,03,03,03,33,00,00,01,03,03,03,03,03,03,03,03,33,02,20,20,20,20,20,20,20,20,20,20,20,34,03,03,03,33,00,17,19,19,19,19,19,34,00,00,18,19,19,19,50,00,18,19,19,19,50,00,00,00,00,00,00,00,00,00,00,00,00,00,00,00,00,00,00,00,00,00,00
 38+  8958 03 03 03 21
 38+  895C 00 00 01 03
 38+  8960 03 03 03 03
 38+  8964 03 03 03 21
 38+  8968 02 14 14 14
 38+  896C 14 14 14 14
 38+  8970 14 14 14 14
 38+  8974 22 03 03 03
 38+  8978 21 00 11 13
 38+  897C 13 13 13 13
 38+  8980 22 00 00 12
 38+  8984 13 13 13 32
 38+  8988 00 12 13 13
 38+  898C 13 32 00 00
 38+  8990 00 00 00 00
 38+  8994 00 00 00 00
 38+  8998 00 00 00 00
 38+  899C 00 00 00 00
 38+  89A0 00 00 00 00
 39+  89A4 00 11 13 13      db 00,17,19,19,19,19,19,49,00,00,17,19,19,19,19,19,19,19,19,49,18,19,19,19,19,19,19,19,19,19,19,19,50,19,19,19,49,00,02,20,20,20,20,20,50,00,00,02,20,20,20,34,00,02,20,20,20,34,00,00,00,00,00,00,00,00,00,00,00,00,00,00,00,00,00,00,00,00,00,00
 39+  89A8 13 13 13 31
 39+  89AC 00 00 11 13
 39+  89B0 13 13 13 13
 39+  89B4 13 13 13 31
 39+  89B8 12 13 13 13
 39+  89BC 13 13 13 13
 39+  89C0 13 13 13 13
 39+  89C4 32 13 13 13
 39+  89C8 31 00 02 14
 39+  89CC 14 14 14 14
 39+  89D0 32 00 00 02
 39+  89D4 14 14 14 22
 39+  89D8 00 02 14 14
 39+  89DC 14 22 00 00
 39+  89E0 00 00 00 00
 39+  89E4 00 00 00 00
 39+  89E8 00 00 00 00
 39+  89EC 00 00 00 00
 39+  89F0 00 00 00 00
 40+  89F4
 41+  89F4
 42+  89F4              metatiles:
 43+  89F4 00 00 00 00      db 0,TILE_ATTR_NOMIRROR,0,TILE_ATTR_NOMIRROR,0,TILE_ATTR_NOMIRROR,0,TILE_ATTR_NOMIRROR   ;supertile 0
 43+  89F8 00 00 00 00
 44+  89FC 02 00 03 00      db 2,TILE_ATTR_NOMIRROR,3,TILE_ATTR_NOMIRROR,34,TILE_ATTR_NOMIRROR,35,TILE_ATTR_NOMIRROR ;1
 44+  8A00 22 00 23 00
 45+  8A04 04 00 05 00      db 4,TILE_ATTR_NOMIRROR,5,TILE_ATTR_NOMIRROR,36,TILE_ATTR_NOMIRROR,37,TILE_ATTR_NOMIRROR ;2
 45+  8A08 24 00 25 00
 46+  8A0C 06 00 07 00      db 6,TILE_ATTR_NOMIRROR,7,TILE_ATTR_NOMIRROR,38,TILE_ATTR_NOMIRROR,39,TILE_ATTR_NOMIRROR ;3
 46+  8A10 26 00 27 00
 47+  8A14 08 00 09 00      db 8,TILE_ATTR_NOMIRROR,9,TILE_ATTR_NOMIRROR,40,TILE_ATTR_NOMIRROR,41,TILE_ATTR_NOMIRROR ;4
 47+  8A18 28 00 29 00
 48+  8A1C 00 00 00 00      db 0,TILE_ATTR_NOMIRROR,0,TILE_ATTR_NOMIRROR,0,TILE_ATTR_NOMIRROR,0,TILE_ATTR_NOMIRROR
 48+  8A20 00 00 00 00
 49+  8A24 00 00 00 00      db 0,TILE_ATTR_NOMIRROR,0,TILE_ATTR_NOMIRROR,0,TILE_ATTR_NOMIRROR,0,TILE_ATTR_NOMIRROR
 49+  8A28 00 00 00 00
 50+  8A2C 00 00 00 00      db 0,TILE_ATTR_NOMIRROR,0,TILE_ATTR_NOMIRROR,0,TILE_ATTR_NOMIRROR,0,TILE_ATTR_NOMIRROR
 50+  8A30 00 00 00 00
 51+  8A34 00 00 00 00      db 0,TILE_ATTR_NOMIRROR,0,TILE_ATTR_NOMIRROR,0,TILE_ATTR_NOMIRROR,0,TILE_ATTR_NOMIRROR
 51+  8A38 00 00 00 00
 52+  8A3C 00 00 00 00      db 0,TILE_ATTR_NOMIRROR,0,TILE_ATTR_NOMIRROR,0,TILE_ATTR_NOMIRROR,0,TILE_ATTR_NOMIRROR
 52+  8A40 00 00 00 00
 53+  8A44 00 00 00 00      db 0,TILE_ATTR_NOMIRROR,0,TILE_ATTR_NOMIRROR,0,TILE_ATTR_NOMIRROR,0,TILE_ATTR_NOMIRROR
 53+  8A48 00 00 00 00
 54+  8A4C 00 00 00 00      db 0,TILE_ATTR_NOMIRROR,0,TILE_ATTR_NOMIRROR,0,TILE_ATTR_NOMIRROR,0,TILE_ATTR_NOMIRROR
 54+  8A50 00 00 00 00
 55+  8A54 00 00 00 00      db 0,TILE_ATTR_NOMIRROR,0,TILE_ATTR_NOMIRROR,0,TILE_ATTR_NOMIRROR,0,TILE_ATTR_NOMIRROR
 55+  8A58 00 00 00 00
 56+  8A5C 00 00 00 00      db 0,TILE_ATTR_NOMIRROR,0,TILE_ATTR_NOMIRROR,0,TILE_ATTR_NOMIRROR,0,TILE_ATTR_NOMIRROR
 56+  8A60 00 00 00 00
 57+  8A64 00 00 00 00      db 0,TILE_ATTR_NOMIRROR,0,TILE_ATTR_NOMIRROR,0,TILE_ATTR_NOMIRROR,0,TILE_ATTR_NOMIRROR
 57+  8A68 00 00 00 00
 58+  8A6C 00 00 00 00      db 0,TILE_ATTR_NOMIRROR,0,TILE_ATTR_NOMIRROR,0,TILE_ATTR_NOMIRROR,0,TILE_ATTR_NOMIRROR
 58+  8A70 00 00 00 00
 59+  8A74 00 00 00 00      db 0,TILE_ATTR_NOMIRROR,0,TILE_ATTR_NOMIRROR,0,TILE_ATTR_NOMIRROR,0,TILE_ATTR_NOMIRROR
 59+  8A78 00 00 00 00
 60+  8A7C 42 00 43 00      db 66,TILE_ATTR_NOMIRROR,67,TILE_ATTR_NOMIRROR,98,TILE_ATTR_NOMIRROR,99,TILE_ATTR_NOMIRROR ;17
 60+  8A80 62 00 63 00
 61+  8A84 44 00 45 00      db 68,TILE_ATTR_NOMIRROR,69,TILE_ATTR_NOMIRROR,100,TILE_ATTR_NOMIRROR,101,TILE_ATTR_NOMIRROR ;18
 61+  8A88 64 00 65 00
 62+  8A8C 46 00 47 00      db 70,TILE_ATTR_NOMIRROR,71,TILE_ATTR_NOMIRROR,102,TILE_ATTR_NOMIRROR,103,TILE_ATTR_NOMIRROR ;19
 62+  8A90 66 00 67 00
 63+  8A94 48 00 49 00      db 72,TILE_ATTR_NOMIRROR,73,TILE_ATTR_NOMIRROR,104,TILE_ATTR_NOMIRROR,105,TILE_ATTR_NOMIRROR ;20
 63+  8A98 68 00 69 00
 64+  8A9C 00 00 00 00      db 0,TILE_ATTR_NOMIRROR,0,TILE_ATTR_NOMIRROR,0,TILE_ATTR_NOMIRROR,0,TILE_ATTR_NOMIRROR
 64+  8AA0 00 00 00 00
 65+  8AA4 00 00 00 00      db 0,TILE_ATTR_NOMIRROR,0,TILE_ATTR_NOMIRROR,0,TILE_ATTR_NOMIRROR,0,TILE_ATTR_NOMIRROR
 65+  8AA8 00 00 00 00
 66+  8AAC 00 00 00 00      db 0,TILE_ATTR_NOMIRROR,0,TILE_ATTR_NOMIRROR,0,TILE_ATTR_NOMIRROR,0,TILE_ATTR_NOMIRROR
 66+  8AB0 00 00 00 00
 67+  8AB4 00 00 00 00      db 0,TILE_ATTR_NOMIRROR,0,TILE_ATTR_NOMIRROR,0,TILE_ATTR_NOMIRROR,0,TILE_ATTR_NOMIRROR
 67+  8AB8 00 00 00 00
 68+  8ABC 00 00 00 00      db 0,TILE_ATTR_NOMIRROR,0,TILE_ATTR_NOMIRROR,0,TILE_ATTR_NOMIRROR,0,TILE_ATTR_NOMIRROR
 68+  8AC0 00 00 00 00
 69+  8AC4 00 00 00 00      db 0,TILE_ATTR_NOMIRROR,0,TILE_ATTR_NOMIRROR,0,TILE_ATTR_NOMIRROR,0,TILE_ATTR_NOMIRROR
 69+  8AC8 00 00 00 00
 70+  8ACC 00 00 00 00      db 0,TILE_ATTR_NOMIRROR,0,TILE_ATTR_NOMIRROR,0,TILE_ATTR_NOMIRROR,0,TILE_ATTR_NOMIRROR
 70+  8AD0 00 00 00 00
 71+  8AD4 00 00 00 00      db 0,TILE_ATTR_NOMIRROR,0,TILE_ATTR_NOMIRROR,0,TILE_ATTR_NOMIRROR,0,TILE_ATTR_NOMIRROR
 71+  8AD8 00 00 00 00
 72+  8ADC 00 00 00 00      db 0,TILE_ATTR_NOMIRROR,0,TILE_ATTR_NOMIRROR,0,TILE_ATTR_NOMIRROR,0,TILE_ATTR_NOMIRROR
 72+  8AE0 00 00 00 00
 73+  8AE4 00 00 00 00      db 0,TILE_ATTR_NOMIRROR,0,TILE_ATTR_NOMIRROR,0,TILE_ATTR_NOMIRROR,0,TILE_ATTR_NOMIRROR ;30
 73+  8AE8 00 00 00 00
 74+  8AEC 00 00 00 00      db 0,TILE_ATTR_NOMIRROR,0,TILE_ATTR_NOMIRROR,0,TILE_ATTR_NOMIRROR,0,TILE_ATTR_NOMIRROR ;31 - end of definitions
 74+  8AF0 00 00 00 00
 75+  8AF4 00 08 00 08      db 0,TILE_ATTR_MIRROR,0,TILE_ATTR_MIRROR,0,TILE_ATTR_MIRROR,0,TILE_ATTR_MIRROR ;32 0*
 75+  8AF8 00 08 00 08
 76+  8AFC 03 08 02 08      db 3,TILE_ATTR_MIRROR,2,TILE_ATTR_MIRROR,35,TILE_ATTR_MIRROR,34,TILE_ATTR_MIRROR ;33 1*
 76+  8B00 23 08 22 08
 77+  8B04 05 08 04 08      db 5,TILE_ATTR_MIRROR,4,TILE_ATTR_MIRROR,37,TILE_ATTR_MIRROR,36,TILE_ATTR_MIRROR ;34 2*
 77+  8B08 25 08 24 08
 78+  8B0C 07 08 06 08      db 7,TILE_ATTR_MIRROR,6,TILE_ATTR_MIRROR,39,TILE_ATTR_MIRROR,38,TILE_ATTR_MIRROR ;35 3*
 78+  8B10 27 08 26 08
 79+  8B14 09 08 08 08      db 9,TILE_ATTR_MIRROR,8,TILE_ATTR_MIRROR,41,TILE_ATTR_MIRROR,40,TILE_ATTR_MIRROR ;36 4*
 79+  8B18 29 08 28 08
 80+  8B1C 00 08 00 08      db 0,TILE_ATTR_MIRROR,0,TILE_ATTR_MIRROR,0,TILE_ATTR_MIRROR,0,TILE_ATTR_MIRROR
 80+  8B20 00 08 00 08
 81+  8B24 00 08 00 08      db 0,TILE_ATTR_MIRROR,0,TILE_ATTR_MIRROR,0,TILE_ATTR_MIRROR,0,TILE_ATTR_MIRROR
 81+  8B28 00 08 00 08
 82+  8B2C 00 08 00 08      db 0,TILE_ATTR_MIRROR,0,TILE_ATTR_MIRROR,0,TILE_ATTR_MIRROR,0,TILE_ATTR_MIRROR
 82+  8B30 00 08 00 08
 83+  8B34 00 08 00 08      db 0,TILE_ATTR_MIRROR,0,TILE_ATTR_MIRROR,0,TILE_ATTR_MIRROR,0,TILE_ATTR_MIRROR
 83+  8B38 00 08 00 08
 84+  8B3C 00 08 00 08      db 0,TILE_ATTR_MIRROR,0,TILE_ATTR_MIRROR,0,TILE_ATTR_MIRROR,0,TILE_ATTR_MIRROR
 84+  8B40 00 08 00 08
 85+  8B44 00 08 00 08      db 0,TILE_ATTR_MIRROR,0,TILE_ATTR_MIRROR,0,TILE_ATTR_MIRROR,0,TILE_ATTR_MIRROR
 85+  8B48 00 08 00 08
 86+  8B4C 00 08 00 08      db 0,TILE_ATTR_MIRROR,0,TILE_ATTR_MIRROR,0,TILE_ATTR_MIRROR,0,TILE_ATTR_MIRROR
 86+  8B50 00 08 00 08
 87+  8B54 00 08 00 08      db 0,TILE_ATTR_MIRROR,0,TILE_ATTR_MIRROR,0,TILE_ATTR_MIRROR,0,TILE_ATTR_MIRROR
 87+  8B58 00 08 00 08
 88+  8B5C 00 08 00 08      db 0,TILE_ATTR_MIRROR,0,TILE_ATTR_MIRROR,0,TILE_ATTR_MIRROR,0,TILE_ATTR_MIRROR
 88+  8B60 00 08 00 08
 89+  8B64 00 08 00 08      db 0,TILE_ATTR_MIRROR,0,TILE_ATTR_MIRROR,0,TILE_ATTR_MIRROR,0,TILE_ATTR_MIRROR
 89+  8B68 00 08 00 08
 90+  8B6C 00 08 00 08      db 0,TILE_ATTR_MIRROR,0,TILE_ATTR_MIRROR,0,TILE_ATTR_MIRROR,0,TILE_ATTR_MIRROR
 90+  8B70 00 08 00 08
 91+  8B74 00 08 00 08      db 0,TILE_ATTR_MIRROR,0,TILE_ATTR_MIRROR,0,TILE_ATTR_MIRROR,0,TILE_ATTR_MIRROR
 91+  8B78 00 08 00 08
 92+  8B7C 43 08 42 08      db 67,TILE_ATTR_MIRROR,66,TILE_ATTR_MIRROR,99,TILE_ATTR_MIRROR,98,TILE_ATTR_MIRROR ;49 17*
 92+  8B80 63 08 62 08
 93+  8B84 45 08 44 08      db 69,TILE_ATTR_MIRROR,68,TILE_ATTR_MIRROR,101,TILE_ATTR_MIRROR,100,TILE_ATTR_MIRROR ;50 18*
 93+  8B88 65 08 64 08
 94+  8B8C 47 08 46 08      db 71,TILE_ATTR_MIRROR,70,TILE_ATTR_MIRROR,103,TILE_ATTR_MIRROR,102,TILE_ATTR_MIRROR ;19*
 94+  8B90 67 08 66 08
 95+  8B94 49 08 48 08      db 73,TILE_ATTR_MIRROR,72,TILE_ATTR_MIRROR,105,TILE_ATTR_MIRROR,104,TILE_ATTR_MIRROR ;20*
 95+  8B98 69 08 68 08
 96+  8B9C 00 08 00 08      db 0,TILE_ATTR_MIRROR,0,TILE_ATTR_MIRROR,0,TILE_ATTR_MIRROR,0,TILE_ATTR_MIRROR
 96+  8BA0 00 08 00 08
 97+  8BA4 00 08 00 08      db 0,TILE_ATTR_MIRROR,0,TILE_ATTR_MIRROR,0,TILE_ATTR_MIRROR,0,TILE_ATTR_MIRROR
 97+  8BA8 00 08 00 08
 98+  8BAC 00 08 00 08      db 0,TILE_ATTR_MIRROR,0,TILE_ATTR_MIRROR,0,TILE_ATTR_MIRROR,0,TILE_ATTR_MIRROR
 98+  8BB0 00 08 00 08
 99+  8BB4 00 08 00 08      db 0,TILE_ATTR_MIRROR,0,TILE_ATTR_MIRROR,0,TILE_ATTR_MIRROR,0,TILE_ATTR_MIRROR
 99+  8BB8 00 08 00 08
100+  8BBC 00 08 00 08      db 0,TILE_ATTR_MIRROR,0,TILE_ATTR_MIRROR,0,TILE_ATTR_MIRROR,0,TILE_ATTR_MIRROR
100+  8BC0 00 08 00 08
101+  8BC4 00 08 00 08      db 0,TILE_ATTR_MIRROR,0,TILE_ATTR_MIRROR,0,TILE_ATTR_MIRROR,0,TILE_ATTR_MIRROR
101+  8BC8 00 08 00 08
102+  8BCC 00 08 00 08      db 0,TILE_ATTR_MIRROR,0,TILE_ATTR_MIRROR,0,TILE_ATTR_MIRROR,0,TILE_ATTR_MIRROR
102+  8BD0 00 08 00 08
103+  8BD4 00 08 00 08      db 0,TILE_ATTR_MIRROR,0,TILE_ATTR_MIRROR,0,TILE_ATTR_MIRROR,0,TILE_ATTR_MIRROR
103+  8BD8 00 08 00 08
104+  8BDC 00 08 00 08      db 0,TILE_ATTR_MIRROR,0,TILE_ATTR_MIRROR,0,TILE_ATTR_MIRROR,0,TILE_ATTR_MIRROR
104+  8BE0 00 08 00 08
105+  8BE4 00 08 00 08      db 0,TILE_ATTR_MIRROR,0,TILE_ATTR_MIRROR,0,TILE_ATTR_MIRROR,0,TILE_ATTR_MIRROR ;30*
105+  8BE8 00 08 00 08
106+  8BEC 00 08 00 08      db 0,TILE_ATTR_MIRROR,0,TILE_ATTR_MIRROR,0,TILE_ATTR_MIRROR,0,TILE_ATTR_MIRROR ;31*
106+  8BF0 00 08 00 08
107+  8BF4                  ;supertile 31 is last
# file closed: src/levels/levels.asm
 49   8BF4              	include 'levels\levelmanager.asm'
# file opened: src/levels/levelmanager.asm
  1+  8BF4              TILE_DEFINITIONS_SIZE equ 4096
  2+  8BF4
  3+  8BF4              WORLD_WIDTH equ 160
  4+  8BF4              VIEW_WIDTH equ 40
  5+  8BF4              VIEW_HEIGHT equ 32
  6+  8BF4
  7+  8BF4              VIEW_WIDTH_META equ 20
  8+  8BF4
  9+  8BF4
 10+  8BF4              VIEW_SIZE equ VIEW_WIDTH*VIEW_HEIGHT
 11+  8BF4
 12+  8BF4
 13+  8BF4 00           current_scroll db 0
 14+  8BF5 01           scroll_direction db RIGHT
 15+  8BF6
 16+  8BF6              LEVEL_START equ 0
 17+  8BF6 14           cam_edge_r db LEVEL_START+VIEW_WIDTH_META
 18+  8BF7 00           cam_x db LEVEL_START
 19+  8BF8
 20+  8BF8 00 00        test_layer2_scroll dw 0
 21+  8BFA
 22+  8BFA
 23+  8BFA              layer2_init:
 24+  8BFA                  CLIP_LAYER2 4,155,0,255 ;layer 2 is basically rotated to do 320x256 mode
 24+  8BFA 3E 04       >		ld a,4
 24+  8BFC ED 92 18    >		nextreg $18,a
 24+  8BFF 3E 9B       >		ld a,155
 24+  8C01 ED 92 18    >		nextreg $18,a
 24+  8C04 3E 00       >		ld a,0
 24+  8C06 ED 92 18    >		nextreg $18,a
 24+  8C09 3E FF       >		ld a,255
 24+  8C0B ED 92 18    >		nextreg $18,a
 24+  8C0E             >
 25+  8C0E
 26+  8C0E ED 91 70 10      nextreg $70, %00010000 ;bit5-4=320x256x8bpp mode
 27+  8C12 ED 91 69 80      nextreg $69, %10000000 ;bit7=enable layer2
 28+  8C16 ED 91 12 14  	nextreg $12,20 ;layer2 ram page register
 29+  8C1A C9               ret
 30+  8C1B
 31+  8C1B              tiles_init:
 32+  8C1B                  ; CLIPTILES 4,155,0,255
 33+  8C1B CD 6E 8C         call tiles_set_palette
 34+  8C1E
 35+  8C1E                  ;load the tile defs
 36+  8C1E ED 91 56 10      nextreg $56, 16
 37+  8C22 21 00 C0         ld hl,$c000
 38+  8C25 11 00 60         ld de,$6000
 39+  8C28 01 00 10         ld bc,TILE_DEFINITIONS_SIZE
 40+  8C2B ED B0            ldir
 41+  8C2D
 42+  8C2D ED 91 6B 80      nextreg $6b, %10000000
 43+  8C31 ED 91 6C 00      nextreg $6c, 0
 44+  8C35 ED 91 6E 40      nextreg $6e, $40
 45+  8C39 ED 91 6F 60      nextreg $6f, $60
 46+  8C3D ED 91 68 80      nextreg $68, %10000000
 47+  8C41 ED 91 43 30      nextreg $43, %00110000
 48+  8C45
 49+  8C45                  ; ld a,3
 50+  8C45
 51+  8C45 AF               xor a ;black
 52+  8C46 ED 92 4C         nextreg $4c,a ;tilemap transparency colour
 53+  8C49 ED 92 14         nextreg $14,a; global transparency colour
 54+  8C4C
 55+  8C4C
 56+  8C4C
 57+  8C4C CD 88 8C         call view_init
 58+  8C4F
 59+  8C4F C9               ret
 60+  8C50
 61+  8C50
 62+  8C50              layer2_update:
 63+  8C50 2A F8 8B         ld hl,(test_layer2_scroll)
 64+  8C53 7D               ld a,l
 65+  8C54 ED 92 16         nextreg $16, a
 66+  8C57 7C               ld a,h
 67+  8C58 ED 92 71         nextreg $71, a
 68+  8C5B 23               inc hl
 69+  8C5C 23               inc hl
 70+  8C5D
 71+  8C5D 22 F8 8B         ld (test_layer2_scroll),hl
 72+  8C60 FE 00            cp 0
 73+  8C62 C8               ret z
 74+  8C63
 75+  8C63 7D               ld a,l
 76+  8C64 FE 40            cp low 320 ;sjasm - gives the low byte needed for value 320
 77+  8C66 C0               ret nz
 78+  8C67
 79+  8C67 21 00 00         ld hl,0
 80+  8C6A 22 F8 8B         ld (test_layer2_scroll),hl
 81+  8C6D
 82+  8C6D C9               ret
 83+  8C6E
 84+  8C6E
 85+  8C6E
 86+  8C6E
 87+  8C6E              tiles_set_palette:
 88+  8C6E 21 A0 8E         ld hl,caveman_palette
 89+  8C71 ED 91 43 30      nextreg $43,%00110000
 90+  8C75 AF               xor a
 91+  8C76 06 10            ld b,16
 92+  8C78 ED 92 40         nextreg $40,a
 93+  8C7B              uploadpal:
 94+  8C7B 7E               ld a,(hl)
 95+  8C7C ED 92 44         nextreg $44,a
 96+  8C7F 23               inc hl
 97+  8C80 7E               ld a,(hl)
 98+  8C81 ED 92 44         nextreg $44,a
 99+  8C84 23               inc hl
100+  8C85 10 F4            djnz uploadpal
101+  8C87 C9               ret
102+  8C88
103+  8C88
104+  8C88              ;does 2 passes per 'map' line, due to 2 rows within each supertile
105+  8C88              view_init:
106+  8C88 DD 21 74 87      ld ix,metalevel ;point at level 'map' (in meta tiles)
107+  8C8C 11 00 45         ld de,$4500 ;
108+  8C8F 0E 00            ld c,0
109+  8C91              view_init_screen:
110+  8C91 06 14            ld b,VIEW_WIDTH_META
111+  8C93              view_init_line_pass1:
112+  8C93 21 F4 89         ld hl,metatiles
113+  8C96 DD 7E 00         ld a,(ix)
114+  8C99 87               add a,a
115+  8C9A 87               add a,a ;A*4 (metatile size)
116+  8C9B ED 31            add hl,a
117+  8C9D ED 31            add hl,a ;add twice to hl because metatile elements are 2 bytes each
118+  8C9F 7E               ld a,(hl)
119+  8CA0 12               ld (de),a
120+  8CA1 23               inc hl
121+  8CA2 13               inc de
122+  8CA3 7E               ld a,(hl)
123+  8CA4 12               ld (de),a
124+  8CA5 23               inc hl
125+  8CA6 13               inc de
126+  8CA7 7E               ld a,(hl)
127+  8CA8 12               ld (de),a
128+  8CA9 23               inc hl
129+  8CAA 13               inc de
130+  8CAB 7E               ld a,(hl)
131+  8CAC 12               ld (de),a
132+  8CAD 13               inc de
133+  8CAE DD 23            inc ix
134+  8CB0 10 E1            djnz view_init_line_pass1
135+  8CB2 06 14            ld b,VIEW_WIDTH_META
136+  8CB4              view_init_golineback:
137+  8CB4 DD 2B            dec ix
138+  8CB6 10 FC            djnz view_init_golineback
139+  8CB8 06 14            ld b,VIEW_WIDTH_META
140+  8CBA              view_init_line_pass2:
141+  8CBA 21 F4 89         ld hl,metatiles
142+  8CBD DD 7E 00         ld a,(ix)
143+  8CC0 87               add a,a
144+  8CC1 87               add a,a ;A*4 (metatile size)
145+  8CC2 ED 31            add hl,a
146+  8CC4 ED 31            add hl,a
147+  8CC6 3E 04            ld a,4
148+  8CC8 ED 31            add hl,a
149+  8CCA 7E               ld a,(hl)
150+  8CCB 12               ld (de),a
151+  8CCC 23               inc hl
152+  8CCD 13               inc de
153+  8CCE 7E               ld a,(hl)
154+  8CCF 12               ld (de),a
155+  8CD0 23               inc hl
156+  8CD1 13               inc de
157+  8CD2 7E               ld a,(hl)
158+  8CD3 12               ld (de),a
159+  8CD4 23               inc hl
160+  8CD5 13               inc de
161+  8CD6 7E               ld a,(hl)
162+  8CD7 12               ld (de),a
163+  8CD8 13               inc de
164+  8CD9 DD 23            inc ix
165+  8CDB 10 DD            djnz view_init_line_pass2
166+  8CDD
167+  8CDD D5               push de
168+  8CDE 11 3C 00         ld de,LEVEL_WIDTH_META-VIEW_WIDTH_META
169+  8CE1 DD 19            add ix,de
170+  8CE3 D1               pop de
171+  8CE4 0C               inc c
172+  8CE5 79               ld a,c
173+  8CE6 FE 08            cp LEVEL_HEIGHT_META
174+  8CE8 DA 91 8C         jp c,view_init_screen
175+  8CEB C9               ret
176+  8CEC
177+  8CEC
178+  8CEC 00           current_meta_column db 0
179+  8CED
180+  8CED              ;OO     OO
181+  8CED              ;OO     OO
182+  8CED              scroll_left:
183+  8CED 3A F6 8B         ld a,(cam_edge_r)
184+  8CF0 D6 14            sub VIEW_WIDTH_META
185+  8CF2 32 F7 8B         ld (cam_x),a
186+  8CF5
187+  8CF5 3A F5 8B         ld a,(scroll_direction)
188+  8CF8 FE 00            cp LEFT
189+  8CFA CA 02 8D         jp z,do_scroll_left
190+  8CFD
191+  8CFD 3E 00            ld a,LEFT
192+  8CFF 32 F5 8B         ld (scroll_direction),a
193+  8D02
194+  8D02
195+  8D02              do_scroll_left:
196+  8D02 3A F6 8B         ld a,(cam_edge_r)
197+  8D05 D6 14            sub VIEW_WIDTH_META
198+  8D07 CA D5 82         jp z,p_move_left
199+  8D0A
200+  8D0A 3A F4 8B         ld a,(current_scroll)
201+  8D0D 3C               inc a
202+  8D0E FE 08            cp 8
203+  8D10 CC 1E 8D         call z,sl_scrollmax
204+  8D13 32 F4 8B         ld (current_scroll),a
205+  8D16 47               ld b,a
206+  8D17 3E 08            ld a,8
207+  8D19 90               sub b
208+  8D1A ED 92 30         nextreg $30,a
209+  8D1D C9               ret
210+  8D1E              sl_scrollmax:
211+  8D1E 21 FE 49         ld hl,$4a00-2
212+  8D21 11 00 4A         ld de,$4a00
213+  8D24 01 00 05         ld bc,20*32*2
214+  8D27 ED B8            lddr
215+  8D29
216+  8D29 21 74 87         ld hl,metalevel
217+  8D2C 3A F7 8B         ld a,(cam_x)
218+  8D2F D6 02            sub 2
219+  8D31 ED 31            add hl,a
220+  8D33 11 00 45         ld de,LEVEL_Y_START_ADDRESS             ; top left cell
221+  8D36 06 08            ld b,LEVEL_HEIGHT_META
222+  8D38
223+  8D38 3A EC 8C         ld a,(current_meta_column)
224+  8D3B FE 00            cp 0
225+  8D3D CA 43 8D         jp z,sl_putcolumn1
226+  8D40 C2 81 8D         jp nz,sl_putcolumn2
227+  8D43
228+  8D43              sl_putcolumn1:
229+  8D43 7E               ld a,(hl)
230+  8D44 87               add a,a
231+  8D45 87               add a,a
232+  8D46 E5               push hl
233+  8D47 21 F4 89         ld hl,metatiles
234+  8D4A ED 31            add hl,a
235+  8D4C ED 31            add hl,a
236+  8D4E 7E               ld a,(hl)
237+  8D4F 12               ld (de),a
238+  8D50 23               inc hl
239+  8D51 13               inc de
240+  8D52 7E               ld a,(hl)
241+  8D53 12               ld (de),a
242+  8D54 E1               pop hl
243+  8D55 ED 35 4F 00      add de,(VIEW_WIDTH*2)-1 ;WIDTH-1
244+  8D59 7E               ld a,(hl)
245+  8D5A 87               add a,a
246+  8D5B 87               add a,a
247+  8D5C E5               push hl
248+  8D5D 21 F4 89         ld hl,metatiles
249+  8D60 ED 31            add hl,a
250+  8D62 C6 04            add a,4
251+  8D64 ED 31            add hl,a
252+  8D66 7E               ld a,(hl)
253+  8D67 12               ld (de),a
254+  8D68 23               inc hl
255+  8D69 13               inc de
256+  8D6A 7E               ld a,(hl)
257+  8D6B 12               ld (de),a
258+  8D6C E1               pop hl
259+  8D6D ED 35 4F 00      add de,(VIEW_WIDTH*2)-1
260+  8D71 ED 34 50 00      add hl,LEVEL_WIDTH_META
261+  8D75 10 CC            djnz sl_putcolumn1
262+  8D77
263+  8D77 3E 01            ld a,1
264+  8D79 32 EC 8C         ld (current_meta_column),a
265+  8D7C
266+  8D7C AF               xor a
267+  8D7D 32 F4 8B         ld (current_scroll),a
268+  8D80
269+  8D80 C9               ret
270+  8D81              sl_putcolumn2:
271+  8D81 7E               ld a,(hl)
272+  8D82 87               add a,a
273+  8D83 87               add a,a
274+  8D84 E5               push hl
275+  8D85 21 F4 89         ld hl,metatiles
276+  8D88 ED 31            add hl,a
277+  8D8A C6 02            add a,2
278+  8D8C ED 31            add hl,a
279+  8D8E 7E               ld a,(hl)
280+  8D8F 12               ld (de),a ;Ba
281+  8D90 23               inc hl
282+  8D91 13               inc de
283+  8D92 7E               ld a,(hl)
284+  8D93 12               ld (de),a ;Bb
285+  8D94 E1               pop hl
286+  8D95 ED 35 4F 00      add de,(VIEW_WIDTH*2)-1 ;WIDTH-1
287+  8D99 7E               ld a,(hl)
288+  8D9A 87               add a,a
289+  8D9B 87               add a,a
290+  8D9C E5               push hl
291+  8D9D 21 F4 89         ld hl,metatiles
292+  8DA0 ED 31            add hl,a
293+  8DA2 C6 06            add a,6
294+  8DA4 ED 31            add hl,a
295+  8DA6 7E               ld a,(hl)
296+  8DA7 12               ld (de),a ;Da
297+  8DA8 23               inc hl
298+  8DA9 13               inc de
299+  8DAA 7E               ld a,(hl)
300+  8DAB 12               ld (de),a ;Db
301+  8DAC E1               pop hl
302+  8DAD ED 35 4F 00      add de,(VIEW_WIDTH*2)-1
303+  8DB1 ED 34 50 00      add hl,LEVEL_WIDTH_META
304+  8DB5 10 CA            djnz sl_putcolumn2
305+  8DB7
306+  8DB7
307+  8DB7 3E 00            ld a,0
308+  8DB9 32 EC 8C         ld (current_meta_column),a
309+  8DBC
310+  8DBC
311+  8DBC 3A F6 8B         ld a,(cam_edge_r)
312+  8DBF 3D               dec a
313+  8DC0 32 F6 8B         ld (cam_edge_r),a
314+  8DC3
315+  8DC3 AF               xor a
316+  8DC4 32 F4 8B         ld (current_scroll),a
317+  8DC7
318+  8DC7 C9               ret
319+  8DC8
320+  8DC8
321+  8DC8
322+  8DC8
323+  8DC8              scroll_right:
324+  8DC8 3A F6 8B         ld a,(cam_edge_r)
325+  8DCB D6 14            sub VIEW_WIDTH_META
326+  8DCD 32 F7 8B         ld (cam_x),a
327+  8DD0
328+  8DD0 3A F5 8B         ld a,(scroll_direction)
329+  8DD3 FE 01            cp RIGHT
330+  8DD5 CA DD 8D         jp z,do_scroll_right
331+  8DD8
332+  8DD8 3E 01            ld a,RIGHT
333+  8DDA 32 F5 8B         ld (scroll_direction),a
334+  8DDD
335+  8DDD              do_scroll_right:
336+  8DDD
337+  8DDD
338+  8DDD
339+  8DDD 3A F6 8B         ld a,(cam_edge_r)
340+  8DE0 FE 50            cp LEVEL_WIDTH_META
341+  8DE2 D2 19 83         jp nc, p_move_right
342+  8DE5
343+  8DE5 3A F4 8B         ld a,(current_scroll)
344+  8DE8 3C               inc a
345+  8DE9 FE 08            cp 8
346+  8DEB 32 F4 8B         ld (current_scroll),a
347+  8DEE CC F8 8D         call z,sr_scrollmax
348+  8DF1 3A F4 8B         ld a,(current_scroll)
349+  8DF4 ED 92 30         nextreg $30,a
350+  8DF7 C9               ret
351+  8DF8              sr_scrollmax:
352+  8DF8 21 02 45         ld hl,LEVEL_Y_START_ADDRESS+2
353+  8DFB 11 00 45         ld de,LEVEL_Y_START_ADDRESS
354+  8DFE 01 00 05         ld bc,20*32*2
355+  8E01 ED B0            ldir
356+  8E03
357+  8E03 21 74 87         ld hl,metalevel
358+  8E06 3A F6 8B         ld a,(cam_edge_r)
359+  8E09 ED 31            add hl,a
360+  8E0B 11 4E 45         ld de,LEVEL_Y_START_ADDRESS+78
361+  8E0E 06 08            ld b,LEVEL_HEIGHT_META
362+  8E10
363+  8E10 3A EC 8C         ld a,(current_meta_column)
364+  8E13 FE 00            cp 0
365+  8E15 CA 1B 8E         jp z,sr_putcolumn1
366+  8E18 C2 59 8E         jp nz,sr_putcolumn2
367+  8E1B              sr_putcolumn1:
368+  8E1B 7E               ld a,(hl)
369+  8E1C 87               add a,a
370+  8E1D 87               add a,a
371+  8E1E E5               push hl
372+  8E1F 21 F4 89         ld hl,metatiles
373+  8E22 ED 31            add hl,a
374+  8E24 ED 31            add hl,a
375+  8E26 7E               ld a,(hl)
376+  8E27 12               ld (de),a
377+  8E28 23               inc hl
378+  8E29 13               inc de
379+  8E2A 7E               ld a,(hl)
380+  8E2B 12               ld (de),a
381+  8E2C E1               pop hl
382+  8E2D ED 35 4F 00      add de,(VIEW_WIDTH*2)-1 ;WIDTH-1
383+  8E31 7E               ld a,(hl)
384+  8E32 87               add a,a
385+  8E33 87               add a,a
386+  8E34 E5               push hl
387+  8E35 21 F4 89         ld hl,metatiles
388+  8E38 ED 31            add hl,a
389+  8E3A C6 04            add a,4
390+  8E3C ED 31            add hl,a
391+  8E3E 7E               ld a,(hl)
392+  8E3F 12               ld (de),a
393+  8E40 23               inc hl
394+  8E41 13               inc de
395+  8E42 7E               ld a,(hl)
396+  8E43 12               ld (de),a
397+  8E44 E1               pop hl
398+  8E45 ED 35 4F 00      add de,(VIEW_WIDTH*2)-1
399+  8E49 ED 34 50 00      add hl,LEVEL_WIDTH_META
400+  8E4D 10 CC            djnz sr_putcolumn1
401+  8E4F
402+  8E4F 3E 01            ld a,1
403+  8E51 32 EC 8C         ld (current_meta_column),a
404+  8E54
405+  8E54 AF               xor a
406+  8E55 32 F4 8B         ld (current_scroll),a
407+  8E58
408+  8E58 C9               ret
409+  8E59              sr_putcolumn2:
410+  8E59 7E               ld a,(hl)
411+  8E5A 87               add a,a
412+  8E5B 87               add a,a
413+  8E5C E5               push hl
414+  8E5D 21 F4 89         ld hl,metatiles
415+  8E60 ED 31            add hl,a
416+  8E62 C6 02            add a,2
417+  8E64 ED 31            add hl,a
418+  8E66 7E               ld a,(hl)
419+  8E67 12               ld (de),a ;Ba
420+  8E68 23               inc hl
421+  8E69 13               inc de
422+  8E6A 7E               ld a,(hl)
423+  8E6B 12               ld (de),a ;Bb
424+  8E6C E1               pop hl
425+  8E6D ED 35 4F 00      add de,(VIEW_WIDTH*2)-1 ;WIDTH-1
426+  8E71 7E               ld a,(hl)
427+  8E72 87               add a,a
428+  8E73 87               add a,a
429+  8E74 E5               push hl
430+  8E75 21 F4 89         ld hl,metatiles
431+  8E78 ED 31            add hl,a
432+  8E7A C6 06            add a,6
433+  8E7C ED 31            add hl,a
434+  8E7E 7E               ld a,(hl)
435+  8E7F 12               ld (de),a ;Da
436+  8E80 23               inc hl
437+  8E81 13               inc de
438+  8E82 7E               ld a,(hl)
439+  8E83 12               ld (de),a ;Db
440+  8E84 E1               pop hl
441+  8E85 ED 35 4F 00      add de,(VIEW_WIDTH*2)-1
442+  8E89 ED 34 50 00      add hl,LEVEL_WIDTH_META
443+  8E8D 10 CA            djnz sr_putcolumn2
444+  8E8F
445+  8E8F
446+  8E8F 3E 00            ld a,0
447+  8E91 32 EC 8C         ld (current_meta_column),a
448+  8E94
449+  8E94
450+  8E94 3A F6 8B         ld a,(cam_edge_r)
451+  8E97 3C               inc a
452+  8E98 32 F6 8B         ld (cam_edge_r),a
453+  8E9B
454+  8E9B AF               xor a
455+  8E9C 32 F4 8B         ld (current_scroll),a
456+  8E9F
457+  8E9F C9               ret
458+  8EA0
459+  8EA0
460+  8EA0
461+  8EA0
462+  8EA0
463+  8EA0
464+  8EA0
465+  8EA0
466+  8EA0
467+  8EA0
468+  8EA0
469+  8EA0              ; scroll_right_old:
470+  8EA0              ;     ld a,RIGHT
471+  8EA0              ;     ld (scroll_direction),a
472+  8EA0
473+  8EA0              ;     ld a,(cam_edge_r)
474+  8EA0              ;     sub VIEW_WIDTH_META
475+  8EA0              ;     ld (cam_x),a
476+  8EA0
477+  8EA0              ;     ld a,(cam_edge_r)
478+  8EA0              ;     cp LEVEL_WIDTH_META
479+  8EA0              ;     jp nc, p_move_right
480+  8EA0
481+  8EA0              ;     ld a,(current_scroll)
482+  8EA0              ;     inc a
483+  8EA0              ;     cp 8
484+  8EA0              ;     ld (current_scroll),a
485+  8EA0              ;     call z,sr_scrollmax
486+  8EA0              ;     ld (current_scroll),a
487+  8EA0              ;     nextreg $30,a
488+  8EA0              ;     ret
489+  8EA0              ; sr_scrollmax:
490+  8EA0              ;     ld hl,LEVEL_Y_START_ADDRESS+1
491+  8EA0              ;     ld de,LEVEL_Y_START_ADDRESS
492+  8EA0              ;     ld bc,20*32
493+  8EA0              ;     ldir
494+  8EA0              ;     ld hl,metalevel
495+  8EA0              ;     ld a,(cam_edge_r)
496+  8EA0              ;     add hl,a
497+  8EA0              ;     ld de,LEVEL_Y_START_ADDRESS+39 ;top right cell
498+  8EA0              ;     ld b,LEVEL_HEIGHT_META
499+  8EA0
500+  8EA0              ;     ld a,(current_meta_column)
501+  8EA0              ;     cp 0
502+  8EA0              ;     jp z,sr_putcolumn
503+  8EA0              ;     jp nz,sr_putcolumn_2nd
504+  8EA0              ; sr_putcolumn:
505+  8EA0              ;     ld a,(hl)
506+  8EA0              ;     add a,a
507+  8EA0              ;     add a,a ;A*4
508+  8EA0              ;     push hl
509+  8EA0              ;     ld hl,metatiles
510+  8EA0              ;     add hl,a
511+  8EA0              ;     add hl,a
512+  8EA0              ;     ld a,(hl)
513+  8EA0              ;     ld (de),a
514+  8EA0              ;     inc hl
515+  8EA0              ;     inc de
516+  8EA0              ;     ld a,(hl)
517+  8EA0              ;     pop hl
518+  8EA0              ;     ld (de),a
519+  8EA0              ;     add de,VIEW_WIDTH-1
520+  8EA0              ;     ld a,(hl)
521+  8EA0              ;     add a,a
522+  8EA0              ;     add a,a ;A*4
523+  8EA0              ;     push hl
524+  8EA0              ;     ld hl,metatiles
525+  8EA0              ;     add hl,a
526+  8EA0              ;     add a,4 ; halfway thru the metatile
527+  8EA0              ;     add hl,a
528+  8EA0              ;     ld a,(hl)
529+  8EA0              ;     ld (de),a
530+  8EA0              ;     inc hl
531+  8EA0              ;     inc de
532+  8EA0              ;     ld a,(hl)
533+  8EA0              ;     pop hl
534+  8EA0              ;     ld (de),a
535+  8EA0              ;     add de,VIEW_WIDTH-1
536+  8EA0              ;     add hl,LEVEL_WIDTH_META
537+  8EA0              ;     djnz sr_putcolumn
538+  8EA0
539+  8EA0              ;     ld a,1
540+  8EA0              ;     ld (current_meta_column),a
541+  8EA0
542+  8EA0              ;     xor a
543+  8EA0              ;     ld (current_scroll),a
544+  8EA0
545+  8EA0              ;     ret
546+  8EA0              ; sr_putcolumn_2nd:
547+  8EA0              ;    ld a,(hl)
548+  8EA0              ;     add a,a
549+  8EA0              ;     add a,a ;A*4
550+  8EA0              ;     push hl
551+  8EA0              ;     ld hl,metatiles
552+  8EA0              ;     add hl,a
553+  8EA0              ;     add a,2
554+  8EA0              ;     add hl,a
555+  8EA0              ;     ld a,(hl)
556+  8EA0              ;     ld (de),a
557+  8EA0              ;     inc hl
558+  8EA0              ;     inc de
559+  8EA0              ;     ld a,(hl)
560+  8EA0              ;     pop hl
561+  8EA0              ;     ld (de),a
562+  8EA0              ;     add de,VIEW_WIDTH-1
563+  8EA0              ;     ld a,(hl)
564+  8EA0              ;     add a,a
565+  8EA0              ;     add a,a ;A*4
566+  8EA0              ;     push hl
567+  8EA0              ;     ld hl,metatiles
568+  8EA0              ;     add hl,a
569+  8EA0              ;     add a,6 ; halfway thru the metatile
570+  8EA0              ;     add hl,a
571+  8EA0              ;     ld a,(hl)
572+  8EA0              ;     ld (de),a
573+  8EA0              ;     inc hl
574+  8EA0              ;     inc de
575+  8EA0              ;     ld a,(hl)
576+  8EA0              ;     pop hl
577+  8EA0              ;     ld (de),a
578+  8EA0              ;     add de,VIEW_WIDTH-1
579+  8EA0              ;     add hl,LEVEL_WIDTH_META
580+  8EA0              ;     djnz sr_putcolumn_2nd
581+  8EA0
582+  8EA0
583+  8EA0              ;     ld a,(cam_edge_r)
584+  8EA0              ;     inc a
585+  8EA0              ;     ld (cam_edge_r),a
586+  8EA0
587+  8EA0              ;     ld a,0
588+  8EA0              ;     ld (current_meta_column),a
589+  8EA0
590+  8EA0              ;     xor a
591+  8EA0              ;     ld (current_scroll),a
592+  8EA0
593+  8EA0              ;     ret
594+  8EA0
595+  8EA0
596+  8EA0
597+  8EA0
598+  8EA0
599+  8EA0
600+  8EA0
601+  8EA0              ; scroll_left:
602+  8EA0              ;     ld a,LEFT
603+  8EA0              ;     ld (scroll_direction),a
604+  8EA0
605+  8EA0              ;     ld a,(cam_edge_r)
606+  8EA0              ;     cp LEVEL_START+VIEW_WIDTH+1
607+  8EA0              ;     jp c, p_move_left
608+  8EA0
609+  8EA0              ;     ld a,(cam_edge_r)
610+  8EA0              ;     sub VIEW_WIDTH
611+  8EA0              ;     ld (cam_x),a
612+  8EA0
613+  8EA0              ;     ld a,(current_scroll)
614+  8EA0              ;     inc a
615+  8EA0              ;     cp 8
616+  8EA0              ;     call z,sl_scrollmax
617+  8EA0              ;     ld (current_scroll),a
618+  8EA0              ;     ld b,a
619+  8EA0              ;     ld a,8
620+  8EA0              ;     sub b
621+  8EA0              ;     nextreg $30,a
622+  8EA0              ;     ret
623+  8EA0              ; sl_scrollmax:
624+  8EA0              ;     ; ld hl,$4000+1279
625+  8EA0              ;     ; ld de,$4001+1279
626+  8EA0              ;     ld hl,$44FF
627+  8EA0              ;     ld de,$4500
628+  8EA0              ;     ld bc,40*32
629+  8EA0              ;     lddr  ; move whole screen to right 1 tile
630+  8EA0              ;     ld hl,level1            ; start of tiles
631+  8EA0              ;     ld a,(cam_x)           ; current cam_edge_r
632+  8EA0              ;     dec a
633+  8EA0              ;     add hl,a                ; add this to tile cam_edge_r
634+  8EA0              ;     ; dec a                   ; dec the cam_edge_r
635+  8EA0              ;     add a,VIEW_WIDTH
636+  8EA0              ;     ld (cam_edge_r),a
637+  8EA0              ;     ld de,$4000              ; top left cell
638+  8EA0              ;     ld b,VIEW_HEIGHT
639+  8EA0              ; columnloop_left:
640+  8EA0              ;     ld a,(hl)                   ; get tile from (hl)
641+  8EA0              ;     ld (de),a                   ; put in (de)
642+  8EA0              ;     add de,VIEW_WIDTH                  ; move de to next line
643+  8EA0              ;     add hl,WORLD_WIDTH          ; move hl to next map line
644+  8EA0              ;     djnz columnloop_left             ; loop for 32 lines
645+  8EA0              ;     xor a
646+  8EA0              ;     ld (current_scroll),a
647+  8EA0              ;     ret
648+  8EA0
649+  8EA0
650+  8EA0
651+  8EA0              ; scroll_right:
652+  8EA0              ;     ld a,RIGHT
653+  8EA0              ;     ld (scroll_direction),a
654+  8EA0
655+  8EA0              ;     ld a,(cam_edge_r)
656+  8EA0              ;     cp WORLD_WIDTH
657+  8EA0              ;     jp nc, p_move_right
658+  8EA0              ;     ld a,(current_scroll)
659+  8EA0              ;     inc a
660+  8EA0              ;     cp 8
661+  8EA0              ;     call z,nowdrawcolumn
662+  8EA0              ;     ld (current_scroll),a
663+  8EA0              ;     nextreg $30,a
664+  8EA0              ;     ret
665+  8EA0              ; nowdrawcolumn:
666+  8EA0              ;     ld hl,$4001
667+  8EA0              ;     ld de,$4000
668+  8EA0              ;     ld bc,1280
669+  8EA0              ;     ldir  ; move whole screen to left 1 tile
670+  8EA0              ;     ld hl,level1            ; start of tiles
671+  8EA0              ;     ld a,(cam_edge_r)           ; current cam_edge_r
672+  8EA0              ;     add hl,a                ; add this to tile cam_edge_r
673+  8EA0              ;     inc a                   ; inc the cam_edge_r
674+  8EA0              ;     ld (cam_edge_r),a
675+  8EA0              ;     ld de,$4027              ; top right cell
676+  8EA0              ;     ld b,VIEW_HEIGHT
677+  8EA0              ; columnloop:
678+  8EA0              ;     ld a,(hl)                   ; get tile from (hl)
679+  8EA0              ;     ld (de),a                   ; put in (de)
680+  8EA0              ;     add de,VIEW_WIDTH                  ; move de to next line
681+  8EA0              ;     add hl,WORLD_WIDTH          ; move hl to next map line
682+  8EA0              ;     djnz columnloop             ; loop for 32 lines
683+  8EA0              ;     xor a
684+  8EA0              ;     ld (current_scroll),a
685+  8EA0              ;     ret
686+  8EA0
687+  8EA0
688+  8EA0
689+  8EA0
690+  8EA0
691+  8EA0
692+  8EA0
693+  8EA0
694+  8EA0
695+  8EA0
696+  8EA0
697+  8EA0
# file closed: src/levels/levelmanager.asm
 50   8EA0              	include 'assets\sprites.asm'
# file opened: src/assets/sprites.asm
  1+  8EA0              ; Sprite Attribute 0
  2+  8EA0              ;     X X X X X X X X
  3+  8EA0
  4+  8EA0              ; Sprite Attribute 1
  5+  8EA0              ;     Y Y Y Y Y Y Y Y
  6+  8EA0
  7+  8EA0              ; Sprite Attribute 2
  8+  8EA0              ;     P P P P XM YM R X8/PR
  9+  8EA0
 10+  8EA0              ; Sprite Attribute 3
 11+  8EA0              ;     V E N5 N4 N3 N2 N1 N0 (NNNNN=Pattern ID)
 12+  8EA0
 13+  8EA0              ; Sprite Attribute 4
 14+  8EA0              ; A. Extended Anchor Sprite
 15+  8EA0              ;     H N6 T X X Y Y Y8
 16+  8EA0              ; B. Relative Sprite, Composite Type
 17+  8EA0              ;     0 1 N6 X X Y Y PO
 18+  8EA0              ; C. Relative Sprite, Unified Type
 19+  8EA0              ;     0 1 N6 0 0 0 0 PO
 20+  8EA0
 21+  8EA0
 22+  8EA0
# file closed: src/assets/sprites.asm
 51   8EA0
 52   8EA0
 53   8EA0              	include 'loadbins.asm'
# file opened: src/loadbins.asm
  1+  8EA0
  2+  8EA0
  3+  8EA0              ;;;;;Tiles
  4+  8EA0
  5+  8EA0
  6+  8EA0
  7+  8EA0
  8+  8EA0
  9+  8EA0              caveman_palette:
 10+  8EA0                  incbin 'assets/cavetiles2.nxp',0
 11+  8EBC
 12+  8EBC                  MMU 6,16
 13+  8EBC                  org $c000
 14+  C000
 15+  C000                  incbin 'assets/cavetiles2.til',0,TILE_DEFINITIONS_SIZE
 16+  D000
 17+  D000
 18+  D000              	;courtesy of ped7g:
 19+  D000                  ; patch tile gfx with grid gfx
 20+  D000              tileN=1
 21+  D000                  DUP 128-tileN
 22+  D000             >        ORG $C000 + tileN*32
 23+  C020 FF          >        DB $FF
 24+  C021 F0          >        DB {b $ } | $F0
 25+  C022             >        ORG $C000 + tileN*32 + 1*4
 26+  C024 F0          >        DB {b $ } | $F0
 27+  C025             >        ORG $C000 + tileN*32 + 2*4
 28+  C028 F0          >        DB {b $ } | $F0
 29+  C029             >        ORG $C000 + tileN*32 + 6*4 + 3
 30+  C03B 0F          >        DB {b $ } | $0F
 31+  C03C             >        ORG $C000 + tileN*32 + 7*4 + 3
 32+  C03F FF          >        DB $FF
 33+  C040             >tileN=tileN+1
 22+  C040             >        ORG $C000 + tileN*32
 23+  C040 FF          >        DB $FF
 24+  C041 F0          >        DB {b $ } | $F0
 25+  C042             >        ORG $C000 + tileN*32 + 1*4
 26+  C044 F0          >        DB {b $ } | $F0
 27+  C045             >        ORG $C000 + tileN*32 + 2*4
 28+  C048 F0          >        DB {b $ } | $F0
 29+  C049             >        ORG $C000 + tileN*32 + 6*4 + 3
 30+  C05B 0F          >        DB {b $ } | $0F
 31+  C05C             >        ORG $C000 + tileN*32 + 7*4 + 3
 32+  C05F FF          >        DB $FF
 33+  C060             >tileN=tileN+1
 22+  C060             >        ORG $C000 + tileN*32
 23+  C060 FF          >        DB $FF
 24+  C061 F0          >        DB {b $ } | $F0
 25+  C062             >        ORG $C000 + tileN*32 + 1*4
 26+  C064 F0          >        DB {b $ } | $F0
 27+  C065             >        ORG $C000 + tileN*32 + 2*4
 28+  C068 F0          >        DB {b $ } | $F0
 29+  C069             >        ORG $C000 + tileN*32 + 6*4 + 3
 30+  C07B 4F          >        DB {b $ } | $0F
 31+  C07C             >        ORG $C000 + tileN*32 + 7*4 + 3
 32+  C07F FF          >        DB $FF
 33+  C080             >tileN=tileN+1
 22+  C080             >        ORG $C000 + tileN*32
 23+  C080 FF          >        DB $FF
 24+  C081 FA          >        DB {b $ } | $F0
 25+  C082             >        ORG $C000 + tileN*32 + 1*4
 26+  C084 FA          >        DB {b $ } | $F0
 27+  C085             >        ORG $C000 + tileN*32 + 2*4
 28+  C088 FA          >        DB {b $ } | $F0
 29+  C089             >        ORG $C000 + tileN*32 + 6*4 + 3
 30+  C09B DF          >        DB {b $ } | $0F
 31+  C09C             >        ORG $C000 + tileN*32 + 7*4 + 3
 32+  C09F FF          >        DB $FF
 33+  C0A0             >tileN=tileN+1
 22+  C0A0             >        ORG $C000 + tileN*32
 23+  C0A0 FF          >        DB $FF
 24+  C0A1 FA          >        DB {b $ } | $F0
 25+  C0A2             >        ORG $C000 + tileN*32 + 1*4
 26+  C0A4 FD          >        DB {b $ } | $F0
 27+  C0A5             >        ORG $C000 + tileN*32 + 2*4
 28+  C0A8 FD          >        DB {b $ } | $F0
 29+  C0A9             >        ORG $C000 + tileN*32 + 6*4 + 3
 30+  C0BB 6F          >        DB {b $ } | $0F
 31+  C0BC             >        ORG $C000 + tileN*32 + 7*4 + 3
 32+  C0BF FF          >        DB $FF
 33+  C0C0             >tileN=tileN+1
 22+  C0C0             >        ORG $C000 + tileN*32
 23+  C0C0 FF          >        DB $FF
 24+  C0C1 F0          >        DB {b $ } | $F0
 25+  C0C2             >        ORG $C000 + tileN*32 + 1*4
 26+  C0C4 F0          >        DB {b $ } | $F0
 27+  C0C5             >        ORG $C000 + tileN*32 + 2*4
 28+  C0C8 F0          >        DB {b $ } | $F0
 29+  C0C9             >        ORG $C000 + tileN*32 + 6*4 + 3
 30+  C0DB 1F          >        DB {b $ } | $0F
 31+  C0DC             >        ORG $C000 + tileN*32 + 7*4 + 3
 32+  C0DF FF          >        DB $FF
 33+  C0E0             >tileN=tileN+1
 22+  C0E0             >        ORG $C000 + tileN*32
 23+  C0E0 FF          >        DB $FF
 24+  C0E1 F0          >        DB {b $ } | $F0
 25+  C0E2             >        ORG $C000 + tileN*32 + 1*4
 26+  C0E4 F0          >        DB {b $ } | $F0
 27+  C0E5             >        ORG $C000 + tileN*32 + 2*4
 28+  C0E8 F7          >        DB {b $ } | $F0
 29+  C0E9             >        ORG $C000 + tileN*32 + 6*4 + 3
 30+  C0FB 7F          >        DB {b $ } | $0F
 31+  C0FC             >        ORG $C000 + tileN*32 + 7*4 + 3
 32+  C0FF FF          >        DB $FF
 33+  C100             >tileN=tileN+1
 22+  C100             >        ORG $C000 + tileN*32
 23+  C100 FF          >        DB $FF
 24+  C101 FA          >        DB {b $ } | $F0
 25+  C102             >        ORG $C000 + tileN*32 + 1*4
 26+  C104 F3          >        DB {b $ } | $F0
 27+  C105             >        ORG $C000 + tileN*32 + 2*4
 28+  C108 F2          >        DB {b $ } | $F0
 29+  C109             >        ORG $C000 + tileN*32 + 6*4 + 3
 30+  C11B AF          >        DB {b $ } | $0F
 31+  C11C             >        ORG $C000 + tileN*32 + 7*4 + 3
 32+  C11F FF          >        DB $FF
 33+  C120             >tileN=tileN+1
 22+  C120             >        ORG $C000 + tileN*32
 23+  C120 FF          >        DB $FF
 24+  C121 F3          >        DB {b $ } | $F0
 25+  C122             >        ORG $C000 + tileN*32 + 1*4
 26+  C124 FA          >        DB {b $ } | $F0
 27+  C125             >        ORG $C000 + tileN*32 + 2*4
 28+  C128 F6          >        DB {b $ } | $F0
 29+  C129             >        ORG $C000 + tileN*32 + 6*4 + 3
 30+  C13B 6F          >        DB {b $ } | $0F
 31+  C13C             >        ORG $C000 + tileN*32 + 7*4 + 3
 32+  C13F FF          >        DB $FF
 33+  C140             >tileN=tileN+1
 22+  C140             >        ORG $C000 + tileN*32
 23+  C140 FF          >        DB $FF
 24+  C141 FA          >        DB {b $ } | $F0
 25+  C142             >        ORG $C000 + tileN*32 + 1*4
 26+  C144 F3          >        DB {b $ } | $F0
 27+  C145             >        ORG $C000 + tileN*32 + 2*4
 28+  C148 F2          >        DB {b $ } | $F0
 29+  C149             >        ORG $C000 + tileN*32 + 6*4 + 3
 30+  C15B 6F          >        DB {b $ } | $0F
 31+  C15C             >        ORG $C000 + tileN*32 + 7*4 + 3
 32+  C15F FF          >        DB $FF
 33+  C160             >tileN=tileN+1
 22+  C160             >        ORG $C000 + tileN*32
 23+  C160 FF          >        DB $FF
 24+  C161 FA          >        DB {b $ } | $F0
 25+  C162             >        ORG $C000 + tileN*32 + 1*4
 26+  C164 F6          >        DB {b $ } | $F0
 27+  C165             >        ORG $C000 + tileN*32 + 2*4
 28+  C168 FD          >        DB {b $ } | $F0
 29+  C169             >        ORG $C000 + tileN*32 + 6*4 + 3
 30+  C17B 2F          >        DB {b $ } | $0F
 31+  C17C             >        ORG $C000 + tileN*32 + 7*4 + 3
 32+  C17F FF          >        DB $FF
 33+  C180             >tileN=tileN+1
 22+  C180             >        ORG $C000 + tileN*32
 23+  C180 FF          >        DB $FF
 24+  C181 F6          >        DB {b $ } | $F0
 25+  C182             >        ORG $C000 + tileN*32 + 1*4
 26+  C184 F6          >        DB {b $ } | $F0
 27+  C185             >        ORG $C000 + tileN*32 + 2*4
 28+  C188 F2          >        DB {b $ } | $F0
 29+  C189             >        ORG $C000 + tileN*32 + 6*4 + 3
 30+  C19B 3F          >        DB {b $ } | $0F
 31+  C19C             >        ORG $C000 + tileN*32 + 7*4 + 3
 32+  C19F FF          >        DB $FF
 33+  C1A0             >tileN=tileN+1
 22+  C1A0             >        ORG $C000 + tileN*32
 23+  C1A0 FF          >        DB $FF
 24+  C1A1 F2          >        DB {b $ } | $F0
 25+  C1A2             >        ORG $C000 + tileN*32 + 1*4
 26+  C1A4 F3          >        DB {b $ } | $F0
 27+  C1A5             >        ORG $C000 + tileN*32 + 2*4
 28+  C1A8 F2          >        DB {b $ } | $F0
 29+  C1A9             >        ORG $C000 + tileN*32 + 6*4 + 3
 30+  C1BB 6F          >        DB {b $ } | $0F
 31+  C1BC             >        ORG $C000 + tileN*32 + 7*4 + 3
 32+  C1BF FF          >        DB $FF
 33+  C1C0             >tileN=tileN+1
 22+  C1C0             >        ORG $C000 + tileN*32
 23+  C1C0 FF          >        DB $FF
 24+  C1C1 F7          >        DB {b $ } | $F0
 25+  C1C2             >        ORG $C000 + tileN*32 + 1*4
 26+  C1C4 F1          >        DB {b $ } | $F0
 27+  C1C5             >        ORG $C000 + tileN*32 + 2*4
 28+  C1C8 F1          >        DB {b $ } | $F0
 29+  C1C9             >        ORG $C000 + tileN*32 + 6*4 + 3
 30+  C1DB 4F          >        DB {b $ } | $0F
 31+  C1DC             >        ORG $C000 + tileN*32 + 7*4 + 3
 32+  C1DF FF          >        DB $FF
 33+  C1E0             >tileN=tileN+1
 22+  C1E0             >        ORG $C000 + tileN*32
 23+  C1E0 FF          >        DB $FF
 24+  C1E1 F1          >        DB {b $ } | $F0
 25+  C1E2             >        ORG $C000 + tileN*32 + 1*4
 26+  C1E4 F4          >        DB {b $ } | $F0
 27+  C1E5             >        ORG $C000 + tileN*32 + 2*4
 28+  C1E8 F1          >        DB {b $ } | $F0
 29+  C1E9             >        ORG $C000 + tileN*32 + 6*4 + 3
 30+  C1FB 4F          >        DB {b $ } | $0F
 31+  C1FC             >        ORG $C000 + tileN*32 + 7*4 + 3
 32+  C1FF FF          >        DB $FF
 33+  C200             >tileN=tileN+1
 22+  C200             >        ORG $C000 + tileN*32
 23+  C200 FF          >        DB $FF
 24+  C201 F7          >        DB {b $ } | $F0
 25+  C202             >        ORG $C000 + tileN*32 + 1*4
 26+  C204 F1          >        DB {b $ } | $F0
 27+  C205             >        ORG $C000 + tileN*32 + 2*4
 28+  C208 F1          >        DB {b $ } | $F0
 29+  C209             >        ORG $C000 + tileN*32 + 6*4 + 3
 30+  C21B 4F          >        DB {b $ } | $0F
 31+  C21C             >        ORG $C000 + tileN*32 + 7*4 + 3
 32+  C21F FF          >        DB $FF
 33+  C220             >tileN=tileN+1
 22+  C220             >        ORG $C000 + tileN*32
 23+  C220 FF          >        DB $FF
 24+  C221 F1          >        DB {b $ } | $F0
 25+  C222             >        ORG $C000 + tileN*32 + 1*4
 26+  C224 F4          >        DB {b $ } | $F0
 27+  C225             >        ORG $C000 + tileN*32 + 2*4
 28+  C228 F1          >        DB {b $ } | $F0
 29+  C229             >        ORG $C000 + tileN*32 + 6*4 + 3
 30+  C23B 4F          >        DB {b $ } | $0F
 31+  C23C             >        ORG $C000 + tileN*32 + 7*4 + 3
 32+  C23F FF          >        DB $FF
 33+  C240             >tileN=tileN+1
 22+  C240             >        ORG $C000 + tileN*32
 23+  C240 FF          >        DB $FF
 24+  C241 F0          >        DB {b $ } | $F0
 25+  C242             >        ORG $C000 + tileN*32 + 1*4
 26+  C244 F0          >        DB {b $ } | $F0
 27+  C245             >        ORG $C000 + tileN*32 + 2*4
 28+  C248 F0          >        DB {b $ } | $F0
 29+  C249             >        ORG $C000 + tileN*32 + 6*4 + 3
 30+  C25B 9F          >        DB {b $ } | $0F
 31+  C25C             >        ORG $C000 + tileN*32 + 7*4 + 3
 32+  C25F FF          >        DB $FF
 33+  C260             >tileN=tileN+1
 22+  C260             >        ORG $C000 + tileN*32
 23+  C260 FF          >        DB $FF
 24+  C261 F9          >        DB {b $ } | $F0
 25+  C262             >        ORG $C000 + tileN*32 + 1*4
 26+  C264 F0          >        DB {b $ } | $F0
 27+  C265             >        ORG $C000 + tileN*32 + 2*4
 28+  C268 F0          >        DB {b $ } | $F0
 29+  C269             >        ORG $C000 + tileN*32 + 6*4 + 3
 30+  C27B 7F          >        DB {b $ } | $0F
 31+  C27C             >        ORG $C000 + tileN*32 + 7*4 + 3
 32+  C27F FF          >        DB $FF
 33+  C280             >tileN=tileN+1
 22+  C280             >        ORG $C000 + tileN*32
 23+  C280 FF          >        DB $FF
 24+  C281 F0          >        DB {b $ } | $F0
 25+  C282             >        ORG $C000 + tileN*32 + 1*4
 26+  C284 F0          >        DB {b $ } | $F0
 27+  C285             >        ORG $C000 + tileN*32 + 2*4
 28+  C288 F0          >        DB {b $ } | $F0
 29+  C289             >        ORG $C000 + tileN*32 + 6*4 + 3
 30+  C29B 0F          >        DB {b $ } | $0F
 31+  C29C             >        ORG $C000 + tileN*32 + 7*4 + 3
 32+  C29F FF          >        DB $FF
 33+  C2A0             >tileN=tileN+1
 22+  C2A0             >        ORG $C000 + tileN*32
 23+  C2A0 FF          >        DB $FF
 24+  C2A1 F0          >        DB {b $ } | $F0
 25+  C2A2             >        ORG $C000 + tileN*32 + 1*4
 26+  C2A4 F0          >        DB {b $ } | $F0
 27+  C2A5             >        ORG $C000 + tileN*32 + 2*4
 28+  C2A8 F0          >        DB {b $ } | $F0
 29+  C2A9             >        ORG $C000 + tileN*32 + 6*4 + 3
 30+  C2BB 7F          >        DB {b $ } | $0F
 31+  C2BC             >        ORG $C000 + tileN*32 + 7*4 + 3
 32+  C2BF FF          >        DB $FF
 33+  C2C0             >tileN=tileN+1
 22+  C2C0             >        ORG $C000 + tileN*32
 23+  C2C0 FF          >        DB $FF
 24+  C2C1 F0          >        DB {b $ } | $F0
 25+  C2C2             >        ORG $C000 + tileN*32 + 1*4
 26+  C2C4 F0          >        DB {b $ } | $F0
 27+  C2C5             >        ORG $C000 + tileN*32 + 2*4
 28+  C2C8 F0          >        DB {b $ } | $F0
 29+  C2C9             >        ORG $C000 + tileN*32 + 6*4 + 3
 30+  C2DB 0F          >        DB {b $ } | $0F
 31+  C2DC             >        ORG $C000 + tileN*32 + 7*4 + 3
 32+  C2DF FF          >        DB $FF
 33+  C2E0             >tileN=tileN+1
 22+  C2E0             >        ORG $C000 + tileN*32
 23+  C2E0 FF          >        DB $FF
 24+  C2E1 F0          >        DB {b $ } | $F0
 25+  C2E2             >        ORG $C000 + tileN*32 + 1*4
 26+  C2E4 F0          >        DB {b $ } | $F0
 27+  C2E5             >        ORG $C000 + tileN*32 + 2*4
 28+  C2E8 F0          >        DB {b $ } | $F0
 29+  C2E9             >        ORG $C000 + tileN*32 + 6*4 + 3
 30+  C2FB 0F          >        DB {b $ } | $0F
 31+  C2FC             >        ORG $C000 + tileN*32 + 7*4 + 3
 32+  C2FF FF          >        DB $FF
 33+  C300             >tileN=tileN+1
 22+  C300             >        ORG $C000 + tileN*32
 23+  C300 FF          >        DB $FF
 24+  C301 F0          >        DB {b $ } | $F0
 25+  C302             >        ORG $C000 + tileN*32 + 1*4
 26+  C304 F0          >        DB {b $ } | $F0
 27+  C305             >        ORG $C000 + tileN*32 + 2*4
 28+  C308 F0          >        DB {b $ } | $F0
 29+  C309             >        ORG $C000 + tileN*32 + 6*4 + 3
 30+  C31B 0F          >        DB {b $ } | $0F
 31+  C31C             >        ORG $C000 + tileN*32 + 7*4 + 3
 32+  C31F FF          >        DB $FF
 33+  C320             >tileN=tileN+1
 22+  C320             >        ORG $C000 + tileN*32
 23+  C320 FF          >        DB $FF
 24+  C321 F0          >        DB {b $ } | $F0
 25+  C322             >        ORG $C000 + tileN*32 + 1*4
 26+  C324 F0          >        DB {b $ } | $F0
 27+  C325             >        ORG $C000 + tileN*32 + 2*4
 28+  C328 F0          >        DB {b $ } | $F0
 29+  C329             >        ORG $C000 + tileN*32 + 6*4 + 3
 30+  C33B 0F          >        DB {b $ } | $0F
 31+  C33C             >        ORG $C000 + tileN*32 + 7*4 + 3
 32+  C33F FF          >        DB $FF
 33+  C340             >tileN=tileN+1
 22+  C340             >        ORG $C000 + tileN*32
 23+  C340 FF          >        DB $FF
 24+  C341 F0          >        DB {b $ } | $F0
 25+  C342             >        ORG $C000 + tileN*32 + 1*4
 26+  C344 F0          >        DB {b $ } | $F0
 27+  C345             >        ORG $C000 + tileN*32 + 2*4
 28+  C348 F0          >        DB {b $ } | $F0
 29+  C349             >        ORG $C000 + tileN*32 + 6*4 + 3
 30+  C35B 0F          >        DB {b $ } | $0F
 31+  C35C             >        ORG $C000 + tileN*32 + 7*4 + 3
 32+  C35F FF          >        DB $FF
 33+  C360             >tileN=tileN+1
 22+  C360             >        ORG $C000 + tileN*32
 23+  C360 FF          >        DB $FF
 24+  C361 F0          >        DB {b $ } | $F0
 25+  C362             >        ORG $C000 + tileN*32 + 1*4
 26+  C364 F0          >        DB {b $ } | $F0
 27+  C365             >        ORG $C000 + tileN*32 + 2*4
 28+  C368 F0          >        DB {b $ } | $F0
 29+  C369             >        ORG $C000 + tileN*32 + 6*4 + 3
 30+  C37B 0F          >        DB {b $ } | $0F
 31+  C37C             >        ORG $C000 + tileN*32 + 7*4 + 3
 32+  C37F FF          >        DB $FF
 33+  C380             >tileN=tileN+1
 22+  C380             >        ORG $C000 + tileN*32
 23+  C380 FF          >        DB $FF
 24+  C381 F0          >        DB {b $ } | $F0
 25+  C382             >        ORG $C000 + tileN*32 + 1*4
 26+  C384 F0          >        DB {b $ } | $F0
 27+  C385             >        ORG $C000 + tileN*32 + 2*4
 28+  C388 F0          >        DB {b $ } | $F0
 29+  C389             >        ORG $C000 + tileN*32 + 6*4 + 3
 30+  C39B 0F          >        DB {b $ } | $0F
 31+  C39C             >        ORG $C000 + tileN*32 + 7*4 + 3
 32+  C39F FF          >        DB $FF
 33+  C3A0             >tileN=tileN+1
 22+  C3A0             >        ORG $C000 + tileN*32
 23+  C3A0 FF          >        DB $FF
 24+  C3A1 F0          >        DB {b $ } | $F0
 25+  C3A2             >        ORG $C000 + tileN*32 + 1*4
 26+  C3A4 F0          >        DB {b $ } | $F0
 27+  C3A5             >        ORG $C000 + tileN*32 + 2*4
 28+  C3A8 F0          >        DB {b $ } | $F0
 29+  C3A9             >        ORG $C000 + tileN*32 + 6*4 + 3
 30+  C3BB 0F          >        DB {b $ } | $0F
 31+  C3BC             >        ORG $C000 + tileN*32 + 7*4 + 3
 32+  C3BF FF          >        DB $FF
 33+  C3C0             >tileN=tileN+1
 22+  C3C0             >        ORG $C000 + tileN*32
 23+  C3C0 FF          >        DB $FF
 24+  C3C1 F0          >        DB {b $ } | $F0
 25+  C3C2             >        ORG $C000 + tileN*32 + 1*4
 26+  C3C4 F0          >        DB {b $ } | $F0
 27+  C3C5             >        ORG $C000 + tileN*32 + 2*4
 28+  C3C8 F0          >        DB {b $ } | $F0
 29+  C3C9             >        ORG $C000 + tileN*32 + 6*4 + 3
 30+  C3DB 0F          >        DB {b $ } | $0F
 31+  C3DC             >        ORG $C000 + tileN*32 + 7*4 + 3
 32+  C3DF FF          >        DB $FF
 33+  C3E0             >tileN=tileN+1
 22+  C3E0             >        ORG $C000 + tileN*32
 23+  C3E0 FF          >        DB $FF
 24+  C3E1 F0          >        DB {b $ } | $F0
 25+  C3E2             >        ORG $C000 + tileN*32 + 1*4
 26+  C3E4 F0          >        DB {b $ } | $F0
 27+  C3E5             >        ORG $C000 + tileN*32 + 2*4
 28+  C3E8 F0          >        DB {b $ } | $F0
 29+  C3E9             >        ORG $C000 + tileN*32 + 6*4 + 3
 30+  C3FB 0F          >        DB {b $ } | $0F
 31+  C3FC             >        ORG $C000 + tileN*32 + 7*4 + 3
 32+  C3FF FF          >        DB $FF
 33+  C400             >tileN=tileN+1
 22+  C400             >        ORG $C000 + tileN*32
 23+  C400 FF          >        DB $FF
 24+  C401 F0          >        DB {b $ } | $F0
 25+  C402             >        ORG $C000 + tileN*32 + 1*4
 26+  C404 F0          >        DB {b $ } | $F0
 27+  C405             >        ORG $C000 + tileN*32 + 2*4
 28+  C408 F0          >        DB {b $ } | $F0
 29+  C409             >        ORG $C000 + tileN*32 + 6*4 + 3
 30+  C41B 0F          >        DB {b $ } | $0F
 31+  C41C             >        ORG $C000 + tileN*32 + 7*4 + 3
 32+  C41F FF          >        DB $FF
 33+  C420             >tileN=tileN+1
 22+  C420             >        ORG $C000 + tileN*32
 23+  C420 FF          >        DB $FF
 24+  C421 F0          >        DB {b $ } | $F0
 25+  C422             >        ORG $C000 + tileN*32 + 1*4
 26+  C424 F0          >        DB {b $ } | $F0
 27+  C425             >        ORG $C000 + tileN*32 + 2*4
 28+  C428 F0          >        DB {b $ } | $F0
 29+  C429             >        ORG $C000 + tileN*32 + 6*4 + 3
 30+  C43B 0F          >        DB {b $ } | $0F
 31+  C43C             >        ORG $C000 + tileN*32 + 7*4 + 3
 32+  C43F FF          >        DB $FF
 33+  C440             >tileN=tileN+1
 22+  C440             >        ORG $C000 + tileN*32
 23+  C440 FF          >        DB $FF
 24+  C441 F7          >        DB {b $ } | $F0
 25+  C442             >        ORG $C000 + tileN*32 + 1*4
 26+  C444 F0          >        DB {b $ } | $F0
 27+  C445             >        ORG $C000 + tileN*32 + 2*4
 28+  C448 F0          >        DB {b $ } | $F0
 29+  C449             >        ORG $C000 + tileN*32 + 6*4 + 3
 30+  C45B 4F          >        DB {b $ } | $0F
 31+  C45C             >        ORG $C000 + tileN*32 + 7*4 + 3
 32+  C45F FF          >        DB $FF
 33+  C460             >tileN=tileN+1
 22+  C460             >        ORG $C000 + tileN*32
 23+  C460 FF          >        DB $FF
 24+  C461 F4          >        DB {b $ } | $F0
 25+  C462             >        ORG $C000 + tileN*32 + 1*4
 26+  C464 F7          >        DB {b $ } | $F0
 27+  C465             >        ORG $C000 + tileN*32 + 2*4
 28+  C468 F7          >        DB {b $ } | $F0
 29+  C469             >        ORG $C000 + tileN*32 + 6*4 + 3
 30+  C47B 1F          >        DB {b $ } | $0F
 31+  C47C             >        ORG $C000 + tileN*32 + 7*4 + 3
 32+  C47F FF          >        DB $FF
 33+  C480             >tileN=tileN+1
 22+  C480             >        ORG $C000 + tileN*32
 23+  C480 FF          >        DB $FF
 24+  C481 FA          >        DB {b $ } | $F0
 25+  C482             >        ORG $C000 + tileN*32 + 1*4
 26+  C484 F0          >        DB {b $ } | $F0
 27+  C485             >        ORG $C000 + tileN*32 + 2*4
 28+  C488 F0          >        DB {b $ } | $F0
 29+  C489             >        ORG $C000 + tileN*32 + 6*4 + 3
 30+  C49B 3F          >        DB {b $ } | $0F
 31+  C49C             >        ORG $C000 + tileN*32 + 7*4 + 3
 32+  C49F FF          >        DB $FF
 33+  C4A0             >tileN=tileN+1
 22+  C4A0             >        ORG $C000 + tileN*32
 23+  C4A0 FF          >        DB $FF
 24+  C4A1 F6          >        DB {b $ } | $F0
 25+  C4A2             >        ORG $C000 + tileN*32 + 1*4
 26+  C4A4 FA          >        DB {b $ } | $F0
 27+  C4A5             >        ORG $C000 + tileN*32 + 2*4
 28+  C4A8 F6          >        DB {b $ } | $F0
 29+  C4A9             >        ORG $C000 + tileN*32 + 6*4 + 3
 30+  C4BB 3F          >        DB {b $ } | $0F
 31+  C4BC             >        ORG $C000 + tileN*32 + 7*4 + 3
 32+  C4BF FF          >        DB $FF
 33+  C4C0             >tileN=tileN+1
 22+  C4C0             >        ORG $C000 + tileN*32
 23+  C4C0 FF          >        DB $FF
 24+  C4C1 F7          >        DB {b $ } | $F0
 25+  C4C2             >        ORG $C000 + tileN*32 + 1*4
 26+  C4C4 F1          >        DB {b $ } | $F0
 27+  C4C5             >        ORG $C000 + tileN*32 + 2*4
 28+  C4C8 F1          >        DB {b $ } | $F0
 29+  C4C9             >        ORG $C000 + tileN*32 + 6*4 + 3
 30+  C4DB 1F          >        DB {b $ } | $0F
 31+  C4DC             >        ORG $C000 + tileN*32 + 7*4 + 3
 32+  C4DF FF          >        DB $FF
 33+  C4E0             >tileN=tileN+1
 22+  C4E0             >        ORG $C000 + tileN*32
 23+  C4E0 FF          >        DB $FF
 24+  C4E1 F1          >        DB {b $ } | $F0
 25+  C4E2             >        ORG $C000 + tileN*32 + 1*4
 26+  C4E4 F1          >        DB {b $ } | $F0
 27+  C4E5             >        ORG $C000 + tileN*32 + 2*4
 28+  C4E8 F1          >        DB {b $ } | $F0
 29+  C4E9             >        ORG $C000 + tileN*32 + 6*4 + 3
 30+  C4FB 7F          >        DB {b $ } | $0F
 31+  C4FC             >        ORG $C000 + tileN*32 + 7*4 + 3
 32+  C4FF FF          >        DB $FF
 33+  C500             >tileN=tileN+1
 22+  C500             >        ORG $C000 + tileN*32
 23+  C500 FF          >        DB $FF
 24+  C501 F6          >        DB {b $ } | $F0
 25+  C502             >        ORG $C000 + tileN*32 + 1*4
 26+  C504 F6          >        DB {b $ } | $F0
 27+  C505             >        ORG $C000 + tileN*32 + 2*4
 28+  C508 F6          >        DB {b $ } | $F0
 29+  C509             >        ORG $C000 + tileN*32 + 6*4 + 3
 30+  C51B AF          >        DB {b $ } | $0F
 31+  C51C             >        ORG $C000 + tileN*32 + 7*4 + 3
 32+  C51F FF          >        DB $FF
 33+  C520             >tileN=tileN+1
 22+  C520             >        ORG $C000 + tileN*32
 23+  C520 FF          >        DB $FF
 24+  C521 F6          >        DB {b $ } | $F0
 25+  C522             >        ORG $C000 + tileN*32 + 1*4
 26+  C524 FA          >        DB {b $ } | $F0
 27+  C525             >        ORG $C000 + tileN*32 + 2*4
 28+  C528 FD          >        DB {b $ } | $F0
 29+  C529             >        ORG $C000 + tileN*32 + 6*4 + 3
 30+  C53B AF          >        DB {b $ } | $0F
 31+  C53C             >        ORG $C000 + tileN*32 + 7*4 + 3
 32+  C53F FF          >        DB $FF
 33+  C540             >tileN=tileN+1
 22+  C540             >        ORG $C000 + tileN*32
 23+  C540 FF          >        DB $FF
 24+  C541 FD          >        DB {b $ } | $F0
 25+  C542             >        ORG $C000 + tileN*32 + 1*4
 26+  C544 F3          >        DB {b $ } | $F0
 27+  C545             >        ORG $C000 + tileN*32 + 2*4
 28+  C548 F2          >        DB {b $ } | $F0
 29+  C549             >        ORG $C000 + tileN*32 + 6*4 + 3
 30+  C55B 3F          >        DB {b $ } | $0F
 31+  C55C             >        ORG $C000 + tileN*32 + 7*4 + 3
 32+  C55F FF          >        DB $FF
 33+  C560             >tileN=tileN+1
 22+  C560             >        ORG $C000 + tileN*32
 23+  C560 FF          >        DB $FF
 24+  C561 FA          >        DB {b $ } | $F0
 25+  C562             >        ORG $C000 + tileN*32 + 1*4
 26+  C564 FA          >        DB {b $ } | $F0
 27+  C565             >        ORG $C000 + tileN*32 + 2*4
 28+  C568 FA          >        DB {b $ } | $F0
 29+  C569             >        ORG $C000 + tileN*32 + 6*4 + 3
 30+  C57B 2F          >        DB {b $ } | $0F
 31+  C57C             >        ORG $C000 + tileN*32 + 7*4 + 3
 32+  C57F FF          >        DB $FF
 33+  C580             >tileN=tileN+1
 22+  C580             >        ORG $C000 + tileN*32
 23+  C580 FF          >        DB $FF
 24+  C581 F2          >        DB {b $ } | $F0
 25+  C582             >        ORG $C000 + tileN*32 + 1*4
 26+  C584 F2          >        DB {b $ } | $F0
 27+  C585             >        ORG $C000 + tileN*32 + 2*4
 28+  C588 F2          >        DB {b $ } | $F0
 29+  C589             >        ORG $C000 + tileN*32 + 6*4 + 3
 30+  C59B AF          >        DB {b $ } | $0F
 31+  C59C             >        ORG $C000 + tileN*32 + 7*4 + 3
 32+  C59F FF          >        DB $FF
 33+  C5A0             >tileN=tileN+1
 22+  C5A0             >        ORG $C000 + tileN*32
 23+  C5A0 FF          >        DB $FF
 24+  C5A1 F6          >        DB {b $ } | $F0
 25+  C5A2             >        ORG $C000 + tileN*32 + 1*4
 26+  C5A4 F3          >        DB {b $ } | $F0
 27+  C5A5             >        ORG $C000 + tileN*32 + 2*4
 28+  C5A8 F6          >        DB {b $ } | $F0
 29+  C5A9             >        ORG $C000 + tileN*32 + 6*4 + 3
 30+  C5BB 6F          >        DB {b $ } | $0F
 31+  C5BC             >        ORG $C000 + tileN*32 + 7*4 + 3
 32+  C5BF FF          >        DB $FF
 33+  C5C0             >tileN=tileN+1
 22+  C5C0             >        ORG $C000 + tileN*32
 23+  C5C0 FF          >        DB $FF
 24+  C5C1 F7          >        DB {b $ } | $F0
 25+  C5C2             >        ORG $C000 + tileN*32 + 1*4
 26+  C5C4 F1          >        DB {b $ } | $F0
 27+  C5C5             >        ORG $C000 + tileN*32 + 2*4
 28+  C5C8 F1          >        DB {b $ } | $F0
 29+  C5C9             >        ORG $C000 + tileN*32 + 6*4 + 3
 30+  C5DB 1F          >        DB {b $ } | $0F
 31+  C5DC             >        ORG $C000 + tileN*32 + 7*4 + 3
 32+  C5DF FF          >        DB $FF
 33+  C5E0             >tileN=tileN+1
 22+  C5E0             >        ORG $C000 + tileN*32
 23+  C5E0 FF          >        DB $FF
 24+  C5E1 F1          >        DB {b $ } | $F0
 25+  C5E2             >        ORG $C000 + tileN*32 + 1*4
 26+  C5E4 F1          >        DB {b $ } | $F0
 27+  C5E5             >        ORG $C000 + tileN*32 + 2*4
 28+  C5E8 F1          >        DB {b $ } | $F0
 29+  C5E9             >        ORG $C000 + tileN*32 + 6*4 + 3
 30+  C5FB 7F          >        DB {b $ } | $0F
 31+  C5FC             >        ORG $C000 + tileN*32 + 7*4 + 3
 32+  C5FF FF          >        DB $FF
 33+  C600             >tileN=tileN+1
 22+  C600             >        ORG $C000 + tileN*32
 23+  C600 FF          >        DB $FF
 24+  C601 F7          >        DB {b $ } | $F0
 25+  C602             >        ORG $C000 + tileN*32 + 1*4
 26+  C604 F1          >        DB {b $ } | $F0
 27+  C605             >        ORG $C000 + tileN*32 + 2*4
 28+  C608 F1          >        DB {b $ } | $F0
 29+  C609             >        ORG $C000 + tileN*32 + 6*4 + 3
 30+  C61B 1F          >        DB {b $ } | $0F
 31+  C61C             >        ORG $C000 + tileN*32 + 7*4 + 3
 32+  C61F FF          >        DB $FF
 33+  C620             >tileN=tileN+1
 22+  C620             >        ORG $C000 + tileN*32
 23+  C620 FF          >        DB $FF
 24+  C621 F1          >        DB {b $ } | $F0
 25+  C622             >        ORG $C000 + tileN*32 + 1*4
 26+  C624 F1          >        DB {b $ } | $F0
 27+  C625             >        ORG $C000 + tileN*32 + 2*4
 28+  C628 F1          >        DB {b $ } | $F0
 29+  C629             >        ORG $C000 + tileN*32 + 6*4 + 3
 30+  C63B 7F          >        DB {b $ } | $0F
 31+  C63C             >        ORG $C000 + tileN*32 + 7*4 + 3
 32+  C63F FF          >        DB $FF
 33+  C640             >tileN=tileN+1
 22+  C640             >        ORG $C000 + tileN*32
 23+  C640 FF          >        DB $FF
 24+  C641 F9          >        DB {b $ } | $F0
 25+  C642             >        ORG $C000 + tileN*32 + 1*4
 26+  C644 F7          >        DB {b $ } | $F0
 27+  C645             >        ORG $C000 + tileN*32 + 2*4
 28+  C648 F7          >        DB {b $ } | $F0
 29+  C649             >        ORG $C000 + tileN*32 + 6*4 + 3
 30+  C65B 1F          >        DB {b $ } | $0F
 31+  C65C             >        ORG $C000 + tileN*32 + 7*4 + 3
 32+  C65F FF          >        DB $FF
 33+  C660             >tileN=tileN+1
 22+  C660             >        ORG $C000 + tileN*32
 23+  C660 FF          >        DB $FF
 24+  C661 F1          >        DB {b $ } | $F0
 25+  C662             >        ORG $C000 + tileN*32 + 1*4
 26+  C664 F4          >        DB {b $ } | $F0
 27+  C665             >        ORG $C000 + tileN*32 + 2*4
 28+  C668 F4          >        DB {b $ } | $F0
 29+  C669             >        ORG $C000 + tileN*32 + 6*4 + 3
 30+  C67B 7F          >        DB {b $ } | $0F
 31+  C67C             >        ORG $C000 + tileN*32 + 7*4 + 3
 32+  C67F FF          >        DB $FF
 33+  C680             >tileN=tileN+1
 22+  C680             >        ORG $C000 + tileN*32
 23+  C680 FF          >        DB $FF
 24+  C681 F7          >        DB {b $ } | $F0
 25+  C682             >        ORG $C000 + tileN*32 + 1*4
 26+  C684 FB          >        DB {b $ } | $F0
 27+  C685             >        ORG $C000 + tileN*32 + 2*4
 28+  C688 F7          >        DB {b $ } | $F0
 29+  C689             >        ORG $C000 + tileN*32 + 6*4 + 3
 30+  C69B 7F          >        DB {b $ } | $0F
 31+  C69C             >        ORG $C000 + tileN*32 + 7*4 + 3
 32+  C69F FF          >        DB $FF
 33+  C6A0             >tileN=tileN+1
 22+  C6A0             >        ORG $C000 + tileN*32
 23+  C6A0 FF          >        DB $FF
 24+  C6A1 FB          >        DB {b $ } | $F0
 25+  C6A2             >        ORG $C000 + tileN*32 + 1*4
 26+  C6A4 F9          >        DB {b $ } | $F0
 27+  C6A5             >        ORG $C000 + tileN*32 + 2*4
 28+  C6A8 F9          >        DB {b $ } | $F0
 29+  C6A9             >        ORG $C000 + tileN*32 + 6*4 + 3
 30+  C6BB 1F          >        DB {b $ } | $0F
 31+  C6BC             >        ORG $C000 + tileN*32 + 7*4 + 3
 32+  C6BF FF          >        DB $FF
 33+  C6C0             >tileN=tileN+1
 22+  C6C0             >        ORG $C000 + tileN*32
 23+  C6C0 FF          >        DB $FF
 24+  C6C1 F0          >        DB {b $ } | $F0
 25+  C6C2             >        ORG $C000 + tileN*32 + 1*4
 26+  C6C4 F0          >        DB {b $ } | $F0
 27+  C6C5             >        ORG $C000 + tileN*32 + 2*4
 28+  C6C8 F0          >        DB {b $ } | $F0
 29+  C6C9             >        ORG $C000 + tileN*32 + 6*4 + 3
 30+  C6DB 0F          >        DB {b $ } | $0F
 31+  C6DC             >        ORG $C000 + tileN*32 + 7*4 + 3
 32+  C6DF FF          >        DB $FF
 33+  C6E0             >tileN=tileN+1
 22+  C6E0             >        ORG $C000 + tileN*32
 23+  C6E0 FF          >        DB $FF
 24+  C6E1 F0          >        DB {b $ } | $F0
 25+  C6E2             >        ORG $C000 + tileN*32 + 1*4
 26+  C6E4 F0          >        DB {b $ } | $F0
 27+  C6E5             >        ORG $C000 + tileN*32 + 2*4
 28+  C6E8 F0          >        DB {b $ } | $F0
 29+  C6E9             >        ORG $C000 + tileN*32 + 6*4 + 3
 30+  C6FB 0F          >        DB {b $ } | $0F
 31+  C6FC             >        ORG $C000 + tileN*32 + 7*4 + 3
 32+  C6FF FF          >        DB $FF
 33+  C700             >tileN=tileN+1
 22+  C700             >        ORG $C000 + tileN*32
 23+  C700 FF          >        DB $FF
 24+  C701 F0          >        DB {b $ } | $F0
 25+  C702             >        ORG $C000 + tileN*32 + 1*4
 26+  C704 F0          >        DB {b $ } | $F0
 27+  C705             >        ORG $C000 + tileN*32 + 2*4
 28+  C708 F0          >        DB {b $ } | $F0
 29+  C709             >        ORG $C000 + tileN*32 + 6*4 + 3
 30+  C71B 0F          >        DB {b $ } | $0F
 31+  C71C             >        ORG $C000 + tileN*32 + 7*4 + 3
 32+  C71F FF          >        DB $FF
 33+  C720             >tileN=tileN+1
 22+  C720             >        ORG $C000 + tileN*32
 23+  C720 FF          >        DB $FF
 24+  C721 F0          >        DB {b $ } | $F0
 25+  C722             >        ORG $C000 + tileN*32 + 1*4
 26+  C724 F0          >        DB {b $ } | $F0
 27+  C725             >        ORG $C000 + tileN*32 + 2*4
 28+  C728 F0          >        DB {b $ } | $F0
 29+  C729             >        ORG $C000 + tileN*32 + 6*4 + 3
 30+  C73B 0F          >        DB {b $ } | $0F
 31+  C73C             >        ORG $C000 + tileN*32 + 7*4 + 3
 32+  C73F FF          >        DB $FF
 33+  C740             >tileN=tileN+1
 22+  C740             >        ORG $C000 + tileN*32
 23+  C740 FF          >        DB $FF
 24+  C741 F0          >        DB {b $ } | $F0
 25+  C742             >        ORG $C000 + tileN*32 + 1*4
 26+  C744 F0          >        DB {b $ } | $F0
 27+  C745             >        ORG $C000 + tileN*32 + 2*4
 28+  C748 F0          >        DB {b $ } | $F0
 29+  C749             >        ORG $C000 + tileN*32 + 6*4 + 3
 30+  C75B 0F          >        DB {b $ } | $0F
 31+  C75C             >        ORG $C000 + tileN*32 + 7*4 + 3
 32+  C75F FF          >        DB $FF
 33+  C760             >tileN=tileN+1
 22+  C760             >        ORG $C000 + tileN*32
 23+  C760 FF          >        DB $FF
 24+  C761 F0          >        DB {b $ } | $F0
 25+  C762             >        ORG $C000 + tileN*32 + 1*4
 26+  C764 F0          >        DB {b $ } | $F0
 27+  C765             >        ORG $C000 + tileN*32 + 2*4
 28+  C768 F0          >        DB {b $ } | $F0
 29+  C769             >        ORG $C000 + tileN*32 + 6*4 + 3
 30+  C77B 0F          >        DB {b $ } | $0F
 31+  C77C             >        ORG $C000 + tileN*32 + 7*4 + 3
 32+  C77F FF          >        DB $FF
 33+  C780             >tileN=tileN+1
 22+  C780             >        ORG $C000 + tileN*32
 23+  C780 FF          >        DB $FF
 24+  C781 F0          >        DB {b $ } | $F0
 25+  C782             >        ORG $C000 + tileN*32 + 1*4
 26+  C784 F0          >        DB {b $ } | $F0
 27+  C785             >        ORG $C000 + tileN*32 + 2*4
 28+  C788 F0          >        DB {b $ } | $F0
 29+  C789             >        ORG $C000 + tileN*32 + 6*4 + 3
 30+  C79B 0F          >        DB {b $ } | $0F
 31+  C79C             >        ORG $C000 + tileN*32 + 7*4 + 3
 32+  C79F FF          >        DB $FF
 33+  C7A0             >tileN=tileN+1
 22+  C7A0             >        ORG $C000 + tileN*32
 23+  C7A0 FF          >        DB $FF
 24+  C7A1 F0          >        DB {b $ } | $F0
 25+  C7A2             >        ORG $C000 + tileN*32 + 1*4
 26+  C7A4 F0          >        DB {b $ } | $F0
 27+  C7A5             >        ORG $C000 + tileN*32 + 2*4
 28+  C7A8 F0          >        DB {b $ } | $F0
 29+  C7A9             >        ORG $C000 + tileN*32 + 6*4 + 3
 30+  C7BB 0F          >        DB {b $ } | $0F
 31+  C7BC             >        ORG $C000 + tileN*32 + 7*4 + 3
 32+  C7BF FF          >        DB $FF
 33+  C7C0             >tileN=tileN+1
 22+  C7C0             >        ORG $C000 + tileN*32
 23+  C7C0 FF          >        DB $FF
 24+  C7C1 F0          >        DB {b $ } | $F0
 25+  C7C2             >        ORG $C000 + tileN*32 + 1*4
 26+  C7C4 F0          >        DB {b $ } | $F0
 27+  C7C5             >        ORG $C000 + tileN*32 + 2*4
 28+  C7C8 F0          >        DB {b $ } | $F0
 29+  C7C9             >        ORG $C000 + tileN*32 + 6*4 + 3
 30+  C7DB 0F          >        DB {b $ } | $0F
 31+  C7DC             >        ORG $C000 + tileN*32 + 7*4 + 3
 32+  C7DF FF          >        DB $FF
 33+  C7E0             >tileN=tileN+1
 22+  C7E0             >        ORG $C000 + tileN*32
 23+  C7E0 FF          >        DB $FF
 24+  C7E1 F0          >        DB {b $ } | $F0
 25+  C7E2             >        ORG $C000 + tileN*32 + 1*4
 26+  C7E4 F0          >        DB {b $ } | $F0
 27+  C7E5             >        ORG $C000 + tileN*32 + 2*4
 28+  C7E8 F0          >        DB {b $ } | $F0
 29+  C7E9             >        ORG $C000 + tileN*32 + 6*4 + 3
 30+  C7FB 0F          >        DB {b $ } | $0F
 31+  C7FC             >        ORG $C000 + tileN*32 + 7*4 + 3
 32+  C7FF FF          >        DB $FF
 33+  C800             >tileN=tileN+1
 22+  C800             >        ORG $C000 + tileN*32
 23+  C800 FF          >        DB $FF
 24+  C801 FC          >        DB {b $ } | $F0
 25+  C802             >        ORG $C000 + tileN*32 + 1*4
 26+  C804 F0          >        DB {b $ } | $F0
 27+  C805             >        ORG $C000 + tileN*32 + 2*4
 28+  C808 F0          >        DB {b $ } | $F0
 29+  C809             >        ORG $C000 + tileN*32 + 6*4 + 3
 30+  C81B 0F          >        DB {b $ } | $0F
 31+  C81C             >        ORG $C000 + tileN*32 + 7*4 + 3
 32+  C81F FF          >        DB $FF
 33+  C820             >tileN=tileN+1
 22+  C820             >        ORG $C000 + tileN*32
 23+  C820 FF          >        DB $FF
 24+  C821 FC          >        DB {b $ } | $F0
 25+  C822             >        ORG $C000 + tileN*32 + 1*4
 26+  C824 F0          >        DB {b $ } | $F0
 27+  C825             >        ORG $C000 + tileN*32 + 2*4
 28+  C828 F0          >        DB {b $ } | $F0
 29+  C829             >        ORG $C000 + tileN*32 + 6*4 + 3
 30+  C83B 0F          >        DB {b $ } | $0F
 31+  C83C             >        ORG $C000 + tileN*32 + 7*4 + 3
 32+  C83F FF          >        DB $FF
 33+  C840             >tileN=tileN+1
 22+  C840             >        ORG $C000 + tileN*32
 23+  C840 FF          >        DB $FF
 24+  C841 F7          >        DB {b $ } | $F0
 25+  C842             >        ORG $C000 + tileN*32 + 1*4
 26+  C844 F7          >        DB {b $ } | $F0
 27+  C845             >        ORG $C000 + tileN*32 + 2*4
 28+  C848 F7          >        DB {b $ } | $F0
 29+  C849             >        ORG $C000 + tileN*32 + 6*4 + 3
 30+  C85B 1F          >        DB {b $ } | $0F
 31+  C85C             >        ORG $C000 + tileN*32 + 7*4 + 3
 32+  C85F FF          >        DB $FF
 33+  C860             >tileN=tileN+1
 22+  C860             >        ORG $C000 + tileN*32
 23+  C860 FF          >        DB $FF
 24+  C861 F1          >        DB {b $ } | $F0
 25+  C862             >        ORG $C000 + tileN*32 + 1*4
 26+  C864 F4          >        DB {b $ } | $F0
 27+  C865             >        ORG $C000 + tileN*32 + 2*4
 28+  C868 F9          >        DB {b $ } | $F0
 29+  C869             >        ORG $C000 + tileN*32 + 6*4 + 3
 30+  C87B BF          >        DB {b $ } | $0F
 31+  C87C             >        ORG $C000 + tileN*32 + 7*4 + 3
 32+  C87F FF          >        DB $FF
 33+  C880             >tileN=tileN+1
 22+  C880             >        ORG $C000 + tileN*32
 23+  C880 FF          >        DB $FF
 24+  C881 F3          >        DB {b $ } | $F0
 25+  C882             >        ORG $C000 + tileN*32 + 1*4
 26+  C884 F0          >        DB {b $ } | $F0
 27+  C885             >        ORG $C000 + tileN*32 + 2*4
 28+  C888 F3          >        DB {b $ } | $F0
 29+  C889             >        ORG $C000 + tileN*32 + 6*4 + 3
 30+  C89B 3F          >        DB {b $ } | $0F
 31+  C89C             >        ORG $C000 + tileN*32 + 7*4 + 3
 32+  C89F FF          >        DB $FF
 33+  C8A0             >tileN=tileN+1
 22+  C8A0             >        ORG $C000 + tileN*32
 23+  C8A0 FF          >        DB $FF
 24+  C8A1 F6          >        DB {b $ } | $F0
 25+  C8A2             >        ORG $C000 + tileN*32 + 1*4
 26+  C8A4 F6          >        DB {b $ } | $F0
 27+  C8A5             >        ORG $C000 + tileN*32 + 2*4
 28+  C8A8 F6          >        DB {b $ } | $F0
 29+  C8A9             >        ORG $C000 + tileN*32 + 6*4 + 3
 30+  C8BB 3F          >        DB {b $ } | $0F
 31+  C8BC             >        ORG $C000 + tileN*32 + 7*4 + 3
 32+  C8BF FF          >        DB $FF
 33+  C8C0             >tileN=tileN+1
 22+  C8C0             >        ORG $C000 + tileN*32
 23+  C8C0 FF          >        DB $FF
 24+  C8C1 F4          >        DB {b $ } | $F0
 25+  C8C2             >        ORG $C000 + tileN*32 + 1*4
 26+  C8C4 F1          >        DB {b $ } | $F0
 27+  C8C5             >        ORG $C000 + tileN*32 + 2*4
 28+  C8C8 F4          >        DB {b $ } | $F0
 29+  C8C9             >        ORG $C000 + tileN*32 + 6*4 + 3
 30+  C8DB 7F          >        DB {b $ } | $0F
 31+  C8DC             >        ORG $C000 + tileN*32 + 7*4 + 3
 32+  C8DF FF          >        DB $FF
 33+  C8E0             >tileN=tileN+1
 22+  C8E0             >        ORG $C000 + tileN*32
 23+  C8E0 FF          >        DB $FF
 24+  C8E1 F4          >        DB {b $ } | $F0
 25+  C8E2             >        ORG $C000 + tileN*32 + 1*4
 26+  C8E4 F1          >        DB {b $ } | $F0
 27+  C8E5             >        ORG $C000 + tileN*32 + 2*4
 28+  C8E8 F4          >        DB {b $ } | $F0
 29+  C8E9             >        ORG $C000 + tileN*32 + 6*4 + 3
 30+  C8FB 7F          >        DB {b $ } | $0F
 31+  C8FC             >        ORG $C000 + tileN*32 + 7*4 + 3
 32+  C8FF FF          >        DB $FF
 33+  C900             >tileN=tileN+1
 22+  C900             >        ORG $C000 + tileN*32
 23+  C900 FF          >        DB $FF
 24+  C901 FD          >        DB {b $ } | $F0
 25+  C902             >        ORG $C000 + tileN*32 + 1*4
 26+  C904 F6          >        DB {b $ } | $F0
 27+  C905             >        ORG $C000 + tileN*32 + 2*4
 28+  C908 F3          >        DB {b $ } | $F0
 29+  C909             >        ORG $C000 + tileN*32 + 6*4 + 3
 30+  C91B AF          >        DB {b $ } | $0F
 31+  C91C             >        ORG $C000 + tileN*32 + 7*4 + 3
 32+  C91F FF          >        DB $FF
 33+  C920             >tileN=tileN+1
 22+  C920             >        ORG $C000 + tileN*32
 23+  C920 FF          >        DB $FF
 24+  C921 FD          >        DB {b $ } | $F0
 25+  C922             >        ORG $C000 + tileN*32 + 1*4
 26+  C924 FD          >        DB {b $ } | $F0
 27+  C925             >        ORG $C000 + tileN*32 + 2*4
 28+  C928 FA          >        DB {b $ } | $F0
 29+  C929             >        ORG $C000 + tileN*32 + 6*4 + 3
 30+  C93B 6F          >        DB {b $ } | $0F
 31+  C93C             >        ORG $C000 + tileN*32 + 7*4 + 3
 32+  C93F FF          >        DB $FF
 33+  C940             >tileN=tileN+1
 22+  C940             >        ORG $C000 + tileN*32
 23+  C940 FF          >        DB $FF
 24+  C941 F3          >        DB {b $ } | $F0
 25+  C942             >        ORG $C000 + tileN*32 + 1*4
 26+  C944 F0          >        DB {b $ } | $F0
 27+  C945             >        ORG $C000 + tileN*32 + 2*4
 28+  C948 F3          >        DB {b $ } | $F0
 29+  C949             >        ORG $C000 + tileN*32 + 6*4 + 3
 30+  C95B 3F          >        DB {b $ } | $0F
 31+  C95C             >        ORG $C000 + tileN*32 + 7*4 + 3
 32+  C95F FF          >        DB $FF
 33+  C960             >tileN=tileN+1
 22+  C960             >        ORG $C000 + tileN*32
 23+  C960 FF          >        DB $FF
 24+  C961 F6          >        DB {b $ } | $F0
 25+  C962             >        ORG $C000 + tileN*32 + 1*4
 26+  C964 F6          >        DB {b $ } | $F0
 27+  C965             >        ORG $C000 + tileN*32 + 2*4
 28+  C968 F6          >        DB {b $ } | $F0
 29+  C969             >        ORG $C000 + tileN*32 + 6*4 + 3
 30+  C97B 3F          >        DB {b $ } | $0F
 31+  C97C             >        ORG $C000 + tileN*32 + 7*4 + 3
 32+  C97F FF          >        DB $FF
 33+  C980             >tileN=tileN+1
 22+  C980             >        ORG $C000 + tileN*32
 23+  C980 FF          >        DB $FF
 24+  C981 F6          >        DB {b $ } | $F0
 25+  C982             >        ORG $C000 + tileN*32 + 1*4
 26+  C984 F6          >        DB {b $ } | $F0
 27+  C985             >        ORG $C000 + tileN*32 + 2*4
 28+  C988 F2          >        DB {b $ } | $F0
 29+  C989             >        ORG $C000 + tileN*32 + 6*4 + 3
 30+  C99B DF          >        DB {b $ } | $0F
 31+  C99C             >        ORG $C000 + tileN*32 + 7*4 + 3
 32+  C99F FF          >        DB $FF
 33+  C9A0             >tileN=tileN+1
 22+  C9A0             >        ORG $C000 + tileN*32
 23+  C9A0 FF          >        DB $FF
 24+  C9A1 F3          >        DB {b $ } | $F0
 25+  C9A2             >        ORG $C000 + tileN*32 + 1*4
 26+  C9A4 F3          >        DB {b $ } | $F0
 27+  C9A5             >        ORG $C000 + tileN*32 + 2*4
 28+  C9A8 FD          >        DB {b $ } | $F0
 29+  C9A9             >        ORG $C000 + tileN*32 + 6*4 + 3
 30+  C9BB DF          >        DB {b $ } | $0F
 31+  C9BC             >        ORG $C000 + tileN*32 + 7*4 + 3
 32+  C9BF FF          >        DB $FF
 33+  C9C0             >tileN=tileN+1
 22+  C9C0             >        ORG $C000 + tileN*32
 23+  C9C0 FF          >        DB $FF
 24+  C9C1 F4          >        DB {b $ } | $F0
 25+  C9C2             >        ORG $C000 + tileN*32 + 1*4
 26+  C9C4 F9          >        DB {b $ } | $F0
 27+  C9C5             >        ORG $C000 + tileN*32 + 2*4
 28+  C9C8 F1          >        DB {b $ } | $F0
 29+  C9C9             >        ORG $C000 + tileN*32 + 6*4 + 3
 30+  C9DB 7F          >        DB {b $ } | $0F
 31+  C9DC             >        ORG $C000 + tileN*32 + 7*4 + 3
 32+  C9DF FF          >        DB $FF
 33+  C9E0             >tileN=tileN+1
 22+  C9E0             >        ORG $C000 + tileN*32
 23+  C9E0 FF          >        DB $FF
 24+  C9E1 F1          >        DB {b $ } | $F0
 25+  C9E2             >        ORG $C000 + tileN*32 + 1*4
 26+  C9E4 F1          >        DB {b $ } | $F0
 27+  C9E5             >        ORG $C000 + tileN*32 + 2*4
 28+  C9E8 F1          >        DB {b $ } | $F0
 29+  C9E9             >        ORG $C000 + tileN*32 + 6*4 + 3
 30+  C9FB 4F          >        DB {b $ } | $0F
 31+  C9FC             >        ORG $C000 + tileN*32 + 7*4 + 3
 32+  C9FF FF          >        DB $FF
 33+  CA00             >tileN=tileN+1
 22+  CA00             >        ORG $C000 + tileN*32
 23+  CA00 FF          >        DB $FF
 24+  CA01 F4          >        DB {b $ } | $F0
 25+  CA02             >        ORG $C000 + tileN*32 + 1*4
 26+  CA04 F1          >        DB {b $ } | $F0
 27+  CA05             >        ORG $C000 + tileN*32 + 2*4
 28+  CA08 F4          >        DB {b $ } | $F0
 29+  CA09             >        ORG $C000 + tileN*32 + 6*4 + 3
 30+  CA1B 7F          >        DB {b $ } | $0F
 31+  CA1C             >        ORG $C000 + tileN*32 + 7*4 + 3
 32+  CA1F FF          >        DB $FF
 33+  CA20             >tileN=tileN+1
 22+  CA20             >        ORG $C000 + tileN*32
 23+  CA20 FF          >        DB $FF
 24+  CA21 F4          >        DB {b $ } | $F0
 25+  CA22             >        ORG $C000 + tileN*32 + 1*4
 26+  CA24 F1          >        DB {b $ } | $F0
 27+  CA25             >        ORG $C000 + tileN*32 + 2*4
 28+  CA28 F4          >        DB {b $ } | $F0
 29+  CA29             >        ORG $C000 + tileN*32 + 6*4 + 3
 30+  CA3B 7F          >        DB {b $ } | $0F
 31+  CA3C             >        ORG $C000 + tileN*32 + 7*4 + 3
 32+  CA3F FF          >        DB $FF
 33+  CA40             >tileN=tileN+1
 22+  CA40             >        ORG $C000 + tileN*32
 23+  CA40 FF          >        DB $FF
 24+  CA41 F0          >        DB {b $ } | $F0
 25+  CA42             >        ORG $C000 + tileN*32 + 1*4
 26+  CA44 F0          >        DB {b $ } | $F0
 27+  CA45             >        ORG $C000 + tileN*32 + 2*4
 28+  CA48 F0          >        DB {b $ } | $F0
 29+  CA49             >        ORG $C000 + tileN*32 + 6*4 + 3
 30+  CA5B 0F          >        DB {b $ } | $0F
 31+  CA5C             >        ORG $C000 + tileN*32 + 7*4 + 3
 32+  CA5F FF          >        DB $FF
 33+  CA60             >tileN=tileN+1
 22+  CA60             >        ORG $C000 + tileN*32
 23+  CA60 FF          >        DB $FF
 24+  CA61 F0          >        DB {b $ } | $F0
 25+  CA62             >        ORG $C000 + tileN*32 + 1*4
 26+  CA64 F0          >        DB {b $ } | $F0
 27+  CA65             >        ORG $C000 + tileN*32 + 2*4
 28+  CA68 F0          >        DB {b $ } | $F0
 29+  CA69             >        ORG $C000 + tileN*32 + 6*4 + 3
 30+  CA7B 0F          >        DB {b $ } | $0F
 31+  CA7C             >        ORG $C000 + tileN*32 + 7*4 + 3
 32+  CA7F FF          >        DB $FF
 33+  CA80             >tileN=tileN+1
 22+  CA80             >        ORG $C000 + tileN*32
 23+  CA80 FF          >        DB $FF
 24+  CA81 F0          >        DB {b $ } | $F0
 25+  CA82             >        ORG $C000 + tileN*32 + 1*4
 26+  CA84 F0          >        DB {b $ } | $F0
 27+  CA85             >        ORG $C000 + tileN*32 + 2*4
 28+  CA88 F0          >        DB {b $ } | $F0
 29+  CA89             >        ORG $C000 + tileN*32 + 6*4 + 3
 30+  CA9B 0F          >        DB {b $ } | $0F
 31+  CA9C             >        ORG $C000 + tileN*32 + 7*4 + 3
 32+  CA9F FF          >        DB $FF
 33+  CAA0             >tileN=tileN+1
 22+  CAA0             >        ORG $C000 + tileN*32
 23+  CAA0 FF          >        DB $FF
 24+  CAA1 F0          >        DB {b $ } | $F0
 25+  CAA2             >        ORG $C000 + tileN*32 + 1*4
 26+  CAA4 F0          >        DB {b $ } | $F0
 27+  CAA5             >        ORG $C000 + tileN*32 + 2*4
 28+  CAA8 F0          >        DB {b $ } | $F0
 29+  CAA9             >        ORG $C000 + tileN*32 + 6*4 + 3
 30+  CABB 0F          >        DB {b $ } | $0F
 31+  CABC             >        ORG $C000 + tileN*32 + 7*4 + 3
 32+  CABF FF          >        DB $FF
 33+  CAC0             >tileN=tileN+1
 22+  CAC0             >        ORG $C000 + tileN*32
 23+  CAC0 FF          >        DB $FF
 24+  CAC1 F0          >        DB {b $ } | $F0
 25+  CAC2             >        ORG $C000 + tileN*32 + 1*4
 26+  CAC4 F0          >        DB {b $ } | $F0
 27+  CAC5             >        ORG $C000 + tileN*32 + 2*4
 28+  CAC8 F0          >        DB {b $ } | $F0
 29+  CAC9             >        ORG $C000 + tileN*32 + 6*4 + 3
 30+  CADB 0F          >        DB {b $ } | $0F
 31+  CADC             >        ORG $C000 + tileN*32 + 7*4 + 3
 32+  CADF FF          >        DB $FF
 33+  CAE0             >tileN=tileN+1
 22+  CAE0             >        ORG $C000 + tileN*32
 23+  CAE0 FF          >        DB $FF
 24+  CAE1 F0          >        DB {b $ } | $F0
 25+  CAE2             >        ORG $C000 + tileN*32 + 1*4
 26+  CAE4 F0          >        DB {b $ } | $F0
 27+  CAE5             >        ORG $C000 + tileN*32 + 2*4
 28+  CAE8 F0          >        DB {b $ } | $F0
 29+  CAE9             >        ORG $C000 + tileN*32 + 6*4 + 3
 30+  CAFB 0F          >        DB {b $ } | $0F
 31+  CAFC             >        ORG $C000 + tileN*32 + 7*4 + 3
 32+  CAFF FF          >        DB $FF
 33+  CB00             >tileN=tileN+1
 22+  CB00             >        ORG $C000 + tileN*32
 23+  CB00 FF          >        DB $FF
 24+  CB01 F0          >        DB {b $ } | $F0
 25+  CB02             >        ORG $C000 + tileN*32 + 1*4
 26+  CB04 F0          >        DB {b $ } | $F0
 27+  CB05             >        ORG $C000 + tileN*32 + 2*4
 28+  CB08 F0          >        DB {b $ } | $F0
 29+  CB09             >        ORG $C000 + tileN*32 + 6*4 + 3
 30+  CB1B 0F          >        DB {b $ } | $0F
 31+  CB1C             >        ORG $C000 + tileN*32 + 7*4 + 3
 32+  CB1F FF          >        DB $FF
 33+  CB20             >tileN=tileN+1
 22+  CB20             >        ORG $C000 + tileN*32
 23+  CB20 FF          >        DB $FF
 24+  CB21 F0          >        DB {b $ } | $F0
 25+  CB22             >        ORG $C000 + tileN*32 + 1*4
 26+  CB24 F0          >        DB {b $ } | $F0
 27+  CB25             >        ORG $C000 + tileN*32 + 2*4
 28+  CB28 F0          >        DB {b $ } | $F0
 29+  CB29             >        ORG $C000 + tileN*32 + 6*4 + 3
 30+  CB3B 0F          >        DB {b $ } | $0F
 31+  CB3C             >        ORG $C000 + tileN*32 + 7*4 + 3
 32+  CB3F FF          >        DB $FF
 33+  CB40             >tileN=tileN+1
 22+  CB40             >        ORG $C000 + tileN*32
 23+  CB40 FF          >        DB $FF
 24+  CB41 F0          >        DB {b $ } | $F0
 25+  CB42             >        ORG $C000 + tileN*32 + 1*4
 26+  CB44 F0          >        DB {b $ } | $F0
 27+  CB45             >        ORG $C000 + tileN*32 + 2*4
 28+  CB48 F0          >        DB {b $ } | $F0
 29+  CB49             >        ORG $C000 + tileN*32 + 6*4 + 3
 30+  CB5B 0F          >        DB {b $ } | $0F
 31+  CB5C             >        ORG $C000 + tileN*32 + 7*4 + 3
 32+  CB5F FF          >        DB $FF
 33+  CB60             >tileN=tileN+1
 22+  CB60             >        ORG $C000 + tileN*32
 23+  CB60 FF          >        DB $FF
 24+  CB61 F0          >        DB {b $ } | $F0
 25+  CB62             >        ORG $C000 + tileN*32 + 1*4
 26+  CB64 F0          >        DB {b $ } | $F0
 27+  CB65             >        ORG $C000 + tileN*32 + 2*4
 28+  CB68 F0          >        DB {b $ } | $F0
 29+  CB69             >        ORG $C000 + tileN*32 + 6*4 + 3
 30+  CB7B 0F          >        DB {b $ } | $0F
 31+  CB7C             >        ORG $C000 + tileN*32 + 7*4 + 3
 32+  CB7F FF          >        DB $FF
 33+  CB80             >tileN=tileN+1
 22+  CB80             >        ORG $C000 + tileN*32
 23+  CB80 FF          >        DB $FF
 24+  CB81 F0          >        DB {b $ } | $F0
 25+  CB82             >        ORG $C000 + tileN*32 + 1*4
 26+  CB84 F0          >        DB {b $ } | $F0
 27+  CB85             >        ORG $C000 + tileN*32 + 2*4
 28+  CB88 F0          >        DB {b $ } | $F0
 29+  CB89             >        ORG $C000 + tileN*32 + 6*4 + 3
 30+  CB9B 0F          >        DB {b $ } | $0F
 31+  CB9C             >        ORG $C000 + tileN*32 + 7*4 + 3
 32+  CB9F FF          >        DB $FF
 33+  CBA0             >tileN=tileN+1
 22+  CBA0             >        ORG $C000 + tileN*32
 23+  CBA0 FF          >        DB $FF
 24+  CBA1 F0          >        DB {b $ } | $F0
 25+  CBA2             >        ORG $C000 + tileN*32 + 1*4
 26+  CBA4 F0          >        DB {b $ } | $F0
 27+  CBA5             >        ORG $C000 + tileN*32 + 2*4
 28+  CBA8 F0          >        DB {b $ } | $F0
 29+  CBA9             >        ORG $C000 + tileN*32 + 6*4 + 3
 30+  CBBB 0F          >        DB {b $ } | $0F
 31+  CBBC             >        ORG $C000 + tileN*32 + 7*4 + 3
 32+  CBBF FF          >        DB $FF
 33+  CBC0             >tileN=tileN+1
 22+  CBC0             >        ORG $C000 + tileN*32
 23+  CBC0 FF          >        DB $FF
 24+  CBC1 F0          >        DB {b $ } | $F0
 25+  CBC2             >        ORG $C000 + tileN*32 + 1*4
 26+  CBC4 F0          >        DB {b $ } | $F0
 27+  CBC5             >        ORG $C000 + tileN*32 + 2*4
 28+  CBC8 F0          >        DB {b $ } | $F0
 29+  CBC9             >        ORG $C000 + tileN*32 + 6*4 + 3
 30+  CBDB 0F          >        DB {b $ } | $0F
 31+  CBDC             >        ORG $C000 + tileN*32 + 7*4 + 3
 32+  CBDF FF          >        DB $FF
 33+  CBE0             >tileN=tileN+1
 22+  CBE0             >        ORG $C000 + tileN*32
 23+  CBE0 FF          >        DB $FF
 24+  CBE1 F0          >        DB {b $ } | $F0
 25+  CBE2             >        ORG $C000 + tileN*32 + 1*4
 26+  CBE4 F0          >        DB {b $ } | $F0
 27+  CBE5             >        ORG $C000 + tileN*32 + 2*4
 28+  CBE8 F0          >        DB {b $ } | $F0
 29+  CBE9             >        ORG $C000 + tileN*32 + 6*4 + 3
 30+  CBFB 0F          >        DB {b $ } | $0F
 31+  CBFC             >        ORG $C000 + tileN*32 + 7*4 + 3
 32+  CBFF FF          >        DB $FF
 33+  CC00             >tileN=tileN+1
 22+  CC00             >        ORG $C000 + tileN*32
 23+  CC00 FF          >        DB $FF
 24+  CC01 FC          >        DB {b $ } | $F0
 25+  CC02             >        ORG $C000 + tileN*32 + 1*4
 26+  CC04 F0          >        DB {b $ } | $F0
 27+  CC05             >        ORG $C000 + tileN*32 + 2*4
 28+  CC08 F0          >        DB {b $ } | $F0
 29+  CC09             >        ORG $C000 + tileN*32 + 6*4 + 3
 30+  CC1B 0F          >        DB {b $ } | $0F
 31+  CC1C             >        ORG $C000 + tileN*32 + 7*4 + 3
 32+  CC1F FF          >        DB $FF
 33+  CC20             >tileN=tileN+1
 22+  CC20             >        ORG $C000 + tileN*32
 23+  CC20 FF          >        DB $FF
 24+  CC21 FC          >        DB {b $ } | $F0
 25+  CC22             >        ORG $C000 + tileN*32 + 1*4
 26+  CC24 F0          >        DB {b $ } | $F0
 27+  CC25             >        ORG $C000 + tileN*32 + 2*4
 28+  CC28 F0          >        DB {b $ } | $F0
 29+  CC29             >        ORG $C000 + tileN*32 + 6*4 + 3
 30+  CC3B 0F          >        DB {b $ } | $0F
 31+  CC3C             >        ORG $C000 + tileN*32 + 7*4 + 3
 32+  CC3F FF          >        DB $FF
 33+  CC40             >tileN=tileN+1
 22+  CC40             >        ORG $C000 + tileN*32
 23+  CC40 FF          >        DB $FF
 24+  CC41 FB          >        DB {b $ } | $F0
 25+  CC42             >        ORG $C000 + tileN*32 + 1*4
 26+  CC44 F7          >        DB {b $ } | $F0
 27+  CC45             >        ORG $C000 + tileN*32 + 2*4
 28+  CC48 F4          >        DB {b $ } | $F0
 29+  CC49             >        ORG $C000 + tileN*32 + 6*4 + 3
 30+  CC5B 6F          >        DB {b $ } | $0F
 31+  CC5C             >        ORG $C000 + tileN*32 + 7*4 + 3
 32+  CC5F FF          >        DB $FF
 33+  CC60             >tileN=tileN+1
 22+  CC60             >        ORG $C000 + tileN*32
 23+  CC60 FF          >        DB $FF
 24+  CC61 F9          >        DB {b $ } | $F0
 25+  CC62             >        ORG $C000 + tileN*32 + 1*4
 26+  CC64 F9          >        DB {b $ } | $F0
 27+  CC65             >        ORG $C000 + tileN*32 + 2*4
 28+  CC68 F2          >        DB {b $ } | $F0
 29+  CC69             >        ORG $C000 + tileN*32 + 6*4 + 3
 30+  CC7B 2F          >        DB {b $ } | $0F
 31+  CC7C             >        ORG $C000 + tileN*32 + 7*4 + 3
 32+  CC7F FF          >        DB $FF
 33+  CC80             >tileN=tileN+1
 22+  CC80             >        ORG $C000 + tileN*32
 23+  CC80 FF          >        DB $FF
 24+  CC81 F3          >        DB {b $ } | $F0
 25+  CC82             >        ORG $C000 + tileN*32 + 1*4
 26+  CC84 F2          >        DB {b $ } | $F0
 27+  CC85             >        ORG $C000 + tileN*32 + 2*4
 28+  CC88 F0          >        DB {b $ } | $F0
 29+  CC89             >        ORG $C000 + tileN*32 + 6*4 + 3
 30+  CC9B DF          >        DB {b $ } | $0F
 31+  CC9C             >        ORG $C000 + tileN*32 + 7*4 + 3
 32+  CC9F FF          >        DB $FF
 33+  CCA0             >tileN=tileN+1
 22+  CCA0             >        ORG $C000 + tileN*32
 23+  CCA0 FF          >        DB $FF
 24+  CCA1 F2          >        DB {b $ } | $F0
 25+  CCA2             >        ORG $C000 + tileN*32 + 1*4
 26+  CCA4 F3          >        DB {b $ } | $F0
 27+  CCA5             >        ORG $C000 + tileN*32 + 2*4
 28+  CCA8 F6          >        DB {b $ } | $F0
 29+  CCA9             >        ORG $C000 + tileN*32 + 6*4 + 3
 30+  CCBB AF          >        DB {b $ } | $0F
 31+  CCBC             >        ORG $C000 + tileN*32 + 7*4 + 3
 32+  CCBF FF          >        DB $FF
 33+  CCC0             >tileN=tileN+1
 22+  CCC0             >        ORG $C000 + tileN*32
 23+  CCC0 FF          >        DB $FF
 24+  CCC1 F4          >        DB {b $ } | $F0
 25+  CCC2             >        ORG $C000 + tileN*32 + 1*4
 26+  CCC4 F7          >        DB {b $ } | $F0
 27+  CCC5             >        ORG $C000 + tileN*32 + 2*4
 28+  CCC8 F7          >        DB {b $ } | $F0
 29+  CCC9             >        ORG $C000 + tileN*32 + 6*4 + 3
 30+  CCDB AF          >        DB {b $ } | $0F
 31+  CCDC             >        ORG $C000 + tileN*32 + 7*4 + 3
 32+  CCDF FF          >        DB $FF
 33+  CCE0             >tileN=tileN+1
 22+  CCE0             >        ORG $C000 + tileN*32
 23+  CCE0 FF          >        DB $FF
 24+  CCE1 F7          >        DB {b $ } | $F0
 25+  CCE2             >        ORG $C000 + tileN*32 + 1*4
 26+  CCE4 FB          >        DB {b $ } | $F0
 27+  CCE5             >        ORG $C000 + tileN*32 + 2*4
 28+  CCE8 F7          >        DB {b $ } | $F0
 29+  CCE9             >        ORG $C000 + tileN*32 + 6*4 + 3
 30+  CCFB 3F          >        DB {b $ } | $0F
 31+  CCFC             >        ORG $C000 + tileN*32 + 7*4 + 3
 32+  CCFF FF          >        DB $FF
 33+  CD00             >tileN=tileN+1
 22+  CD00             >        ORG $C000 + tileN*32
 23+  CD00 FF          >        DB $FF
 24+  CD01 F6          >        DB {b $ } | $F0
 25+  CD02             >        ORG $C000 + tileN*32 + 1*4
 26+  CD04 F3          >        DB {b $ } | $F0
 27+  CD05             >        ORG $C000 + tileN*32 + 2*4
 28+  CD08 F2          >        DB {b $ } | $F0
 29+  CD09             >        ORG $C000 + tileN*32 + 6*4 + 3
 30+  CD1B 1F          >        DB {b $ } | $0F
 31+  CD1C             >        ORG $C000 + tileN*32 + 7*4 + 3
 32+  CD1F FF          >        DB $FF
 33+  CD20             >tileN=tileN+1
 22+  CD20             >        ORG $C000 + tileN*32
 23+  CD20 FF          >        DB $FF
 24+  CD21 F6          >        DB {b $ } | $F0
 25+  CD22             >        ORG $C000 + tileN*32 + 1*4
 26+  CD24 F6          >        DB {b $ } | $F0
 27+  CD25             >        ORG $C000 + tileN*32 + 2*4
 28+  CD28 F3          >        DB {b $ } | $F0
 29+  CD29             >        ORG $C000 + tileN*32 + 6*4 + 3
 30+  CD3B 7F          >        DB {b $ } | $0F
 31+  CD3C             >        ORG $C000 + tileN*32 + 7*4 + 3
 32+  CD3F FF          >        DB $FF
 33+  CD40             >tileN=tileN+1
 22+  CD40             >        ORG $C000 + tileN*32
 23+  CD40 FF          >        DB $FF
 24+  CD41 F3          >        DB {b $ } | $F0
 25+  CD42             >        ORG $C000 + tileN*32 + 1*4
 26+  CD44 F2          >        DB {b $ } | $F0
 27+  CD45             >        ORG $C000 + tileN*32 + 2*4
 28+  CD48 F0          >        DB {b $ } | $F0
 29+  CD49             >        ORG $C000 + tileN*32 + 6*4 + 3
 30+  CD5B DF          >        DB {b $ } | $0F
 31+  CD5C             >        ORG $C000 + tileN*32 + 7*4 + 3
 32+  CD5F FF          >        DB $FF
 33+  CD60             >tileN=tileN+1
 22+  CD60             >        ORG $C000 + tileN*32
 23+  CD60 FF          >        DB $FF
 24+  CD61 F2          >        DB {b $ } | $F0
 25+  CD62             >        ORG $C000 + tileN*32 + 1*4
 26+  CD64 F3          >        DB {b $ } | $F0
 27+  CD65             >        ORG $C000 + tileN*32 + 2*4
 28+  CD68 F6          >        DB {b $ } | $F0
 29+  CD69             >        ORG $C000 + tileN*32 + 6*4 + 3
 30+  CD7B AF          >        DB {b $ } | $0F
 31+  CD7C             >        ORG $C000 + tileN*32 + 7*4 + 3
 32+  CD7F FF          >        DB $FF
 33+  CD80             >tileN=tileN+1
 22+  CD80             >        ORG $C000 + tileN*32
 23+  CD80 FF          >        DB $FF
 24+  CD81 FD          >        DB {b $ } | $F0
 25+  CD82             >        ORG $C000 + tileN*32 + 1*4
 26+  CD84 F6          >        DB {b $ } | $F0
 27+  CD85             >        ORG $C000 + tileN*32 + 2*4
 28+  CD88 F6          >        DB {b $ } | $F0
 29+  CD89             >        ORG $C000 + tileN*32 + 6*4 + 3
 30+  CD9B 6F          >        DB {b $ } | $0F
 31+  CD9C             >        ORG $C000 + tileN*32 + 7*4 + 3
 32+  CD9F FF          >        DB $FF
 33+  CDA0             >tileN=tileN+1
 22+  CDA0             >        ORG $C000 + tileN*32
 23+  CDA0 FF          >        DB $FF
 24+  CDA1 FD          >        DB {b $ } | $F0
 25+  CDA2             >        ORG $C000 + tileN*32 + 1*4
 26+  CDA4 FA          >        DB {b $ } | $F0
 27+  CDA5             >        ORG $C000 + tileN*32 + 2*4
 28+  CDA8 FA          >        DB {b $ } | $F0
 29+  CDA9             >        ORG $C000 + tileN*32 + 6*4 + 3
 30+  CDBB 0F          >        DB {b $ } | $0F
 31+  CDBC             >        ORG $C000 + tileN*32 + 7*4 + 3
 32+  CDBF FF          >        DB $FF
 33+  CDC0             >tileN=tileN+1
 22+  CDC0             >        ORG $C000 + tileN*32
 23+  CDC0 FF          >        DB $FF
 24+  CDC1 F1          >        DB {b $ } | $F0
 25+  CDC2             >        ORG $C000 + tileN*32 + 1*4
 26+  CDC4 F4          >        DB {b $ } | $F0
 27+  CDC5             >        ORG $C000 + tileN*32 + 2*4
 28+  CDC8 F9          >        DB {b $ } | $F0
 29+  CDC9             >        ORG $C000 + tileN*32 + 6*4 + 3
 30+  CDDB 6F          >        DB {b $ } | $0F
 31+  CDDC             >        ORG $C000 + tileN*32 + 7*4 + 3
 32+  CDDF FF          >        DB $FF
 33+  CDE0             >tileN=tileN+1
 22+  CDE0             >        ORG $C000 + tileN*32
 23+  CDE0 FF          >        DB $FF
 24+  CDE1 F9          >        DB {b $ } | $F0
 25+  CDE2             >        ORG $C000 + tileN*32 + 1*4
 26+  CDE4 F4          >        DB {b $ } | $F0
 27+  CDE5             >        ORG $C000 + tileN*32 + 2*4
 28+  CDE8 F4          >        DB {b $ } | $F0
 29+  CDE9             >        ORG $C000 + tileN*32 + 6*4 + 3
 30+  CDFB 3F          >        DB {b $ } | $0F
 31+  CDFC             >        ORG $C000 + tileN*32 + 7*4 + 3
 32+  CDFF FF          >        DB $FF
 33+  CE00             >tileN=tileN+1
 22+  CE00             >        ORG $C000 + tileN*32
 23+  CE00 FF          >        DB $FF
 24+  CE01 F4          >        DB {b $ } | $F0
 25+  CE02             >        ORG $C000 + tileN*32 + 1*4
 26+  CE04 F7          >        DB {b $ } | $F0
 27+  CE05             >        ORG $C000 + tileN*32 + 2*4
 28+  CE08 F7          >        DB {b $ } | $F0
 29+  CE09             >        ORG $C000 + tileN*32 + 6*4 + 3
 30+  CE1B AF          >        DB {b $ } | $0F
 31+  CE1C             >        ORG $C000 + tileN*32 + 7*4 + 3
 32+  CE1F FF          >        DB $FF
 33+  CE20             >tileN=tileN+1
 22+  CE20             >        ORG $C000 + tileN*32
 23+  CE20 FF          >        DB $FF
 24+  CE21 F7          >        DB {b $ } | $F0
 25+  CE22             >        ORG $C000 + tileN*32 + 1*4
 26+  CE24 FB          >        DB {b $ } | $F0
 27+  CE25             >        ORG $C000 + tileN*32 + 2*4
 28+  CE28 F7          >        DB {b $ } | $F0
 29+  CE29             >        ORG $C000 + tileN*32 + 6*4 + 3
 30+  CE3B 3F          >        DB {b $ } | $0F
 31+  CE3C             >        ORG $C000 + tileN*32 + 7*4 + 3
 32+  CE3F FF          >        DB $FF
 33+  CE40             >tileN=tileN+1
 22+  CE40             >        ORG $C000 + tileN*32
 23+  CE40 FF          >        DB $FF
 24+  CE41 F7          >        DB {b $ } | $F0
 25+  CE42             >        ORG $C000 + tileN*32 + 1*4
 26+  CE44 F0          >        DB {b $ } | $F0
 27+  CE45             >        ORG $C000 + tileN*32 + 2*4
 28+  CE48 FB          >        DB {b $ } | $F0
 29+  CE49             >        ORG $C000 + tileN*32 + 6*4 + 3
 30+  CE5B 9F          >        DB {b $ } | $0F
 31+  CE5C             >        ORG $C000 + tileN*32 + 7*4 + 3
 32+  CE5F FF          >        DB $FF
 33+  CE60             >tileN=tileN+1
 22+  CE60             >        ORG $C000 + tileN*32
 23+  CE60 FF          >        DB $FF
 24+  CE61 F9          >        DB {b $ } | $F0
 25+  CE62             >        ORG $C000 + tileN*32 + 1*4
 26+  CE64 F9          >        DB {b $ } | $F0
 27+  CE65             >        ORG $C000 + tileN*32 + 2*4
 28+  CE68 F9          >        DB {b $ } | $F0
 29+  CE69             >        ORG $C000 + tileN*32 + 6*4 + 3
 30+  CE7B 4F          >        DB {b $ } | $0F
 31+  CE7C             >        ORG $C000 + tileN*32 + 7*4 + 3
 32+  CE7F FF          >        DB $FF
 33+  CE80             >tileN=tileN+1
 22+  CE80             >        ORG $C000 + tileN*32
 23+  CE80 FF          >        DB $FF
 24+  CE81 F7          >        DB {b $ } | $F0
 25+  CE82             >        ORG $C000 + tileN*32 + 1*4
 26+  CE84 F5          >        DB {b $ } | $F0
 27+  CE85             >        ORG $C000 + tileN*32 + 2*4
 28+  CE88 FB          >        DB {b $ } | $F0
 29+  CE89             >        ORG $C000 + tileN*32 + 6*4 + 3
 30+  CE9B 9F          >        DB {b $ } | $0F
 31+  CE9C             >        ORG $C000 + tileN*32 + 7*4 + 3
 32+  CE9F FF          >        DB $FF
 33+  CEA0             >tileN=tileN+1
 22+  CEA0             >        ORG $C000 + tileN*32
 23+  CEA0 FF          >        DB $FF
 24+  CEA1 F9          >        DB {b $ } | $F0
 25+  CEA2             >        ORG $C000 + tileN*32 + 1*4
 26+  CEA4 F9          >        DB {b $ } | $F0
 27+  CEA5             >        ORG $C000 + tileN*32 + 2*4
 28+  CEA8 F9          >        DB {b $ } | $F0
 29+  CEA9             >        ORG $C000 + tileN*32 + 6*4 + 3
 30+  CEBB 4F          >        DB {b $ } | $0F
 31+  CEBC             >        ORG $C000 + tileN*32 + 7*4 + 3
 32+  CEBF FF          >        DB $FF
 33+  CEC0             >tileN=tileN+1
 22+  CEC0             >        ORG $C000 + tileN*32
 23+  CEC0 FF          >        DB $FF
 24+  CEC1 F0          >        DB {b $ } | $F0
 25+  CEC2             >        ORG $C000 + tileN*32 + 1*4
 26+  CEC4 F0          >        DB {b $ } | $F0
 27+  CEC5             >        ORG $C000 + tileN*32 + 2*4
 28+  CEC8 F0          >        DB {b $ } | $F0
 29+  CEC9             >        ORG $C000 + tileN*32 + 6*4 + 3
 30+  CEDB 0F          >        DB {b $ } | $0F
 31+  CEDC             >        ORG $C000 + tileN*32 + 7*4 + 3
 32+  CEDF FF          >        DB $FF
 33+  CEE0             >tileN=tileN+1
 22+  CEE0             >        ORG $C000 + tileN*32
 23+  CEE0 FF          >        DB $FF
 24+  CEE1 F0          >        DB {b $ } | $F0
 25+  CEE2             >        ORG $C000 + tileN*32 + 1*4
 26+  CEE4 F0          >        DB {b $ } | $F0
 27+  CEE5             >        ORG $C000 + tileN*32 + 2*4
 28+  CEE8 F0          >        DB {b $ } | $F0
 29+  CEE9             >        ORG $C000 + tileN*32 + 6*4 + 3
 30+  CEFB 0F          >        DB {b $ } | $0F
 31+  CEFC             >        ORG $C000 + tileN*32 + 7*4 + 3
 32+  CEFF FF          >        DB $FF
 33+  CF00             >tileN=tileN+1
 22+  CF00             >        ORG $C000 + tileN*32
 23+  CF00 FF          >        DB $FF
 24+  CF01 F0          >        DB {b $ } | $F0
 25+  CF02             >        ORG $C000 + tileN*32 + 1*4
 26+  CF04 F0          >        DB {b $ } | $F0
 27+  CF05             >        ORG $C000 + tileN*32 + 2*4
 28+  CF08 F0          >        DB {b $ } | $F0
 29+  CF09             >        ORG $C000 + tileN*32 + 6*4 + 3
 30+  CF1B 0F          >        DB {b $ } | $0F
 31+  CF1C             >        ORG $C000 + tileN*32 + 7*4 + 3
 32+  CF1F FF          >        DB $FF
 33+  CF20             >tileN=tileN+1
 22+  CF20             >        ORG $C000 + tileN*32
 23+  CF20 FF          >        DB $FF
 24+  CF21 F0          >        DB {b $ } | $F0
 25+  CF22             >        ORG $C000 + tileN*32 + 1*4
 26+  CF24 F0          >        DB {b $ } | $F0
 27+  CF25             >        ORG $C000 + tileN*32 + 2*4
 28+  CF28 F0          >        DB {b $ } | $F0
 29+  CF29             >        ORG $C000 + tileN*32 + 6*4 + 3
 30+  CF3B 0F          >        DB {b $ } | $0F
 31+  CF3C             >        ORG $C000 + tileN*32 + 7*4 + 3
 32+  CF3F FF          >        DB $FF
 33+  CF40             >tileN=tileN+1
 22+  CF40             >        ORG $C000 + tileN*32
 23+  CF40 FF          >        DB $FF
 24+  CF41 F0          >        DB {b $ } | $F0
 25+  CF42             >        ORG $C000 + tileN*32 + 1*4
 26+  CF44 F0          >        DB {b $ } | $F0
 27+  CF45             >        ORG $C000 + tileN*32 + 2*4
 28+  CF48 F0          >        DB {b $ } | $F0
 29+  CF49             >        ORG $C000 + tileN*32 + 6*4 + 3
 30+  CF5B 0F          >        DB {b $ } | $0F
 31+  CF5C             >        ORG $C000 + tileN*32 + 7*4 + 3
 32+  CF5F FF          >        DB $FF
 33+  CF60             >tileN=tileN+1
 22+  CF60             >        ORG $C000 + tileN*32
 23+  CF60 FF          >        DB $FF
 24+  CF61 F0          >        DB {b $ } | $F0
 25+  CF62             >        ORG $C000 + tileN*32 + 1*4
 26+  CF64 F0          >        DB {b $ } | $F0
 27+  CF65             >        ORG $C000 + tileN*32 + 2*4
 28+  CF68 F0          >        DB {b $ } | $F0
 29+  CF69             >        ORG $C000 + tileN*32 + 6*4 + 3
 30+  CF7B 0F          >        DB {b $ } | $0F
 31+  CF7C             >        ORG $C000 + tileN*32 + 7*4 + 3
 32+  CF7F FF          >        DB $FF
 33+  CF80             >tileN=tileN+1
 22+  CF80             >        ORG $C000 + tileN*32
 23+  CF80 FF          >        DB $FF
 24+  CF81 F0          >        DB {b $ } | $F0
 25+  CF82             >        ORG $C000 + tileN*32 + 1*4
 26+  CF84 F0          >        DB {b $ } | $F0
 27+  CF85             >        ORG $C000 + tileN*32 + 2*4
 28+  CF88 F0          >        DB {b $ } | $F0
 29+  CF89             >        ORG $C000 + tileN*32 + 6*4 + 3
 30+  CF9B 0F          >        DB {b $ } | $0F
 31+  CF9C             >        ORG $C000 + tileN*32 + 7*4 + 3
 32+  CF9F FF          >        DB $FF
 33+  CFA0             >tileN=tileN+1
 22+  CFA0             >        ORG $C000 + tileN*32
 23+  CFA0 FF          >        DB $FF
 24+  CFA1 F0          >        DB {b $ } | $F0
 25+  CFA2             >        ORG $C000 + tileN*32 + 1*4
 26+  CFA4 F0          >        DB {b $ } | $F0
 27+  CFA5             >        ORG $C000 + tileN*32 + 2*4
 28+  CFA8 F0          >        DB {b $ } | $F0
 29+  CFA9             >        ORG $C000 + tileN*32 + 6*4 + 3
 30+  CFBB 0F          >        DB {b $ } | $0F
 31+  CFBC             >        ORG $C000 + tileN*32 + 7*4 + 3
 32+  CFBF FF          >        DB $FF
 33+  CFC0             >tileN=tileN+1
 22+  CFC0             >        ORG $C000 + tileN*32
 23+  CFC0 FF          >        DB $FF
 24+  CFC1 F0          >        DB {b $ } | $F0
 25+  CFC2             >        ORG $C000 + tileN*32 + 1*4
 26+  CFC4 F0          >        DB {b $ } | $F0
 27+  CFC5             >        ORG $C000 + tileN*32 + 2*4
 28+  CFC8 F0          >        DB {b $ } | $F0
 29+  CFC9             >        ORG $C000 + tileN*32 + 6*4 + 3
 30+  CFDB 0F          >        DB {b $ } | $0F
 31+  CFDC             >        ORG $C000 + tileN*32 + 7*4 + 3
 32+  CFDF FF          >        DB $FF
 33+  CFE0             >tileN=tileN+1
 22+  CFE0             >        ORG $C000 + tileN*32
 23+  CFE0 FF          >        DB $FF
 24+  CFE1 F0          >        DB {b $ } | $F0
 25+  CFE2             >        ORG $C000 + tileN*32 + 1*4
 26+  CFE4 F0          >        DB {b $ } | $F0
 27+  CFE5             >        ORG $C000 + tileN*32 + 2*4
 28+  CFE8 F0          >        DB {b $ } | $F0
 29+  CFE9             >        ORG $C000 + tileN*32 + 6*4 + 3
 30+  CFFB 0F          >        DB {b $ } | $0F
 31+  CFFC             >        ORG $C000 + tileN*32 + 7*4 + 3
 32+  CFFF FF          >        DB $FF
 33+  D000             >tileN=tileN+1
 34+  D000                  EDUP
 35+  D000
 36+  D000
 37+  D000
 38+  D000              ;;
 39+  D000              ;;Caveman Walk Animation:
 40+  D000              ; A>B>C>D>A>B>C>D
 41+  D000
 42+  D000              ;;;sprites
 43+  D000              SPRITE_SEGMENTS equ 9
 44+  D000              SPRITE_PLAYER_COUNT equ 9*4
 45+  D000              SPRITE_COUNT equ SPRITE_PLAYER_COUNT ;+ANY_OTHERS+ETC
 46+  D000
 47+  D000
 48+  D000
 49+  D000
 50+  D000                  MMU 6,14
 51+  D000                  org $c000
 52+  C000
 53+  C000              Caveman_Walk_A_1:
 54+  C000 E3 E3 E3 E3  	db  $E3, $E3, $E3, $E3, $E3, $E3, $E3, $E3, $E3, $E3, $E3, $E3, $E3, $E3, $E3, $E3;
 54+  C004 E3 E3 E3 E3
 54+  C008 E3 E3 E3 E3
 54+  C00C E3 E3 E3 E3
 55+  C010 E3 E3 E3 E3  	db  $E3, $E3, $E3, $E3, $E3, $E3, $E3, $E3, $E3, $E3, $E3, $E3, $E3, $E3, $E3, $E3;
 55+  C014 E3 E3 E3 E3
 55+  C018 E3 E3 E3 E3
 55+  C01C E3 E3 E3 E3
 56+  C020 E3 E3 E3 E3  	db  $E3, $E3, $E3, $E3, $E3, $E3, $E3, $E3, $E3, $E3, $E3, $E3, $E3, $E3, $E3, $E3;
 56+  C024 E3 E3 E3 E3
 56+  C028 E3 E3 E3 E3
 56+  C02C E3 E3 E3 E3
 57+  C030 E3 E3 E3 E3  	db  $E3, $E3, $E3, $E3, $E3, $E3, $E3, $E3, $E3, $E3, $E3, $E3, $E3, $E3, $E3, $E3;
 57+  C034 E3 E3 E3 E3
 57+  C038 E3 E3 E3 E3
 57+  C03C E3 E3 E3 E3
 58+  C040 E3 E3 E3 E3  	db  $E3, $E3, $E3, $E3, $E3, $E3, $E3, $E3, $E3, $E3, $E3, $E3, $E3, $E3, $E3, $E3;
 58+  C044 E3 E3 E3 E3
 58+  C048 E3 E3 E3 E3
 58+  C04C E3 E3 E3 E3
 59+  C050 E3 E3 E3 E3  	db  $E3, $E3, $E3, $E3, $E3, $E3, $E3, $E3, $E3, $E3, $E3, $E3, $E3, $E3, $E3, $E3;
 59+  C054 E3 E3 E3 E3
 59+  C058 E3 E3 E3 E3
 59+  C05C E3 E3 E3 E3
 60+  C060 E3 E3 E3 E3  	db  $E3, $E3, $E3, $E3, $E3, $E3, $E3, $E3, $E3, $E3, $E3, $E3, $E3, $E3, $E3, $E3;
 60+  C064 E3 E3 E3 E3
 60+  C068 E3 E3 E3 E3
 60+  C06C E3 E3 E3 E3
 61+  C070 E3 E3 E3 E3  	db  $E3, $E3, $E3, $E3, $E3, $E3, $E3, $E3, $E3, $E3, $E3, $E3, $E3, $E3, $E3, $E3;
 61+  C074 E3 E3 E3 E3
 61+  C078 E3 E3 E3 E3
 61+  C07C E3 E3 E3 E3
 62+  C080 E3 E3 E3 E3  	db  $E3, $E3, $E3, $E3, $E3, $E3, $E3, $E3, $E3, $E3, $E3, $E3, $E3, $E3, $E3, $E3;
 62+  C084 E3 E3 E3 E3
 62+  C088 E3 E3 E3 E3
 62+  C08C E3 E3 E3 E3
 63+  C090 E3 E3 E3 E3  	db  $E3, $E3, $E3, $E3, $E3, $E3, $E3, $E3, $E3, $E3, $E3, $E3, $E3, $E3, $E3, $E3;
 63+  C094 E3 E3 E3 E3
 63+  C098 E3 E3 E3 E3
 63+  C09C E3 E3 E3 E3
 64+  C0A0 E3 E3 E3 E3  	db  $E3, $E3, $E3, $E3, $E3, $E3, $E3, $E3, $E3, $E3, $E3, $E3, $E3, $E3, $E3, $E3;
 64+  C0A4 E3 E3 E3 E3
 64+  C0A8 E3 E3 E3 E3
 64+  C0AC E3 E3 E3 E3
 65+  C0B0 E3 E3 E3 E3  	db  $E3, $E3, $E3, $E3, $E3, $E3, $E3, $E3, $E3, $E3, $E3, $E3, $E3, $E3, $E3, $E3;
 65+  C0B4 E3 E3 E3 E3
 65+  C0B8 E3 E3 E3 E3
 65+  C0BC E3 E3 E3 E3
 66+  C0C0 E3 E3 E3 E3  	db  $E3, $E3, $E3, $E3, $E3, $E3, $E3, $E3, $E3, $E3, $E3, $E3, $E3, $E3, $E3, $0D;
 66+  C0C4 E3 E3 E3 E3
 66+  C0C8 E3 E3 E3 E3
 66+  C0CC E3 E3 E3 0D
 67+  C0D0 E3 E3 E3 E3  	db  $E3, $E3, $E3, $E3, $E3, $E3, $E3, $E3, $E3, $E3, $E3, $E3, $E3, $E3, $0D, $04;
 67+  C0D4 E3 E3 E3 E3
 67+  C0D8 E3 E3 E3 E3
 67+  C0DC E3 E3 0D 04
 68+  C0E0 E3 E3 E3 E3  	db  $E3, $E3, $E3, $E3, $E3, $E3, $E3, $E3, $E3, $E3, $E3, $E3, $E3, $E3, $E3, $E3;
 68+  C0E4 E3 E3 E3 E3
 68+  C0E8 E3 E3 E3 E3
 68+  C0EC E3 E3 E3 E3
 69+  C0F0 E3 E3 E3 E3  	db  $E3, $E3, $E3, $E3, $E3, $E3, $E3, $E3, $E3, $E3, $E3, $E3, $E3, $E3, $E3, $04;
 69+  C0F4 E3 E3 E3 E3
 69+  C0F8 E3 E3 E3 E3
 69+  C0FC E3 E3 E3 04
 70+  C100
 71+  C100
 72+  C100
 73+  C100              Caveman_Walk_A_2:
 74+  C100 E3 E3 E3 E3  	db  $E3, $E3, $E3, $E3, $E3, $E3, $E3, $E3, $E3, $E3, $E3, $E3, $E3, $E3, $E3, $E3;
 74+  C104 E3 E3 E3 E3
 74+  C108 E3 E3 E3 E3
 74+  C10C E3 E3 E3 E3
 75+  C110 E3 E3 E3 E3  	db  $E3, $E3, $E3, $E3, $E3, $E3, $E3, $E3, $E3, $E3, $E3, $E3, $E3, $E3, $E3, $E3;
 75+  C114 E3 E3 E3 E3
 75+  C118 E3 E3 E3 E3
 75+  C11C E3 E3 E3 E3
 76+  C120 E3 0D 0D E3  	db  $E3, $0D, $0D, $E3, $E3, $0D, $E3, $E3, $0D, $E3, $E3, $E3, $E3, $E3, $E3, $E3;
 76+  C124 E3 0D E3 E3
 76+  C128 0D E3 E3 E3
 76+  C12C E3 E3 E3 E3
 77+  C130 E3 E3 04 0D  	db  $E3, $E3, $04, $0D, $E3, $11, $E3, $11, $E3, $E3, $E3, $E3, $E3, $E3, $E3, $E3;
 77+  C134 E3 11 E3 11
 77+  C138 E3 E3 E3 E3
 77+  C13C E3 E3 E3 E3
 78+  C140 E3 11 11 04  	db  $E3, $11, $11, $04, $0D, $11, $15, $0D, $E3, $E3, $E3, $11, $11, $11, $11, $E3;
 78+  C144 0D 11 15 0D
 78+  C148 E3 E3 E3 11
 78+  C14C 11 11 11 E3
 79+  C150 04 04 11 15  	db  $04, $04, $11, $15, $11, $0D, $15, $0D, $FF, $E3, $11, $0D, $0D, $E3, $E3, $E3;
 79+  C154 11 0D 15 0D
 79+  C158 FF E3 11 0D
 79+  C15C 0D E3 E3 E3
 80+  C160 E3 E3 04 0D  	db  $E3, $E3, $04, $0D, $15, $0D, $11, $0D, $FF, $0D, $11, $11, $15, $15, $11, $11;
 80+  C164 15 0D 11 0D
 80+  C168 FF 0D 11 11
 80+  C16C 15 15 11 11
 81+  C170 E3 E3 E3 04  	db  $E3, $E3, $E3, $04, $04, $11, $0D, $FF, $0D, $15, $0D, $11, $0D, $11, $15, $0D;
 81+  C174 04 11 0D FF
 81+  C178 0D 15 0D 11
 81+  C17C 0D 11 15 0D
 82+  C180 E3 0D 0D 6D  	db  $E3, $0D, $0D, $6D, $6D, $B6, $B6, $0D, $0D, $11, $15, $04, $11, $0D, $11, $15;
 82+  C184 6D B6 B6 0D
 82+  C188 0D 11 15 04
 82+  C18C 11 0D 11 15
 83+  C190 0D 11 11 11  	db  $0D, $11, $11, $11, $11, $0D, $0D, $11, $0D, $0D, $15, $A9, $04, $11, $64, $11;
 83+  C194 11 0D 0D 11
 83+  C198 0D 0D 15 A9
 83+  C19C 04 11 64 11
 84+  C1A0 00 04 04 0D  	db  $00, $04, $04, $0D, $0D, $11, $0D, $15, $A9, $0D, $15, $AD, $A9, $11, $AD, $64;
 84+  C1A4 0D 11 0D 15
 84+  C1A8 A9 0D 15 AD
 84+  C1AC A9 11 AD 64
 85+  C1B0 0D 11 11 0D  	db  $0D, $11, $11, $0D, $11, $15, $0D, $15, $AD, $11, $6D, $B6, $B6, $0D, $B6, $6D;
 85+  C1B4 11 15 0D 15
 85+  C1B8 AD 11 6D B6
 85+  C1BC B6 0D B6 6D
 86+  C1C0 11 0D D1 A9  	db  $11, $0D, $D1, $A9, $11, $15, $0D, $11, $D1, $11, $B6, $FF, $FF, $AD, $FF, $B6;
 86+  C1C4 11 15 0D 11
 86+  C1C8 D1 11 B6 FF
 86+  C1CC FF AD FF B6
 87+  C1D0 04 11 FA D1  	db  $04, $11, $FA, $D1, $11, $15, $0D, $AD, $F6, $0D, $FF, $FF, $04, $AD, $04, $FF;
 87+  C1D4 11 15 0D AD
 87+  C1D8 F6 0D FF FF
 87+  C1DC 04 AD 04 FF
 88+  C1E0 04 0D F6 FA  	db  $04, $0D, $F6, $FA, $11, $15, $A9, $D1, $F6, $AD, $FF, $FF, $6D, $D1, $6D, $FF;
 88+  C1E4 11 15 A9 D1
 88+  C1E8 F6 AD FF FF
 88+  C1EC 6D D1 6D FF
 89+  C1F0 0D 04 D1 FA  	db  $0D, $04, $D1, $FA, $11, $15, $AD, $F6, $FA, $D1, $B6, $FF, $04, $D1, $A9, $AD;
 89+  C1F4 11 15 AD F6
 89+  C1F8 FA D1 B6 FF
 89+  C1FC 04 D1 A9 AD
 90+  C200
 91+  C200
 92+  C200
 93+  C200              Caveman_Walk_A_3:
 94+  C200 E3 E3 E3 E3  	db  $E3, $E3, $E3, $E3, $E3, $E3, $E3, $E3, $E3, $E3, $E3, $E3, $E3, $E3, $E3, $E3;
 94+  C204 E3 E3 E3 E3
 94+  C208 E3 E3 E3 E3
 94+  C20C E3 E3 E3 E3
 95+  C210 E3 E3 E3 E3  	db  $E3, $E3, $E3, $E3, $E3, $E3, $E3, $E3, $E3, $E3, $E3, $E3, $E3, $E3, $E3, $E3;
 95+  C214 E3 E3 E3 E3
 95+  C218 E3 E3 E3 E3
 95+  C21C E3 E3 E3 E3
 96+  C220 E3 E3 E3 E3  	db  $E3, $E3, $E3, $E3, $E3, $E3, $E3, $E3, $E3, $E3, $E3, $E3, $E3, $E3, $E3, $E3;
 96+  C224 E3 E3 E3 E3
 96+  C228 E3 E3 E3 E3
 96+  C22C E3 E3 E3 E3
 97+  C230 E3 E3 E3 E3  	db  $E3, $E3, $E3, $E3, $E3, $E3, $E3, $E3, $E3, $E3, $E3, $E3, $E3, $E3, $E3, $E3;
 97+  C234 E3 E3 E3 E3
 97+  C238 E3 E3 E3 E3
 97+  C23C E3 E3 E3 E3
 98+  C240 E3 E3 E3 E3  	db  $E3, $E3, $E3, $E3, $E3, $E3, $E3, $E3, $E3, $E3, $E3, $E3, $E3, $E3, $E3, $E3;
 98+  C244 E3 E3 E3 E3
 98+  C248 E3 E3 E3 E3
 98+  C24C E3 E3 E3 E3
 99+  C250 E3 E3 E3 E3  	db  $E3, $E3, $E3, $E3, $E3, $E3, $E3, $E3, $E3, $E3, $E3, $E3, $E3, $E3, $E3, $E3;
 99+  C254 E3 E3 E3 E3
 99+  C258 E3 E3 E3 E3
 99+  C25C E3 E3 E3 E3
100+  C260 11 11 E3 E3  	db  $11, $11, $E3, $E3, $E3, $E3, $E3, $E3, $E3, $E3, $E3, $E3, $E3, $E3, $E3, $E3;
100+  C264 E3 E3 E3 E3
100+  C268 E3 E3 E3 E3
100+  C26C E3 E3 E3 E3
101+  C270 0D E3 E3 E3  	db  $0D, $E3, $E3, $E3, $E3, $E3, $E3, $E3, $E3, $E3, $E3, $E3, $E3, $E3, $E3, $E3;
101+  C274 E3 E3 E3 E3
101+  C278 E3 E3 E3 E3
101+  C27C E3 E3 E3 E3
102+  C280 11 0D E3 E3  	db  $11, $0D, $E3, $E3, $E3, $E3, $E3, $E3, $E3, $E3, $E3, $E3, $E3, $E3, $E3, $E3;
102+  C284 E3 E3 E3 E3
102+  C288 E3 E3 E3 E3
102+  C28C E3 E3 E3 E3
103+  C290 15 11 E3 E3  	db  $15, $11, $E3, $E3, $E3, $E3, $E3, $E3, $E3, $E3, $E3, $E3, $E3, $E3, $E3, $E3;
103+  C294 E3 E3 E3 E3
103+  C298 E3 E3 E3 E3
103+  C29C E3 E3 E3 E3
104+  C2A0 11 15 11 E3  	db  $11, $15, $11, $E3, $E3, $E3, $E3, $E3, $E3, $E3, $E3, $E3, $E3, $E3, $E3, $E3;
104+  C2A4 E3 E3 E3 E3
104+  C2A8 E3 E3 E3 E3
104+  C2AC E3 E3 E3 E3
105+  C2B0 04 11 11 E3  	db  $04, $11, $11, $E3, $E3, $E3, $E3, $E3, $E3, $E3, $E3, $E3, $E3, $E3, $E3, $E3;
105+  C2B4 E3 E3 E3 E3
105+  C2B8 E3 E3 E3 E3
105+  C2BC E3 E3 E3 E3
106+  C2C0 00 0D 11 E3  	db  $00, $0D, $11, $E3, $E3, $E3, $E3, $E3, $E3, $E3, $E3, $E3, $E3, $E3, $E3, $E3;
106+  C2C4 E3 E3 E3 E3
106+  C2C8 E3 E3 E3 E3
106+  C2CC E3 E3 E3 E3
107+  C2D0 00 04 0D E3  	db  $00, $04, $0D, $E3, $E3, $E3, $E3, $E3, $E3, $E3, $E3, $E3, $E3, $E3, $E3, $E3;
107+  C2D4 E3 E3 E3 E3
107+  C2D8 E3 E3 E3 E3
107+  C2DC E3 E3 E3 E3
108+  C2E0 00 E3 0D E3  	db  $00, $E3, $0D, $E3, $E3, $E3, $E3, $E3, $E3, $E3, $E3, $E3, $E3, $E3, $E3, $E3;
108+  C2E4 E3 E3 E3 E3
108+  C2E8 E3 E3 E3 E3
108+  C2EC E3 E3 E3 E3
109+  C2F0 AD 00 E3 E3  	db  $AD, $00, $E3, $E3, $E3, $E3, $E3, $E3, $E3, $E3, $E3, $E3, $E3, $E3, $E3, $E3;
109+  C2F4 E3 E3 E3 E3
109+  C2F8 E3 E3 E3 E3
109+  C2FC E3 E3 E3 E3
110+  C300
111+  C300
112+  C300
113+  C300              Caveman_Walk_A_4:
114+  C300 E3 E3 E3 E3  	db  $E3, $E3, $E3, $E3, $E3, $E3, $E3, $E3, $E3, $E3, $E3, $E3, $E3, $E3, $E3, $04;
114+  C304 E3 E3 E3 E3
114+  C308 E3 E3 E3 E3
114+  C30C E3 E3 E3 04
115+  C310 E3 E3 E3 E3  	db  $E3, $E3, $E3, $E3, $E3, $E3, $E3, $E3, $E3, $E3, $E3, $E3, $E3, $E3, $E3, $64;
115+  C314 E3 E3 E3 E3
115+  C318 E3 E3 E3 E3
115+  C31C E3 E3 E3 64
116+  C320 E3 E3 E3 E3  	db  $E3, $E3, $E3, $E3, $E3, $E3, $E3, $E3, $E3, $E3, $E3, $E3, $E3, $E3, $64, $AD;
116+  C324 E3 E3 E3 E3
116+  C328 E3 E3 E3 E3
116+  C32C E3 E3 64 AD
117+  C330 E3 E3 E3 E3  	db  $E3, $E3, $E3, $E3, $E3, $E3, $E3, $E3, $E3, $E3, $E3, $E3, $E3, $E3, $64, $D1;
117+  C334 E3 E3 E3 E3
117+  C338 E3 E3 E3 E3
117+  C33C E3 E3 64 D1
118+  C340 E3 E3 E3 E3  	db  $E3, $E3, $E3, $E3, $E3, $E3, $E3, $E3, $E3, $E3, $E3, $E3, $E3, $64, $AD, $F6;
118+  C344 E3 E3 E3 E3
118+  C348 E3 E3 E3 E3
118+  C34C E3 64 AD F6
119+  C350 E3 E3 E3 E3  	db  $E3, $E3, $E3, $E3, $E3, $E3, $E3, $E3, $E3, $E3, $E3, $E3, $E3, $64, $D1, $F6;
119+  C354 E3 E3 E3 E3
119+  C358 E3 E3 E3 E3
119+  C35C E3 64 D1 F6
120+  C360 E3 E3 E3 E3  	db  $E3, $E3, $E3, $E3, $E3, $E3, $E3, $E3, $E3, $E3, $E3, $E3, $64, $AD, $D1, $F6;
120+  C364 E3 E3 E3 E3
120+  C368 E3 E3 E3 E3
120+  C36C 64 AD D1 F6
121+  C370 E3 E3 E3 E3  	db  $E3, $E3, $E3, $E3, $E3, $E3, $E3, $E3, $E3, $E3, $E3, $E3, $A9, $D1, $F6, $F6;
121+  C374 E3 E3 E3 E3
121+  C378 E3 E3 E3 E3
121+  C37C A9 D1 F6 F6
122+  C380 E3 E3 E3 E3  	db  $E3, $E3, $E3, $E3, $E3, $E3, $E3, $E3, $E3, $E3, $E3, $64, $AD, $D1, $D1, $F6;
122+  C384 E3 E3 E3 E3
122+  C388 E3 E3 E3 64
122+  C38C AD D1 D1 F6
123+  C390 E3 E3 E3 E3  	db  $E3, $E3, $E3, $E3, $E3, $E3, $E3, $E3, $E3, $E3, $E3, $A9, $D1, $D1, $F6, $D1;
123+  C394 E3 E3 E3 E3
123+  C398 E3 E3 E3 A9
123+  C39C D1 D1 F6 D1
124+  C3A0 E3 E3 E3 E3  	db  $E3, $E3, $E3, $E3, $E3, $E3, $E3, $E3, $E3, $E3, $E3, $AD, $D1, $F6, $FA, $FA;
124+  C3A4 E3 E3 E3 E3
124+  C3A8 E3 E3 E3 AD
124+  C3AC D1 F6 FA FA
125+  C3B0 E3 E3 E3 E3  	db  $E3, $E3, $E3, $E3, $E3, $E3, $E3, $E3, $E3, $E3, $E3, $AD, $D1, $F6, $FA, $FF;
125+  C3B4 E3 E3 E3 E3
125+  C3B8 E3 E3 E3 AD
125+  C3BC D1 F6 FA FF
126+  C3C0 E3 E3 E3 E3  	db  $E3, $E3, $E3, $E3, $E3, $E3, $E3, $E3, $E3, $E3, $E3, $AD, $D1, $F6, $FA, $FF;
126+  C3C4 E3 E3 E3 E3
126+  C3C8 E3 E3 E3 AD
126+  C3CC D1 F6 FA FF
127+  C3D0 E3 E3 E3 E3  	db  $E3, $E3, $E3, $E3, $E3, $E3, $E3, $E3, $E3, $E3, $E3, $E3, $64, $F6, $F6, $FA;
127+  C3D4 E3 E3 E3 E3
127+  C3D8 E3 E3 E3 E3
127+  C3DC 64 F6 F6 FA
128+  C3E0 E3 E3 E3 E3  	db  $E3, $E3, $E3, $E3, $E3, $E3, $E3, $E3, $E3, $E3, $E3, $E3, $AD, $D1, $F6, $F6;
128+  C3E4 E3 E3 E3 E3
128+  C3E8 E3 E3 E3 E3
128+  C3EC AD D1 F6 F6
129+  C3F0 E3 E3 E3 E3  	db  $E3, $E3, $E3, $E3, $E3, $E3, $E3, $E3, $E3, $E3, $E3, $E3, $E3, $AD, $D1, $F6;
129+  C3F4 E3 E3 E3 E3
129+  C3F8 E3 E3 E3 E3
129+  C3FC E3 AD D1 F6
130+  C400
131+  C400
132+  C400
133+  C400              Caveman_Walk_A_5:
134+  C400 64 A9 64 AD  	db  $64, $A9, $64, $AD, $11, $15, $D1, $FA, $FF, $FA, $AD, $B6, $FF, $F6, $FA, $FA;
134+  C404 11 15 D1 FA
134+  C408 FF FA AD B6
134+  C40C FF F6 FA FA
135+  C410 AD D1 AD 64  	db  $AD, $D1, $AD, $64, $11, $11, $D1, $FF, $FA, $FF, $F6, $AD, $AD, $D1, $FA, $FF;
135+  C414 11 11 D1 FF
135+  C418 FA FF F6 AD
135+  C41C AD D1 FA FF
136+  C420 F6 FA F6 AD  	db  $F6, $FA, $F6, $AD, $11, $11, $D1, $F6, $F6, $FA, $FA, $D1, $D1, $A9, $D1, $F6;
136+  C424 11 11 D1 F6
136+  C428 F6 FA FA D1
136+  C42C D1 A9 D1 F6
137+  C430 FA FF FA F6  	db  $FA, $FF, $FA, $F6, $11, $0D, $D1, $D1, $D1, $AD, $F6, $FA, $F6, $D1, $64, $64;
137+  C434 11 0D D1 D1
137+  C438 D1 AD F6 FA
137+  C43C F6 D1 64 64
138+  C440 FF FF FA F6  	db  $FF, $FF, $FA, $F6, $0D, $0D, $AD, $D1, $FA, $64, $AD, $F6, $FA, $FA, $D1, $AD;
138+  C444 0D 0D AD D1
138+  C448 FA 64 AD F6
138+  C44C FA FA D1 AD
139+  C450 FA FA F6 F6  	db  $FA, $FA, $F6, $F6, $0D, $64, $64, $AD, $D1, $D1, $64, $64, $D1, $F6, $FA, $FA;
139+  C454 0D 64 64 AD
139+  C458 D1 D1 64 64
139+  C45C D1 F6 FA FA
140+  C460 FA F6 F6 D1  	db  $FA, $F6, $F6, $D1, $0D, $A9, $64, $A9, $D1, $F6, $F6, $AD, $64, $64, $64, $64;
140+  C464 0D A9 64 A9
140+  C468 D1 F6 F6 AD
140+  C46C 64 64 64 64
141+  C470 F6 D1 AD AD  	db  $F6, $D1, $AD, $AD, $AD, $AD, $A9, $64, $A9, $D1, $F6, $FA, $FA, $FA, $FF, $FF;
141+  C474 AD AD A9 64
141+  C478 A9 D1 F6 FA
141+  C47C FA FA FF FF
142+  C480 D1 AD 64 AD  	db  $D1, $AD, $64, $AD, $AD, $D1, $D1, $A9, $64, $A9, $D1, $F6, $D1, $AD, $A9, $64;
142+  C484 AD D1 D1 A9
142+  C488 64 A9 D1 F6
142+  C48C D1 AD A9 64
143+  C490 AD 64 A9 D1  	db  $AD, $64, $A9, $D1, $AD, $F6, $F6, $D1, $AD, $64, $64, $AD, $F6, $FA, $D1, $64;
143+  C494 AD F6 F6 D1
143+  C498 AD 64 64 AD
143+  C49C F6 FA D1 64
144+  C4A0 F6 64 A9 D1  	db  $F6, $64, $A9, $D1, $AD, $F6, $FA, $FA, $F6, $D1, $AD, $64, $64, $64, $64, $AD;
144+  C4A4 AD F6 FA FA
144+  C4A8 F6 D1 AD 64
144+  C4AC 64 64 64 AD
145+  C4B0 FA D1 64 D1  	db  $FA, $D1, $64, $D1, $AD, $F6, $FA, $FF, $FA, $FA, $F6, $D1, $D1, $AD, $D1, $F6;
145+  C4B4 AD F6 FA FF
145+  C4B8 FA FA F6 D1
145+  C4BC D1 AD D1 F6
146+  C4C0 FF F6 A9 D1  	db  $FF, $F6, $A9, $D1, $A9, $D1, $F6, $FA, $FF, $FA, $FA, $FA, $F6, $D1, $D1, $FF;
146+  C4C4 A9 D1 F6 FA
146+  C4C8 FF FA FA FA
146+  C4CC F6 D1 D1 FF
147+  C4D0 FF FA A9 AD  	db  $FF, $FA, $A9, $AD, $A9, $AD, $D1, $F6, $FA, $FF, $FA, $FA, $F6, $D1, $D1, $FA;
147+  C4D4 A9 AD D1 F6
147+  C4D8 FA FF FA FA
147+  C4DC F6 D1 D1 FA
148+  C4E0 FA FA 64 64  	db  $FA, $FA, $64, $64, $A9, $A9, $AD, $D1, $D1, $F6, $F6, $F6, $D1, $A9, $D1, $D1;
148+  C4E4 A9 A9 AD D1
148+  C4E8 D1 F6 F6 F6
148+  C4EC D1 A9 D1 D1
149+  C4F0 F6 F6 11 15  	db  $F6, $F6, $11, $15, $64, $A9, $A9, $A9, $AD, $AD, $AD, $AD, $A9, $AD, $A9, $A9;
149+  C4F4 64 A9 A9 A9
149+  C4F8 AD AD AD AD
149+  C4FC A9 AD A9 A9
150+  C500
151+  C500
152+  C500
153+  C500              Caveman_Walk_A_6:
154+  C500 F6 A9 E3 E3  	db  $F6, $A9, $E3, $E3, $E3, $E3, $E3, $E3, $E3, $E3, $E3, $E3, $E3, $E3, $E3, $E3;
154+  C504 E3 E3 E3 E3
154+  C508 E3 E3 E3 E3
154+  C50C E3 E3 E3 E3
155+  C510 FA 64 A9 A9  	db  $FA, $64, $A9, $A9, $E3, $E3, $E3, $E3, $E3, $E3, $E3, $E3, $E3, $E3, $E3, $E3;
155+  C514 E3 E3 E3 E3
155+  C518 E3 E3 E3 E3
155+  C51C E3 E3 E3 E3
156+  C520 D1 64 D1 AD  	db  $D1, $64, $D1, $AD, $A9, $E3, $E3, $E3, $E3, $E3, $E3, $E3, $E3, $E3, $E3, $E3;
156+  C524 A9 E3 E3 E3
156+  C528 E3 E3 E3 E3
156+  C52C E3 E3 E3 E3
157+  C530 64 A9 FA D1  	db  $64, $A9, $FA, $D1, $64, $E3, $E3, $E3, $E3, $E3, $E3, $E3, $E3, $E3, $E3, $E3;
157+  C534 64 E3 E3 E3
157+  C538 E3 E3 E3 E3
157+  C53C E3 E3 E3 E3
158+  C540 64 D1 FA D1  	db  $64, $D1, $FA, $D1, $64, $E3, $E3, $E3, $E3, $E3, $E3, $E3, $E3, $E3, $E3, $E3;
158+  C544 64 E3 E3 E3
158+  C548 E3 E3 E3 E3
158+  C54C E3 E3 E3 E3
159+  C550 AD D1 F6 D1  	db  $AD, $D1, $F6, $D1, $64, $E3, $E3, $E3, $E3, $E3, $E3, $E3, $E3, $E3, $E3, $E3;
159+  C554 64 E3 E3 E3
159+  C558 E3 E3 E3 E3
159+  C55C E3 E3 E3 E3
160+  C560 64 A9 D1 AD  	db  $64, $A9, $D1, $AD, $64, $E3, $E3, $E3, $E3, $E3, $E3, $E3, $E3, $E3, $E3, $E3;
160+  C564 64 E3 E3 E3
160+  C568 E3 E3 E3 E3
160+  C56C E3 E3 E3 E3
161+  C570 FA A9 A9 64  	db  $FA, $A9, $A9, $64, $E3, $E3, $E3, $E3, $E3, $E3, $E3, $E3, $E3, $E3, $E3, $E3;
161+  C574 E3 E3 E3 E3
161+  C578 E3 E3 E3 E3
161+  C57C E3 E3 E3 E3
162+  C580 64 AD 64 E3  	db  $64, $AD, $64, $E3, $E3, $E3, $E3, $E3, $E3, $E3, $E3, $E3, $E3, $E3, $E3, $E3;
162+  C584 E3 E3 E3 E3
162+  C588 E3 E3 E3 E3
162+  C58C E3 E3 E3 E3
163+  C590 AD D1 64 E3  	db  $AD, $D1, $64, $E3, $E3, $E3, $E3, $E3, $E3, $E3, $E3, $E3, $E3, $E3, $E3, $E3;
163+  C594 E3 E3 E3 E3
163+  C598 E3 E3 E3 E3
163+  C59C E3 E3 E3 E3
164+  C5A0 D1 D1 64 E3  	db  $D1, $D1, $64, $E3, $E3, $E3, $E3, $E3, $E3, $E3, $E3, $E3, $E3, $E3, $E3, $E3;
164+  C5A4 E3 E3 E3 E3
164+  C5A8 E3 E3 E3 E3
164+  C5AC E3 E3 E3 E3
165+  C5B0 FA D1 64 E3  	db  $FA, $D1, $64, $E3, $E3, $E3, $E3, $E3, $E3, $E3, $E3, $E3, $E3, $E3, $E3, $E3;
165+  C5B4 E3 E3 E3 E3
165+  C5B8 E3 E3 E3 E3
165+  C5BC E3 E3 E3 E3
166+  C5C0 FA AD 64 E3  	db  $FA, $AD, $64, $E3, $E3, $E3, $E3, $E3, $E3, $E3, $E3, $E3, $E3, $E3, $E3, $E3;
166+  C5C4 E3 E3 E3 E3
166+  C5C8 E3 E3 E3 E3
166+  C5CC E3 E3 E3 E3
167+  C5D0 F6 64 E3 E3  	db  $F6, $64, $E3, $E3, $E3, $E3, $E3, $E3, $E3, $E3, $E3, $E3, $E3, $E3, $E3, $E3;
167+  C5D4 E3 E3 E3 E3
167+  C5D8 E3 E3 E3 E3
167+  C5DC E3 E3 E3 E3
168+  C5E0 AD 64 11 E3  	db  $AD, $64, $11, $E3, $E3, $E3, $E3, $E3, $E3, $E3, $E3, $E3, $E3, $E3, $E3, $E3;
168+  C5E4 E3 E3 E3 E3
168+  C5E8 E3 E3 E3 E3
168+  C5EC E3 E3 E3 E3
169+  C5F0 64 AD 15 FF  	db  $64, $AD, $15, $FF, $E3, $E3, $E3, $E3, $E3, $E3, $E3, $E3, $E3, $E3, $E3, $E3;
169+  C5F4 E3 E3 E3 E3
169+  C5F8 E3 E3 E3 E3
169+  C5FC E3 E3 E3 E3
170+  C600
171+  C600
172+  C600
173+  C600              Caveman_Walk_A_7:
174+  C600 E3 E3 E3 E3  	db  $E3, $E3, $E3, $E3, $E3, $E3, $E3, $E3, $E3, $E3, $E3, $E3, $E3, $E3, $AD, $D1;
174+  C604 E3 E3 E3 E3
174+  C608 E3 E3 E3 E3
174+  C60C E3 E3 AD D1
175+  C610 E3 E3 E3 E3  	db  $E3, $E3, $E3, $E3, $E3, $E3, $E3, $E3, $E3, $E3, $E3, $E3, $E3, $E3, $64, $A9;
175+  C614 E3 E3 E3 E3
175+  C618 E3 E3 E3 E3
175+  C61C E3 E3 64 A9
176+  C620 E3 E3 E3 E3  	db  $E3, $E3, $E3, $E3, $E3, $E3, $E3, $E3, $E3, $E3, $E3, $E3, $E3, $64, $AD, $D1;
176+  C624 E3 E3 E3 E3
176+  C628 E3 E3 E3 E3
176+  C62C E3 64 AD D1
177+  C630 E3 E3 E3 E3  	db  $E3, $E3, $E3, $E3, $E3, $E3, $E3, $E3, $E3, $E3, $E3, $E3, $E3, $AD, $F6, $04;
177+  C634 E3 E3 E3 E3
177+  C638 E3 E3 E3 E3
177+  C63C E3 AD F6 04
178+  C640 E3 E3 E3 E3  	db  $E3, $E3, $E3, $E3, $E3, $E3, $E3, $E3, $E3, $E3, $E3, $E3, $E3, $AD, $04, $11;
178+  C644 E3 E3 E3 E3
178+  C648 E3 E3 E3 E3
178+  C64C E3 AD 04 11
179+  C650 E3 E3 E3 E3  	db  $E3, $E3, $E3, $E3, $E3, $E3, $E3, $E3, $E3, $E3, $E3, $E3, $E3, $D1, $04, $15;
179+  C654 E3 E3 E3 E3
179+  C658 E3 E3 E3 E3
179+  C65C E3 D1 04 15
180+  C660 E3 E3 E3 E3  	db  $E3, $E3, $E3, $E3, $E3, $E3, $E3, $E3, $E3, $E3, $E3, $E3, $E3, $D1, $04, $04;
180+  C664 E3 E3 E3 E3
180+  C668 E3 E3 E3 E3
180+  C66C E3 D1 04 04
181+  C670 E3 E3 E3 E3  	db  $E3, $E3, $E3, $E3, $E3, $E3, $E3, $E3, $E3, $E3, $E3, $E3, $E3, $AD, $F6, $F6;
181+  C674 E3 E3 E3 E3
181+  C678 E3 E3 E3 E3
181+  C67C E3 AD F6 F6
182+  C680 E3 E3 E3 E3  	db  $E3, $E3, $E3, $E3, $E3, $E3, $E3, $E3, $E3, $E3, $E3, $E3, $E3, $A9, $D1, $F6;
182+  C684 E3 E3 E3 E3
182+  C688 E3 E3 E3 E3
182+  C68C E3 A9 D1 F6
183+  C690 E3 E3 E3 E3  	db  $E3, $E3, $E3, $E3, $E3, $E3, $E3, $E3, $E3, $E3, $E3, $E3, $E3, $64, $AD, $F6;
183+  C694 E3 E3 E3 E3
183+  C698 E3 E3 E3 E3
183+  C69C E3 64 AD F6
184+  C6A0 E3 E3 E3 E3  	db  $E3, $E3, $E3, $E3, $E3, $E3, $E3, $E3, $E3, $E3, $E3, $E3, $E3, $E3, $A9, $D1;
184+  C6A4 E3 E3 E3 E3
184+  C6A8 E3 E3 E3 E3
184+  C6AC E3 E3 A9 D1
185+  C6B0 E3 E3 E3 E3  	db  $E3, $E3, $E3, $E3, $E3, $E3, $E3, $E3, $E3, $E3, $E3, $E3, $E3, $E3, $64, $AD;
185+  C6B4 E3 E3 E3 E3
185+  C6B8 E3 E3 E3 E3
185+  C6BC E3 E3 64 AD
186+  C6C0 E3 E3 E3 E3  	db  $E3, $E3, $E3, $E3, $E3, $E3, $E3, $E3, $E3, $E3, $E3, $E3, $E3, $E3, $E3, $64;
186+  C6C4 E3 E3 E3 E3
186+  C6C8 E3 E3 E3 E3
186+  C6CC E3 E3 E3 64
187+  C6D0 E3 E3 E3 E3  	db  $E3, $E3, $E3, $E3, $E3, $E3, $E3, $E3, $E3, $E3, $E3, $E3, $E3, $E3, $E3, $E3;
187+  C6D4 E3 E3 E3 E3
187+  C6D8 E3 E3 E3 E3
187+  C6DC E3 E3 E3 E3
188+  C6E0 E3 E3 E3 E3  	db  $E3, $E3, $E3, $E3, $E3, $E3, $E3, $E3, $E3, $E3, $E3, $E3, $E3, $E3, $E3, $E3;
188+  C6E4 E3 E3 E3 E3
188+  C6E8 E3 E3 E3 E3
188+  C6EC E3 E3 E3 E3
189+  C6F0 E3 E3 E3 E3  	db  $E3, $E3, $E3, $E3, $E3, $E3, $E3, $E3, $E3, $E3, $E3, $E3, $E3, $E3, $E3, $E3;
189+  C6F4 E3 E3 E3 E3
189+  C6F8 E3 E3 E3 E3
189+  C6FC E3 E3 E3 E3
190+  C700
191+  C700
192+  C700
193+  C700              Caveman_Walk_A_8:
194+  C700 D1 11 15 FF  	db  $D1, $11, $15, $FF, $15, $64, $AD, $D1, $D1, $D1, $D1, $F6, $F6, $F6, $D1, $04;
194+  C704 15 64 AD D1
194+  C708 D1 D1 D1 F6
194+  C70C F6 F6 D1 04
195+  C710 0D 11 15 11  	db  $0D, $11, $15, $11, $AD, $64, $A9, $AD, $D1, $D1, $F6, $FA, $FA, $FA, $A9, $04;
195+  C714 AD 64 A9 AD
195+  C718 D1 D1 F6 FA
195+  C71C FA FA A9 04
196+  C720 04 0D 0D AD  	db  $04, $0D, $0D, $AD, $F6, $F6, $F6, $A9, $A9, $A9, $AD, $AD, $D1, $A9, $0D, $04;
196+  C724 F6 F6 F6 A9
196+  C728 A9 A9 AD AD
196+  C72C D1 A9 0D 04
197+  C730 11 04 A9 F6  	db  $11, $04, $A9, $F6, $FA, $FA, $AD, $A9, $0D, $11, $11, $0D, $11, $04, $11, $15;
197+  C734 FA FA AD A9
197+  C738 0D 11 11 0D
197+  C73C 11 04 11 15
198+  C740 15 11 AD FA  	db  $15, $11, $AD, $FA, $FF, $FA, $F6, $D1, $A9, $11, $15, $0D, $0D, $04, $04, $04;
198+  C744 FF FA F6 D1
198+  C748 A9 11 15 0D
198+  C74C 0D 04 04 04
199+  C750 0D 11 D1 FA  	db  $0D, $11, $D1, $FA, $FF, $FF, $FA, $F6, $A9, $11, $15, $0D, $04, $64, $E3, $E3;
199+  C754 FF FF FA F6
199+  C758 A9 11 15 0D
199+  C75C 04 64 E3 E3
200+  C760 04 11 AD F6  	db  $04, $11, $AD, $F6, $FA, $F6, $D1, $FA, $A9, $11, $15, $04, $AD, $A9, $A9, $E3;
200+  C764 FA F6 D1 FA
200+  C768 A9 11 15 04
200+  C76C AD A9 A9 E3
201+  C770 04 11 64 D1  	db  $04, $11, $64, $D1, $F6, $D1, $A9, $D1, $04, $11, $15, $04, $D1, $AD, $A9, $E3;
201+  C774 F6 D1 A9 D1
201+  C778 04 11 15 04
201+  C77C D1 AD A9 E3
202+  C780 04 04 04 04  	db  $04, $04, $04, $04, $64, $A9, $0D, $64, $64, $04, $15, $04, $F6, $AD, $A9, $E3;
202+  C784 64 A9 0D 64
202+  C788 64 04 15 04
202+  C78C F6 AD A9 E3
203+  C790 F6 A9 E3 E3  	db  $F6, $A9, $E3, $E3, $E3, $E3, $E3, $64, $A9, $AD, $04, $F6, $D1, $A9, $AD, $D1;
203+  C794 E3 E3 E3 64
203+  C798 A9 AD 04 F6
203+  C79C D1 A9 AD D1
204+  C7A0 F6 D1 A9 64  	db  $F6, $D1, $A9, $64, $E3, $E3, $E3, $64, $AD, $D1, $F6, $FA, $F6, $F6, $FA, $FF;
204+  C7A4 E3 E3 E3 64
204+  C7A8 AD D1 F6 FA
204+  C7AC F6 F6 FA FF
205+  C7B0 A9 F6 F6 AD  	db  $A9, $F6, $F6, $AD, $E3, $E3, $64, $AD, $D1, $FA, $FA, $FF, $FF, $FA, $FA, $F6;
205+  C7B4 E3 E3 64 AD
205+  C7B8 D1 FA FA FF
205+  C7BC FF FA FA F6
206+  C7C0 64 AD D1 64  	db  $64, $AD, $D1, $64, $E3, $64, $A9, $D1, $F6, $FF, $FF, $FA, $FA, $F6, $A9, $D1;
206+  C7C4 E3 64 A9 D1
206+  C7C8 F6 FF FF FA
206+  C7CC FA F6 A9 D1
207+  C7D0 E3 64 64 E3  	db  $E3, $64, $64, $E3, $E3, $E3, $64, $AD, $D1, $F6, $F6, $D1, $AD, $A9, $64, $64;
207+  C7D4 E3 E3 64 AD
207+  C7D8 D1 F6 F6 D1
207+  C7DC AD A9 64 64
208+  C7E0 E3 E3 E3 E3  	db  $E3, $E3, $E3, $E3, $E3, $E3, $E3, $64, $64, $A9, $A9, $64, $E3, $E3, $E3, $E3;
208+  C7E4 E3 E3 E3 64
208+  C7E8 64 A9 A9 64
208+  C7EC E3 E3 E3 E3
209+  C7F0 E3 E3 E3 E3  	db  $E3, $E3, $E3, $E3, $E3, $E3, $E3, $E3, $E3, $E3, $E3, $E3, $E3, $E3, $E3, $E3;
209+  C7F4 E3 E3 E3 E3
209+  C7F8 E3 E3 E3 E3
209+  C7FC E3 E3 E3 E3
210+  C800
211+  C800
212+  C800
213+  C800              Caveman_Walk_A_9:
214+  C800 AD 0D 11 64  	db  $AD, $0D, $11, $64, $64, $E3, $E3, $E3, $E3, $E3, $E3, $E3, $E3, $E3, $E3, $E3;
214+  C804 64 E3 E3 E3
214+  C808 E3 E3 E3 E3
214+  C80C E3 E3 E3 E3
215+  C810 0D 0D A9 A9  	db  $0D, $0D, $A9, $A9, $D1, $64, $E3, $E3, $E3, $E3, $E3, $E3, $E3, $E3, $E3, $E3;
215+  C814 D1 64 E3 E3
215+  C818 E3 E3 E3 E3
215+  C81C E3 E3 E3 E3
216+  C820 0D AD A9 D1  	db  $0D, $AD, $A9, $D1, $FA, $64, $E3, $E3, $E3, $E3, $E3, $E3, $E3, $E3, $E3, $E3;
216+  C824 FA 64 E3 E3
216+  C828 E3 E3 E3 E3
216+  C82C E3 E3 E3 E3
217+  C830 04 D1 A9 FA  	db  $04, $D1, $A9, $FA, $D1, $64, $E3, $E3, $E3, $E3, $E3, $E3, $E3, $E3, $E3, $E3;
217+  C834 D1 64 E3 E3
217+  C838 E3 E3 E3 E3
217+  C83C E3 E3 E3 E3
218+  C840 0D 15 A9 64  	db  $0D, $15, $A9, $64, $64, $A9, $E3, $E3, $E3, $E3, $E3, $E3, $E3, $E3, $E3, $E3;
218+  C844 64 A9 E3 E3
218+  C848 E3 E3 E3 E3
218+  C84C E3 E3 E3 E3
219+  C850 04 04 04 F6  	db  $04, $04, $04, $F6, $AD, $64, $E3, $E3, $E3, $E3, $E3, $E3, $E3, $E3, $E3, $E3;
219+  C854 AD 64 E3 E3
219+  C858 E3 E3 E3 E3
219+  C85C E3 E3 E3 E3
220+  C860 E3 E3 04 FA  	db  $E3, $E3, $04, $FA, $64, $E3, $E3, $E3, $E3, $E3, $E3, $E3, $E3, $E3, $E3, $E3;
220+  C864 64 E3 E3 E3
220+  C868 E3 E3 E3 E3
220+  C86C E3 E3 E3 E3
221+  C870 E3 E3 A9 A9  	db  $E3, $E3, $A9, $A9, $E3, $E3, $E3, $E3, $E3, $E3, $E3, $E3, $E3, $E3, $E3, $E3;
221+  C874 E3 E3 E3 E3
221+  C878 E3 E3 E3 E3
221+  C87C E3 E3 E3 E3
222+  C880 E3 A9 F6 D1  	db  $E3, $A9, $F6, $D1, $A9, $E3, $E3, $E3, $E3, $E3, $E3, $E3, $E3, $E3, $E3, $E3;
222+  C884 A9 E3 E3 E3
222+  C888 E3 E3 E3 E3
222+  C88C E3 E3 E3 E3
223+  C890 D1 AD FA F6  	db  $D1, $AD, $FA, $F6, $AD, $E3, $E3, $E3, $E3, $E3, $E3, $E3, $E3, $E3, $E3, $E3;
223+  C894 AD E3 E3 E3
223+  C898 E3 E3 E3 E3
223+  C89C E3 E3 E3 E3
224+  C8A0 FA F6 A9 AD  	db  $FA, $F6, $A9, $AD, $64, $E3, $E3, $E3, $E3, $E3, $E3, $E3, $E3, $E3, $E3, $E3;
224+  C8A4 64 E3 E3 E3
224+  C8A8 E3 E3 E3 E3
224+  C8AC E3 E3 E3 E3
225+  C8B0 A9 D1 A9 64  	db  $A9, $D1, $A9, $64, $E3, $E3, $E3, $E3, $E3, $E3, $E3, $E3, $E3, $E3, $E3, $E3;
225+  C8B4 E3 E3 E3 E3
225+  C8B8 E3 E3 E3 E3
225+  C8BC E3 E3 E3 E3
226+  C8C0 A9 64 E3 E3  	db  $A9, $64, $E3, $E3, $E3, $E3, $E3, $E3, $E3, $E3, $E3, $E3, $E3, $E3, $E3, $E3;
226+  C8C4 E3 E3 E3 E3
226+  C8C8 E3 E3 E3 E3
226+  C8CC E3 E3 E3 E3
227+  C8D0 E3 E3 E3 E3  	db  $E3, $E3, $E3, $E3, $E3, $E3, $E3, $E3, $E3, $E3, $E3, $E3, $E3, $E3, $E3, $E3;
227+  C8D4 E3 E3 E3 E3
227+  C8D8 E3 E3 E3 E3
227+  C8DC E3 E3 E3 E3
228+  C8E0 E3 E3 E3 E3  	db  $E3, $E3, $E3, $E3, $E3, $E3, $E3, $E3, $E3, $E3, $E3, $E3, $E3, $E3, $E3, $E3;
228+  C8E4 E3 E3 E3 E3
228+  C8E8 E3 E3 E3 E3
228+  C8EC E3 E3 E3 E3
229+  C8F0 E3 E3 E3 E3  	db  $E3, $E3, $E3, $E3, $E3, $E3, $E3, $E3, $E3, $E3, $E3, $E3, $E3, $E3, $E3, $E3;
229+  C8F4 E3 E3 E3 E3
229+  C8F8 E3 E3 E3 E3
229+  C8FC E3 E3 E3 E3
230+  C900
231+  C900              Caveman_Walk_B_1:
232+  C900 E3 E3 E3 E3  	db  $E3, $E3, $E3, $E3, $E3, $E3, $E3, $E3, $E3, $E3, $E3, $E3, $E3, $E3, $E3, $0D;
232+  C904 E3 E3 E3 E3
232+  C908 E3 E3 E3 E3
232+  C90C E3 E3 E3 0D
233+  C910 E3 E3 E3 E3  	db  $E3, $E3, $E3, $E3, $E3, $E3, $E3, $E3, $E3, $E3, $E3, $E3, $E3, $E3, $E3, $E3;
233+  C914 E3 E3 E3 E3
233+  C918 E3 E3 E3 E3
233+  C91C E3 E3 E3 E3
234+  C920 E3 E3 E3 E3  	db  $E3, $E3, $E3, $E3, $E3, $E3, $E3, $E3, $E3, $E3, $E3, $E3, $E3, $E3, $E3, $11;
234+  C924 E3 E3 E3 E3
234+  C928 E3 E3 E3 E3
234+  C92C E3 E3 E3 11
235+  C930 E3 E3 E3 E3  	db  $E3, $E3, $E3, $E3, $E3, $E3, $E3, $E3, $E3, $E3, $E3, $E3, $E3, $E3, $04, $04;
235+  C934 E3 E3 E3 E3
235+  C938 E3 E3 E3 E3
235+  C93C E3 E3 04 04
236+  C940 E3 E3 E3 E3  	db  $E3, $E3, $E3, $E3, $E3, $E3, $E3, $E3, $E3, $E3, $E3, $E3, $E3, $E3, $E3, $E3;
236+  C944 E3 E3 E3 E3
236+  C948 E3 E3 E3 E3
236+  C94C E3 E3 E3 E3
237+  C950 E3 E3 E3 E3  	db  $E3, $E3, $E3, $E3, $E3, $E3, $E3, $E3, $E3, $E3, $E3, $E3, $E3, $E3, $E3, $E3;
237+  C954 E3 E3 E3 E3
237+  C958 E3 E3 E3 E3
237+  C95C E3 E3 E3 E3
238+  C960 E3 E3 E3 E3  	db  $E3, $E3, $E3, $E3, $E3, $E3, $E3, $E3, $E3, $E3, $E3, $E3, $E3, $E3, $E3, $0D;
238+  C964 E3 E3 E3 E3
238+  C968 E3 E3 E3 E3
238+  C96C E3 E3 E3 0D
239+  C970 E3 E3 E3 E3  	db  $E3, $E3, $E3, $E3, $E3, $E3, $E3, $E3, $E3, $E3, $E3, $E3, $E3, $E3, $0D, $11;
239+  C974 E3 E3 E3 E3
239+  C978 E3 E3 E3 E3
239+  C97C E3 E3 0D 11
240+  C980 E3 E3 E3 E3  	db  $E3, $E3, $E3, $E3, $E3, $E3, $E3, $E3, $E3, $E3, $E3, $E3, $E3, $E3, $E3, $04;
240+  C984 E3 E3 E3 E3
240+  C988 E3 E3 E3 E3
240+  C98C E3 E3 E3 04
241+  C990 E3 E3 E3 E3  	db  $E3, $E3, $E3, $E3, $E3, $E3, $E3, $E3, $E3, $E3, $E3, $E3, $E3, $E3, $0D, $11;
241+  C994 E3 E3 E3 E3
241+  C998 E3 E3 E3 E3
241+  C99C E3 E3 0D 11
242+  C9A0 E3 E3 E3 E3  	db  $E3, $E3, $E3, $E3, $E3, $E3, $E3, $E3, $E3, $E3, $E3, $E3, $E3, $0D, $11, $0D;
242+  C9A4 E3 E3 E3 E3
242+  C9A8 E3 E3 E3 E3
242+  C9AC E3 0D 11 0D
243+  C9B0 E3 E3 E3 E3  	db  $E3, $E3, $E3, $E3, $E3, $E3, $E3, $E3, $E3, $E3, $E3, $E3, $0D, $04, $04, $11;
243+  C9B4 E3 E3 E3 E3
243+  C9B8 E3 E3 E3 E3
243+  C9BC 0D 04 04 11
244+  C9C0 E3 E3 E3 E3  	db  $E3, $E3, $E3, $E3, $E3, $E3, $E3, $E3, $E3, $E3, $E3, $E3, $E3, $E3, $04, $0D;
244+  C9C4 E3 E3 E3 E3
244+  C9C8 E3 E3 E3 E3
244+  C9CC E3 E3 04 0D
245+  C9D0 E3 E3 E3 E3  	db  $E3, $E3, $E3, $E3, $E3, $E3, $E3, $E3, $E3, $E3, $E3, $E3, $E3, $64, $64, $64;
245+  C9D4 E3 E3 E3 E3
245+  C9D8 E3 E3 E3 E3
245+  C9DC E3 64 64 64
246+  C9E0 E3 E3 E3 E3  	db  $E3, $E3, $E3, $E3, $E3, $E3, $E3, $E3, $E3, $E3, $E3, $E3, $64, $A9, $AD, $AD;
246+  C9E4 E3 E3 E3 E3
246+  C9E8 E3 E3 E3 E3
246+  C9EC 64 A9 AD AD
247+  C9F0 E3 E3 E3 E3  	db  $E3, $E3, $E3, $E3, $E3, $E3, $E3, $E3, $E3, $E3, $E3, $64, $D1, $F6, $FA, $FA;
247+  C9F4 E3 E3 E3 E3
247+  C9F8 E3 E3 E3 64
247+  C9FC D1 F6 FA FA
248+  CA00
249+  CA00
250+  CA00
251+  CA00              Caveman_Walk_B_2:
252+  CA00 0D E3 E3 0D  	db  $0D, $E3, $E3, $0D, $E3, $E3, $0D, $E3, $E3, $E3, $E3, $E3, $E3, $E3, $E3, $E3;
252+  CA04 E3 E3 0D E3
252+  CA08 E3 E3 E3 E3
252+  CA0C E3 E3 E3 E3
253+  CA10 04 0D E3 11  	db  $04, $0D, $E3, $11, $E3, $11, $E3, $E3, $E3, $E3, $E3, $E3, $E3, $E3, $E3, $E3;
253+  CA14 E3 11 E3 E3
253+  CA18 E3 E3 E3 E3
253+  CA1C E3 E3 E3 E3
254+  CA20 11 04 0D 11  	db  $11, $04, $0D, $11, $15, $0D, $E3, $E3, $E3, $11, $11, $11, $11, $E3, $E3, $E3;
254+  CA24 15 0D E3 E3
254+  CA28 E3 11 11 11
254+  CA2C 11 E3 E3 E3
255+  CA30 11 15 11 0D  	db  $11, $15, $11, $0D, $15, $0D, $FF, $E3, $11, $0D, $0D, $E3, $E3, $E3, $E3, $E3;
255+  CA34 15 0D FF E3
255+  CA38 11 0D 0D E3
255+  CA3C E3 E3 E3 E3
256+  CA40 04 0D 15 0D  	db  $04, $0D, $15, $0D, $11, $0D, $FF, $0D, $11, $11, $15, $15, $11, $11, $11, $11;
256+  CA44 11 0D FF 0D
256+  CA48 11 11 15 15
256+  CA4C 11 11 11 11
257+  CA50 E3 04 04 11  	db  $E3, $04, $04, $11, $0D, $FF, $0D, $15, $0D, $11, $0D, $11, $15, $0D, $0D, $E3;
257+  CA54 0D FF 0D 15
257+  CA58 0D 11 0D 11
257+  CA5C 15 0D 0D E3
258+  CA60 0D 6D 6D B6  	db  $0D, $6D, $6D, $B6, $B6, $0D, $0D, $11, $15, $04, $11, $0D, $11, $15, $11, $0D;
258+  CA64 B6 0D 0D 11
258+  CA68 15 04 11 0D
258+  CA6C 11 15 11 0D
259+  CA70 11 11 11 0D  	db  $11, $11, $11, $0D, $0D, $11, $0D, $0D, $15, $A9, $04, $11, $64, $11, $15, $11;
259+  CA74 0D 11 0D 0D
259+  CA78 15 A9 04 11
259+  CA7C 64 11 15 11
260+  CA80 04 0D 0D 11  	db  $04, $0D, $0D, $11, $0D, $15, $A9, $0D, $15, $AD, $A9, $11, $AD, $64, $11, $15;
260+  CA84 0D 15 A9 0D
260+  CA88 15 AD A9 11
260+  CA8C AD 64 11 15
261+  CA90 11 0D 11 15  	db  $11, $0D, $11, $15, $0D, $15, $AD, $11, $6D, $B6, $B6, $0D, $B6, $6D, $04, $11;
261+  CA94 0D 15 AD 11
261+  CA98 6D B6 B6 0D
261+  CA9C B6 6D 04 11
262+  CAA0 D1 A9 11 15  	db  $D1, $A9, $11, $15, $0D, $11, $D1, $11, $B6, $FF, $FF, $AD, $FF, $B6, $E3, $0D;
262+  CAA4 0D 11 D1 11
262+  CAA8 B6 FF FF AD
262+  CAAC FF B6 E3 0D
263+  CAB0 FA D1 11 15  	db  $FA, $D1, $11, $15, $0D, $AD, $F6, $0D, $FF, $FF, $04, $AD, $04, $FF, $E3, $04;
263+  CAB4 0D AD F6 0D
263+  CAB8 FF FF 04 AD
263+  CABC 04 FF E3 04
264+  CAC0 F6 FA 11 15  	db  $F6, $FA, $11, $15, $A9, $D1, $F6, $AD, $FF, $FF, $6D, $D1, $6D, $FF, $E3, $E3;
264+  CAC4 A9 D1 F6 AD
264+  CAC8 FF FF 6D D1
264+  CACC 6D FF E3 E3
265+  CAD0 D1 FA 11 15  	db  $D1, $FA, $11, $15, $AD, $F6, $FA, $AD, $B6, $FF, $04, $D1, $A9, $AD, $AD, $E3;
265+  CAD4 AD F6 FA AD
265+  CAD8 B6 FF 04 D1
265+  CADC A9 AD AD E3
266+  CAE0 64 AD 11 15  	db  $64, $AD, $11, $15, $D1, $FA, $FF, $FA, $AD, $B6, $FF, $F6, $FA, $FA, $F6, $A9;
266+  CAE4 D1 FA FF FA
266+  CAE8 AD B6 FF F6
266+  CAEC FA FA F6 A9
267+  CAF0 D1 64 11 11  	db  $D1, $64, $11, $11, $D1, $FF, $FA, $FF, $F6, $AD, $AD, $D1, $FA, $FF, $FA, $64;
267+  CAF4 D1 FF FA FF
267+  CAF8 F6 AD AD D1
267+  CAFC FA FF FA 64
268+  CB00
269+  CB00
270+  CB00
271+  CB00              Caveman_Walk_B_3:
272+  CB00 E3 E3 E3 E3  	db  $E3, $E3, $E3, $E3, $E3, $E3, $E3, $E3, $E3, $E3, $E3, $E3, $E3, $E3, $E3, $E3;
272+  CB04 E3 E3 E3 E3
272+  CB08 E3 E3 E3 E3
272+  CB0C E3 E3 E3 E3
273+  CB10 E3 E3 E3 E3  	db  $E3, $E3, $E3, $E3, $E3, $E3, $E3, $E3, $E3, $E3, $E3, $E3, $E3, $E3, $E3, $E3;
273+  CB14 E3 E3 E3 E3
273+  CB18 E3 E3 E3 E3
273+  CB1C E3 E3 E3 E3
274+  CB20 E3 E3 E3 E3  	db  $E3, $E3, $E3, $E3, $E3, $E3, $E3, $E3, $E3, $E3, $E3, $E3, $E3, $E3, $E3, $E3;
274+  CB24 E3 E3 E3 E3
274+  CB28 E3 E3 E3 E3
274+  CB2C E3 E3 E3 E3
275+  CB30 E3 E3 E3 E3  	db  $E3, $E3, $E3, $E3, $E3, $E3, $E3, $E3, $E3, $E3, $E3, $E3, $E3, $E3, $E3, $E3;
275+  CB34 E3 E3 E3 E3
275+  CB38 E3 E3 E3 E3
275+  CB3C E3 E3 E3 E3
276+  CB40 E3 E3 E3 E3  	db  $E3, $E3, $E3, $E3, $E3, $E3, $E3, $E3, $E3, $E3, $E3, $E3, $E3, $E3, $E3, $E3;
276+  CB44 E3 E3 E3 E3
276+  CB48 E3 E3 E3 E3
276+  CB4C E3 E3 E3 E3
277+  CB50 E3 E3 E3 E3  	db  $E3, $E3, $E3, $E3, $E3, $E3, $E3, $E3, $E3, $E3, $E3, $E3, $E3, $E3, $E3, $E3;
277+  CB54 E3 E3 E3 E3
277+  CB58 E3 E3 E3 E3
277+  CB5C E3 E3 E3 E3
278+  CB60 E3 E3 E3 E3  	db  $E3, $E3, $E3, $E3, $E3, $E3, $E3, $E3, $E3, $E3, $E3, $E3, $E3, $E3, $E3, $E3;
278+  CB64 E3 E3 E3 E3
278+  CB68 E3 E3 E3 E3
278+  CB6C E3 E3 E3 E3
279+  CB70 E3 E3 E3 E3  	db  $E3, $E3, $E3, $E3, $E3, $E3, $E3, $E3, $E3, $E3, $E3, $E3, $E3, $E3, $E3, $E3;
279+  CB74 E3 E3 E3 E3
279+  CB78 E3 E3 E3 E3
279+  CB7C E3 E3 E3 E3
280+  CB80 11 E3 E3 E3  	db  $11, $E3, $E3, $E3, $E3, $E3, $E3, $E3, $E3, $E3, $E3, $E3, $E3, $E3, $E3, $E3;
280+  CB84 E3 E3 E3 E3
280+  CB88 E3 E3 E3 E3
280+  CB8C E3 E3 E3 E3
281+  CB90 11 E3 E3 E3  	db  $11, $E3, $E3, $E3, $E3, $E3, $E3, $E3, $E3, $E3, $E3, $E3, $E3, $E3, $E3, $E3;
281+  CB94 E3 E3 E3 E3
281+  CB98 E3 E3 E3 E3
281+  CB9C E3 E3 E3 E3
282+  CBA0 11 E3 E3 E3  	db  $11, $E3, $E3, $E3, $E3, $E3, $E3, $E3, $E3, $E3, $E3, $E3, $E3, $E3, $E3, $E3;
282+  CBA4 E3 E3 E3 E3
282+  CBA8 E3 E3 E3 E3
282+  CBAC E3 E3 E3 E3
283+  CBB0 0D E3 E3 E3  	db  $0D, $E3, $E3, $E3, $E3, $E3, $E3, $E3, $E3, $E3, $E3, $E3, $E3, $E3, $E3, $E3;
283+  CBB4 E3 E3 E3 E3
283+  CBB8 E3 E3 E3 E3
283+  CBBC E3 E3 E3 E3
284+  CBC0 0D E3 E3 E3  	db  $0D, $E3, $E3, $E3, $E3, $E3, $E3, $E3, $E3, $E3, $E3, $E3, $E3, $E3, $E3, $E3;
284+  CBC4 E3 E3 E3 E3
284+  CBC8 E3 E3 E3 E3
284+  CBCC E3 E3 E3 E3
285+  CBD0 0D E3 E3 E3  	db  $0D, $E3, $E3, $E3, $E3, $E3, $E3, $E3, $E3, $E3, $E3, $E3, $E3, $E3, $E3, $E3;
285+  CBD4 E3 E3 E3 E3
285+  CBD8 E3 E3 E3 E3
285+  CBDC E3 E3 E3 E3
286+  CBE0 E3 E3 E3 E3  	db  $E3, $E3, $E3, $E3, $E3, $E3, $E3, $E3, $E3, $E3, $E3, $E3, $E3, $E3, $E3, $E3;
286+  CBE4 E3 E3 E3 E3
286+  CBE8 E3 E3 E3 E3
286+  CBEC E3 E3 E3 E3
287+  CBF0 A9 A9 E3 E3  	db  $A9, $A9, $E3, $E3, $E3, $E3, $E3, $E3, $E3, $E3, $E3, $E3, $E3, $E3, $E3, $E3;
287+  CBF4 E3 E3 E3 E3
287+  CBF8 E3 E3 E3 E3
287+  CBFC E3 E3 E3 E3
288+  CC00
289+  CC00
290+  CC00
291+  CC00              Caveman_Walk_B_4:
292+  CC00 E3 E3 E3 E3  	db  $E3, $E3, $E3, $E3, $E3, $E3, $E3, $64, $64, $AD, $D1, $F6, $FA, $FA, $FF, $FF;
292+  CC04 E3 E3 E3 64
292+  CC08 64 AD D1 F6
292+  CC0C FA FA FF FF
293+  CC10 E3 E3 E3 E3  	db  $E3, $E3, $E3, $E3, $E3, $E3, $64, $AD, $D1, $F6, $F6, $FA, $FA, $FF, $FF, $FF;
293+  CC14 E3 E3 64 AD
293+  CC18 D1 F6 F6 FA
293+  CC1C FA FF FF FF
294+  CC20 E3 E3 E3 E3  	db  $E3, $E3, $E3, $E3, $E3, $E3, $A9, $D1, $D1, $D1, $F6, $F6, $FA, $FA, $FA, $FA;
294+  CC24 E3 E3 A9 D1
294+  CC28 D1 D1 F6 F6
294+  CC2C FA FA FA FA
295+  CC30 E3 E3 E3 E3  	db  $E3, $E3, $E3, $E3, $E3, $A9, $D1, $F6, $F6, $D1, $D1, $F6, $F6, $F6, $F6, $F6;
295+  CC34 E3 A9 D1 F6
295+  CC38 F6 D1 D1 F6
295+  CC3C F6 F6 F6 F6
296+  CC40 E3 E3 E3 E3  	db  $E3, $E3, $E3, $E3, $E3, $A9, $F6, $FA, $FA, $F6, $AD, $D1, $D1, $D1, $D1, $D1;
296+  CC44 E3 A9 F6 FA
296+  CC48 FA F6 AD D1
296+  CC4C D1 D1 D1 D1
297+  CC50 E3 E3 E3 E3  	db  $E3, $E3, $E3, $E3, $E3, $AD, $F6, $FA, $FF, $FA, $AD, $A9, $AD, $AD, $A9, $A9;
297+  CC54 E3 AD F6 FA
297+  CC58 FF FA AD A9
297+  CC5C AD AD A9 A9
298+  CC60 E3 E3 E3 E3  	db  $E3, $E3, $E3, $E3, $E3, $AD, $F6, $FA, $FF, $FF, $F6, $64, $64, $64, $64, $A9;
298+  CC64 E3 AD F6 FA
298+  CC68 FF FF F6 64
298+  CC6C 64 64 64 A9
299+  CC70 E3 E3 E3 E3  	db  $E3, $E3, $E3, $E3, $E3, $AD, $D1, $FA, $FA, $FF, $F6, $64, $E3, $E3, $E3, $64;
299+  CC74 E3 AD D1 FA
299+  CC78 FA FF F6 64
299+  CC7C E3 E3 E3 64
300+  CC80 E3 E3 E3 E3  	db  $E3, $E3, $E3, $E3, $E3, $A9, $AD, $D1, $15, $15, $15, $64, $E3, $E3, $E3, $64;
300+  CC84 E3 A9 AD D1
300+  CC88 15 15 15 64
300+  CC8C E3 E3 E3 64
301+  CC90 E3 E3 E3 E3  	db  $E3, $E3, $E3, $E3, $E3, $E3, $A9, $15, $15, $FF, $11, $11, $E3, $E3, $E3, $64;
301+  CC94 E3 E3 A9 15
301+  CC98 15 FF 11 11
301+  CC9C E3 E3 E3 64
302+  CCA0 E3 E3 E3 E3  	db  $E3, $E3, $E3, $E3, $E3, $E3, $0D, $11, $11, $0D, $A9, $AD, $AD, $A9, $E3, $E3;
302+  CCA4 E3 E3 0D 11
302+  CCA8 11 0D A9 AD
302+  CCAC AD A9 E3 E3
303+  CCB0 E3 E3 E3 E3  	db  $E3, $E3, $E3, $E3, $E3, $E3, $0D, $0D, $0D, $A9, $D1, $F6, $F6, $F6, $A9, $E3;
303+  CCB4 E3 E3 0D 0D
303+  CCB8 0D A9 D1 F6
303+  CCBC F6 F6 A9 E3
304+  CCC0 E3 E3 E3 E3  	db  $E3, $E3, $E3, $E3, $E3, $E3, $E3, $0D, $A9, $D1, $F6, $FA, $FF, $FA, $D1, $E3;
304+  CCC4 E3 E3 E3 0D
304+  CCC8 A9 D1 F6 FA
304+  CCCC FF FA D1 E3
305+  CCD0 E3 E3 E3 E3  	db  $E3, $E3, $E3, $E3, $E3, $E3, $E3, $0D, $A9, $F6, $FA, $FF, $FA, $AD, $A9, $E3;
305+  CCD4 E3 E3 E3 0D
305+  CCD8 A9 F6 FA FF
305+  CCDC FA AD A9 E3
306+  CCE0 E3 E3 E3 E3  	db  $E3, $E3, $E3, $E3, $E3, $E3, $E3, $E3, $A9, $F6, $FA, $FA, $FA, $F6, $64, $E3;
306+  CCE4 E3 E3 E3 E3
306+  CCE8 A9 F6 FA FA
306+  CCEC FA F6 64 E3
307+  CCF0 E3 E3 E3 E3  	db  $E3, $E3, $E3, $E3, $E3, $E3, $E3, $E3, $E3, $AD, $F6, $F6, $AD, $F6, $E3, $E3;
307+  CCF4 E3 E3 E3 E3
307+  CCF8 E3 AD F6 F6
307+  CCFC AD F6 E3 E3
308+  CD00
309+  CD00
310+  CD00
311+  CD00              Caveman_Walk_B_5:
312+  CD00 FA AD 11 11  	db  $FA, $AD, $11, $11, $D1, $FA, $FA, $FA, $FA, $D1, $D1, $A9, $D1, $F6, $D1, $64;
312+  CD04 D1 FA FA FA
312+  CD08 FA D1 D1 A9
312+  CD0C D1 F6 D1 64
313+  CD10 FA D1 11 0D  	db  $FA, $D1, $11, $0D, $D1, $FA, $F6, $D1, $D1, $FA, $FA, $D1, $64, $64, $64, $A9;
313+  CD14 D1 FA F6 D1
313+  CD18 D1 FA FA D1
313+  CD1C 64 64 64 A9
314+  CD20 FA D1 0D 0D  	db  $FA, $D1, $0D, $0D, $AD, $F6, $D1, $AD, $A9, $AD, $D1, $F6, $FA, $F6, $D1, $64;
314+  CD24 AD F6 D1 AD
314+  CD28 A9 AD D1 F6
314+  CD2C FA F6 D1 64
315+  CD30 F6 D1 0D 64  	db  $F6, $D1, $0D, $64, $AD, $F6, $D1, $A9, $A9, $A9, $A9, $A9, $A9, $A9, $64, $D1;
315+  CD34 AD F6 D1 A9
315+  CD38 A9 A9 A9 A9
315+  CD3C A9 A9 64 D1
316+  CD40 D1 AD 0D A9  	db  $D1, $AD, $0D, $A9, $64, $D1, $F6, $CD, $CD, $CD, $A9, $A9, $A9, $64, $D1, $D1;
316+  CD44 64 D1 F6 CD
316+  CD48 CD CD A9 A9
316+  CD4C A9 64 D1 D1
317+  CD50 AD AD AD AD  	db  $AD, $AD, $AD, $AD, $64, $AD, $F6, $CD, $CD, $CD, $CD, $CD, $A9, $64, $D1, $D1;
317+  CD54 64 AD F6 CD
317+  CD58 CD CD CD CD
317+  CD5C A9 64 D1 D1
318+  CD60 AD D1 AD D1  	db  $AD, $D1, $AD, $D1, $AD, $64, $D1, $F6, $CD, $CD, $CD, $CD, $CD, $AD, $64, $D1;
318+  CD64 AD 64 D1 F6
318+  CD68 CD CD CD CD
318+  CD6C CD AD 64 D1
319+  CD70 AD D1 AD F6  	db  $AD, $D1, $AD, $F6, $D1, $64, $A9, $D1, $F6, $CD, $CD, $CD, $D1, $F6, $64, $D1;
319+  CD74 D1 64 A9 D1
319+  CD78 F6 CD CD CD
319+  CD7C D1 F6 64 D1
320+  CD80 AD D1 AD F6  	db  $AD, $D1, $AD, $F6, $F6, $AD, $64, $64, $AD, $F6, $FA, $FF, $F6, $64, $AD, $D1;
320+  CD84 F6 AD 64 64
320+  CD88 AD F6 FA FF
320+  CD8C F6 64 AD D1
321+  CD90 A9 D1 AD F6  	db  $A9, $D1, $AD, $F6, $FA, $D1, $AD, $AD, $64, $64, $64, $64, $64, $AD, $D1, $D1;
321+  CD94 FA D1 AD AD
321+  CD98 64 64 64 64
321+  CD9C 64 AD D1 D1
322+  CDA0 64 D1 A9 D1  	db  $64, $D1, $A9, $D1, $FA, $F6, $D1, $D1, $AD, $AD, $AD, $AD, $AD, $D1, $FA, $AD;
322+  CDA4 FA F6 D1 D1
322+  CDA8 AD AD AD AD
322+  CDAC AD D1 FA AD
323+  CDB0 64 AD A9 AD  	db  $64, $AD, $A9, $AD, $F6, $FF, $FA, $F6, $F6, $D1, $D1, $D1, $F6, $FA, $F6, $64;
323+  CDB4 F6 FF FA F6
323+  CDB8 F6 D1 D1 D1
323+  CDBC F6 FA F6 64
324+  CDC0 E3 64 AD A9  	db  $E3, $64, $AD, $A9, $AD, $D1, $D1, $D1, $D1, $D1, $A9, $D1, $D1, $D1, $AD, $64;
324+  CDC4 AD D1 D1 D1
324+  CDC8 D1 D1 A9 D1
324+  CDCC D1 D1 AD 64
325+  CDD0 E3 64 AD AD  	db  $E3, $64, $AD, $AD, $A9, $A9, $AD, $AD, $AD, $A9, $AD, $A9, $A9, $A9, $64, $E3;
325+  CDD4 A9 A9 AD AD
325+  CDD8 AD A9 AD A9
325+  CDDC A9 A9 64 E3
326+  CDE0 64 64 64 AD  	db  $64, $64, $64, $AD, $AD, $D1, $D1, $D1, $D1, $F6, $F6, $F6, $D1, $04, $E3, $E3;
326+  CDE4 AD D1 D1 D1
326+  CDE8 D1 F6 F6 F6
326+  CDEC D1 04 E3 E3
327+  CDF0 11 11 0D 64  	db  $11, $11, $0D, $64, $A9, $AD, $D1, $D1, $F6, $FA, $FA, $FA, $A9, $04, $0D, $E3;
327+  CDF4 A9 AD D1 D1
327+  CDF8 F6 FA FA FA
327+  CDFC A9 04 0D E3
328+  CE00
329+  CE00
330+  CE00
331+  CE00              Caveman_Walk_B_6:
332+  CE00 D1 AD A9 E3  	db  $D1, $AD, $A9, $E3, $E3, $E3, $E3, $E3, $64, $AD, $A9, $E3, $E3, $E3, $E3, $E3;
332+  CE04 E3 E3 E3 E3
332+  CE08 64 AD A9 E3
332+  CE0C E3 E3 E3 E3
333+  CE10 FA D1 64 E3  	db  $FA, $D1, $64, $E3, $E3, $E3, $E3, $64, $AD, $A9, $FA, $AD, $E3, $E3, $E3, $E3;
333+  CE14 E3 E3 E3 64
333+  CE18 AD A9 FA AD
333+  CE1C E3 E3 E3 E3
334+  CE20 FA F6 64 E3  	db  $FA, $F6, $64, $E3, $E3, $E3, $64, $A9, $FA, $FA, $A9, $F6, $A9, $E3, $E3, $E3;
334+  CE24 E3 E3 64 A9
334+  CE28 FA FA A9 F6
334+  CE2C A9 E3 E3 E3
335+  CE30 F6 F6 64 E3  	db  $F6, $F6, $64, $E3, $E3, $E3, $64, $D1, $F6, $D1, $FA, $A9, $AD, $E3, $E3, $E3;
335+  CE34 E3 E3 64 D1
335+  CE38 F6 D1 FA A9
335+  CE3C AD E3 E3 E3
336+  CE40 AD F6 64 E3  	db  $AD, $F6, $64, $E3, $E3, $E3, $64, $A9, $D1, $A9, $D1, $A9, $F6, $E3, $E3, $E3;
336+  CE44 E3 E3 64 A9
336+  CE48 D1 A9 D1 A9
336+  CE4C F6 E3 E3 E3
337+  CE50 A9 D1 AD 64  	db  $A9, $D1, $AD, $64, $E3, $E3, $0D, $64, $A9, $64, $64, $D1, $AD, $E3, $E3, $E3;
337+  CE54 E3 E3 0D 64
337+  CE58 A9 64 64 D1
337+  CE5C AD E3 E3 E3
338+  CE60 64 D1 D1 A9  	db  $64, $D1, $D1, $A9, $64, $64, $15, $FF, $64, $A9, $AD, $AD, $64, $E3, $E3, $E3;
338+  CE64 64 64 15 FF
338+  CE68 64 A9 AD AD
338+  CE6C 64 E3 E3 E3
339+  CE70 64 D1 D1 A9  	db  $64, $D1, $D1, $A9, $AD, $D1, $11, $11, $0D, $64, $A9, $64, $E3, $E3, $E3, $E3;
339+  CE74 AD D1 11 11
339+  CE78 0D 64 A9 64
339+  CE7C E3 E3 E3 E3
340+  CE80 64 D1 AD F6  	db  $64, $D1, $AD, $F6, $F6, $F6, $D1, $0D, $11, $0D, $0D, $E3, $E3, $E3, $E3, $E3;
340+  CE84 F6 F6 D1 0D
340+  CE88 11 0D 0D E3
340+  CE8C E3 E3 E3 E3
341+  CE90 64 AD F6 FA  	db  $64, $AD, $F6, $FA, $FA, $FA, $F6, $AD, $0D, $0D, $E3, $E3, $E3, $E3, $E3, $E3;
341+  CE94 FA FA F6 AD
341+  CE98 0D 0D E3 E3
341+  CE9C E3 E3 E3 E3
342+  CEA0 64 AD F6 FA  	db  $64, $AD, $F6, $FA, $FA, $F6, $F6, $AD, $64, $E3, $E3, $E3, $E3, $E3, $E3, $E3;
342+  CEA4 FA F6 F6 AD
342+  CEA8 64 E3 E3 E3
342+  CEAC E3 E3 E3 E3
343+  CEB0 64 A9 D1 F6  	db  $64, $A9, $D1, $F6, $F6, $F6, $D1, $64, $E3, $E3, $E3, $E3, $E3, $E3, $E3, $E3;
343+  CEB4 F6 F6 D1 64
343+  CEB8 E3 E3 E3 E3
343+  CEBC E3 E3 E3 E3
344+  CEC0 E3 64 AD D1  	db  $E3, $64, $AD, $D1, $D1, $D1, $AD, $64, $E3, $E3, $E3, $E3, $E3, $E3, $E3, $E3;
344+  CEC4 D1 D1 AD 64
344+  CEC8 E3 E3 E3 E3
344+  CECC E3 E3 E3 E3
345+  CED0 E3 E3 64 AD  	db  $E3, $E3, $64, $AD, $D1, $AD, $64, $E3, $E3, $E3, $E3, $E3, $E3, $E3, $E3, $E3;
345+  CED4 D1 AD 64 E3
345+  CED8 E3 E3 E3 E3
345+  CEDC E3 E3 E3 E3
346+  CEE0 E3 E3 E3 64  	db  $E3, $E3, $E3, $64, $64, $64, $E3, $E3, $E3, $A9, $64, $E3, $E3, $E3, $E3, $E3;
346+  CEE4 64 64 E3 E3
346+  CEE8 E3 A9 64 E3
346+  CEEC E3 E3 E3 E3
347+  CEF0 E3 E3 E3 E3  	db  $E3, $E3, $E3, $E3, $E3, $E3, $E3, $E3, $A9, $D1, $A9, $64, $E3, $E3, $E3, $E3;
347+  CEF4 E3 E3 E3 E3
347+  CEF8 A9 D1 A9 64
347+  CEFC E3 E3 E3 E3
348+  CF00
349+  CF00
350+  CF00
351+  CF00              Caveman_Walk_B_7:
352+  CF00 E3 E3 E3 E3  	db  $E3, $E3, $E3, $E3, $E3, $E3, $E3, $E3, $E3, $E3, $64, $64, $A9, $64, $00, $0D;
352+  CF04 E3 E3 E3 E3
352+  CF08 E3 E3 64 64
352+  CF0C A9 64 00 0D
353+  CF10 E3 E3 E3 E3  	db  $E3, $E3, $E3, $E3, $E3, $E3, $E3, $E3, $E3, $E3, $A9, $AD, $AD, $A9, $11, $11;
353+  CF14 E3 E3 E3 E3
353+  CF18 E3 E3 A9 AD
353+  CF1C AD A9 11 11
354+  CF20 E3 E3 E3 E3  	db  $E3, $E3, $E3, $E3, $E3, $E3, $E3, $E3, $E3, $64, $AD, $D1, $D1, $AD, $11, $0D;
354+  CF24 E3 E3 E3 E3
354+  CF28 E3 64 AD D1
354+  CF2C D1 AD 11 0D
355+  CF30 E3 E3 E3 E3  	db  $E3, $E3, $E3, $E3, $E3, $E3, $E3, $E3, $E3, $A9, $D1, $FA, $FA, $D1, $04, $04;
355+  CF34 E3 E3 E3 E3
355+  CF38 E3 A9 D1 FA
355+  CF3C FA D1 04 04
356+  CF40 E3 E3 E3 E3  	db  $E3, $E3, $E3, $E3, $E3, $E3, $E3, $E3, $64, $AD, $F6, $FF, $FA, $D1, $AD, $04;
356+  CF44 E3 E3 E3 E3
356+  CF48 64 AD F6 FF
356+  CF4C FA D1 AD 04
357+  CF50 E3 E3 E3 E3  	db  $E3, $E3, $E3, $E3, $E3, $E3, $E3, $E3, $64, $D1, $FA, $FF, $FA, $D1, $D1, $AD;
357+  CF54 E3 E3 E3 E3
357+  CF58 64 D1 FA FF
357+  CF5C FA D1 D1 AD
358+  CF60 E3 E3 E3 E3  	db  $E3, $E3, $E3, $E3, $E3, $E3, $E3, $64, $A9, $F6, $FF, $FA, $D1, $A9, $AD, $AD;
358+  CF64 E3 E3 E3 64
358+  CF68 A9 F6 FF FA
358+  CF6C D1 A9 AD AD
359+  CF70 E3 E3 E3 E3  	db  $E3, $E3, $E3, $E3, $E3, $E3, $E3, $64, $AD, $F6, $FA, $F6, $AD, $64, $64, $A9;
359+  CF74 E3 E3 E3 64
359+  CF78 AD F6 FA F6
359+  CF7C AD 64 64 A9
360+  CF80 E3 E3 E3 E3  	db  $E3, $E3, $E3, $E3, $E3, $E3, $E3, $64, $AD, $F6, $F6, $AD, $64, $E3, $E3, $64;
360+  CF84 E3 E3 E3 64
360+  CF88 AD F6 F6 AD
360+  CF8C 64 E3 E3 64
361+  CF90 E3 E3 E3 E3  	db  $E3, $E3, $E3, $E3, $E3, $E3, $E3, $64, $A9, $FA, $D1, $A9, $E3, $E3, $E3, $E3;
361+  CF94 E3 E3 E3 64
361+  CF98 A9 FA D1 A9
361+  CF9C E3 E3 E3 E3
362+  CFA0 E3 E3 E3 E3  	db  $E3, $E3, $E3, $E3, $E3, $E3, $E3, $64, $A9, $AD, $F6, $64, $E3, $E3, $E3, $E3;
362+  CFA4 E3 E3 E3 64
362+  CFA8 A9 AD F6 64
362+  CFAC E3 E3 E3 E3
363+  CFB0 E3 E3 E3 E3  	db  $E3, $E3, $E3, $E3, $E3, $E3, $E3, $E3, $A9, $D1, $FA, $AD, $E3, $E3, $E3, $E3;
363+  CFB4 E3 E3 E3 E3
363+  CFB8 A9 D1 FA AD
363+  CFBC E3 E3 E3 E3
364+  CFC0 E3 E3 E3 E3  	db  $E3, $E3, $E3, $E3, $E3, $E3, $E3, $E3, $64, $A9, $AD, $64, $E3, $E3, $E3, $E3;
364+  CFC4 E3 E3 E3 E3
364+  CFC8 64 A9 AD 64
364+  CFCC E3 E3 E3 E3
365+  CFD0 E3 E3 E3 E3  	db  $E3, $E3, $E3, $E3, $E3, $E3, $E3, $E3, $E3, $64, $64, $E3, $E3, $E3, $E3, $E3;
365+  CFD4 E3 E3 E3 E3
365+  CFD8 E3 64 64 E3
365+  CFDC E3 E3 E3 E3
366+  CFE0 E3 E3 E3 E3  	db  $E3, $E3, $E3, $E3, $E3, $E3, $E3, $E3, $E3, $E3, $E3, $E3, $E3, $E3, $E3, $E3;
366+  CFE4 E3 E3 E3 E3
366+  CFE8 E3 E3 E3 E3
366+  CFEC E3 E3 E3 E3
367+  CFF0 E3 E3 E3 E3  	db  $E3, $E3, $E3, $E3, $E3, $E3, $E3, $E3, $E3, $E3, $E3, $E3, $E3, $E3, $E3, $E3;
367+  CFF4 E3 E3 E3 E3
367+  CFF8 E3 E3 E3 E3
367+  CFFC E3 E3 E3 E3
368+  D000
369+  D000
370+  D000
371+  D000              Caveman_Walk_B_8:
372+  D000 11 0D 15 0D  	db  $11, $0D, $15, $0D, $11, $0D, $0D, $A9, $AD, $AD, $D1, $A9, $0D, $0D, $11, $11;
372+  D004 11 0D 0D A9
372+  D008 AD AD D1 A9
372+  D00C 0D 0D 11 11
373+  D010 0D 15 0D 11  	db  $0D, $15, $0D, $11, $15, $11, $0D, $11, $11, $0D, $11, $0D, $11, $15, $0D, $11;
373+  D014 15 11 0D 11
373+  D018 11 0D 11 0D
373+  D01C 11 15 0D 11
374+  D020 15 11 0D 11  	db  $15, $11, $0D, $11, $15, $11, $0D, $11, $15, $0D, $15, $11, $0D, $11, $15, $0D;
374+  D024 15 11 0D 11
374+  D028 15 0D 15 11
374+  D02C 0D 11 15 0D
375+  D030 15 0D 11 11  	db  $15, $0D, $11, $11, $15, $11, $0D, $11, $15, $0D, $11, $15, $11, $04, $04, $15;
375+  D034 15 11 0D 11
375+  D038 15 0D 11 15
375+  D03C 11 04 04 15
376+  D040 04 04 11 15  	db  $04, $04, $11, $15, $15, $11, $04, $11, $15, $04, $11, $15, $15, $04, $64, $AD;
376+  D044 15 11 04 11
376+  D048 15 04 11 15
376+  D04C 15 04 64 AD
377+  D050 A9 64 04 15  	db  $A9, $64, $04, $15, $11, $04, $04, $0D, $15, $04, $04, $11, $15, $04, $64, $AD;
377+  D054 11 04 04 0D
377+  D058 15 04 04 11
377+  D05C 15 04 64 AD
378+  D060 AD A9 04 15  	db  $AD, $A9, $04, $15, $04, $E3, $E3, $04, $15, $04, $E3, $E3, $11, $04, $E3, $A9;
378+  D064 04 E3 E3 04
378+  D068 15 04 E3 E3
378+  D06C 11 04 E3 A9
379+  D070 AD A9 64 04  	db  $AD, $A9, $64, $04, $64, $E3, $E3, $E3, $04, $E3, $E3, $E3, $E3, $E3, $E3, $64;
379+  D074 64 E3 E3 E3
379+  D078 04 E3 E3 E3
379+  D07C E3 E3 E3 64
380+  D080 64 A9 A9 64  	db  $64, $A9, $A9, $64, $E3, $E3, $E3, $E3, $E3, $E3, $E3, $E3, $E3, $E3, $E3, $E3;
380+  D084 E3 E3 E3 E3
380+  D088 E3 E3 E3 E3
380+  D08C E3 E3 E3 E3
381+  D090 E3 64 64 E3  	db  $E3, $64, $64, $E3, $E3, $E3, $E3, $E3, $E3, $E3, $E3, $E3, $E3, $E3, $E3, $E3;
381+  D094 E3 E3 E3 E3
381+  D098 E3 E3 E3 E3
381+  D09C E3 E3 E3 E3
382+  D0A0 E3 E3 E3 E3  	db  $E3, $E3, $E3, $E3, $E3, $E3, $E3, $E3, $E3, $E3, $E3, $E3, $E3, $E3, $E3, $E3;
382+  D0A4 E3 E3 E3 E3
382+  D0A8 E3 E3 E3 E3
382+  D0AC E3 E3 E3 E3
383+  D0B0 E3 E3 E3 E3  	db  $E3, $E3, $E3, $E3, $E3, $E3, $E3, $E3, $E3, $E3, $E3, $E3, $E3, $E3, $E3, $E3;
383+  D0B4 E3 E3 E3 E3
383+  D0B8 E3 E3 E3 E3
383+  D0BC E3 E3 E3 E3
384+  D0C0 E3 E3 E3 E3  	db  $E3, $E3, $E3, $E3, $E3, $E3, $E3, $E3, $E3, $E3, $E3, $E3, $E3, $E3, $E3, $E3;
384+  D0C4 E3 E3 E3 E3
384+  D0C8 E3 E3 E3 E3
384+  D0CC E3 E3 E3 E3
385+  D0D0 E3 E3 E3 E3  	db  $E3, $E3, $E3, $E3, $E3, $E3, $E3, $E3, $E3, $E3, $E3, $E3, $E3, $E3, $E3, $E3;
385+  D0D4 E3 E3 E3 E3
385+  D0D8 E3 E3 E3 E3
385+  D0DC E3 E3 E3 E3
386+  D0E0 E3 E3 E3 E3  	db  $E3, $E3, $E3, $E3, $E3, $E3, $E3, $E3, $E3, $E3, $E3, $E3, $E3, $E3, $E3, $E3;
386+  D0E4 E3 E3 E3 E3
386+  D0E8 E3 E3 E3 E3
386+  D0EC E3 E3 E3 E3
387+  D0F0 E3 E3 E3 E3  	db  $E3, $E3, $E3, $E3, $E3, $E3, $E3, $E3, $E3, $E3, $E3, $E3, $E3, $E3, $E3, $E3;
387+  D0F4 E3 E3 E3 E3
387+  D0F8 E3 E3 E3 E3
387+  D0FC E3 E3 E3 E3
388+  D100
389+  D100
390+  D100
391+  D100              Caveman_Walk_B_9:
392+  D100 0D E3 E3 E3  	db  $0D, $E3, $E3, $E3, $E3, $E3, $E3, $E3, $A9, $FA, $D1, $64, $E3, $E3, $E3, $E3;
392+  D104 E3 E3 E3 E3
392+  D108 A9 FA D1 64
392+  D10C E3 E3 E3 E3
393+  D110 11 0D E3 E3  	db  $11, $0D, $E3, $E3, $E3, $E3, $E3, $A9, $AD, $64, $AD, $64, $E3, $E3, $E3, $E3;
393+  D114 E3 E3 E3 A9
393+  D118 AD 64 AD 64
393+  D11C E3 E3 E3 E3
394+  D120 64 11 0D E3  	db  $64, $11, $0D, $E3, $E3, $A9, $AD, $D1, $F6, $D1, $64, $E3, $E3, $E3, $E3, $E3;
394+  D124 E3 A9 AD D1
394+  D128 F6 D1 64 E3
394+  D12C E3 E3 E3 E3
395+  D130 AD AD 64 E3  	db  $AD, $AD, $64, $E3, $A9, $AD, $F6, $F6, $A9, $AD, $64, $E3, $E3, $E3, $E3, $E3;
395+  D134 A9 AD F6 F6
395+  D138 A9 AD 64 E3
395+  D13C E3 E3 E3 E3
396+  D140 D1 F6 D1 64  	db  $D1, $F6, $D1, $64, $A9, $F6, $FA, $F6, $D1, $64, $E3, $E3, $E3, $E3, $E3, $E3;
396+  D144 A9 F6 FA F6
396+  D148 D1 64 E3 E3
396+  D14C E3 E3 E3 E3
397+  D150 F6 FA F6 D1  	db  $F6, $FA, $F6, $D1, $F6, $FA, $F6, $A9, $A9, $64, $E3, $E3, $E3, $E3, $E3, $E3;
397+  D154 F6 FA F6 A9
397+  D158 A9 64 E3 E3
397+  D15C E3 E3 E3 E3
398+  D160 D1 F6 FA FA  	db  $D1, $F6, $FA, $FA, $FA, $FA, $F6, $D1, $64, $E3, $E3, $E3, $E3, $E3, $E3, $E3;
398+  D164 FA FA F6 D1
398+  D168 64 E3 E3 E3
398+  D16C E3 E3 E3 E3
399+  D170 AD F6 FA FF  	db  $AD, $F6, $FA, $FF, $FA, $F6, $AD, $A9, $64, $E3, $E3, $E3, $E3, $E3, $E3, $E3;
399+  D174 FA F6 AD A9
399+  D178 64 E3 E3 E3
399+  D17C E3 E3 E3 E3
400+  D180 A9 D1 F6 FA  	db  $A9, $D1, $F6, $FA, $FA, $D1, $A9, $64, $E3, $E3, $E3, $E3, $E3, $E3, $E3, $E3;
400+  D184 FA D1 A9 64
400+  D188 E3 E3 E3 E3
400+  D18C E3 E3 E3 E3
401+  D190 64 AD D1 F6  	db  $64, $AD, $D1, $F6, $D1, $AD, $64, $E3, $E3, $E3, $E3, $E3, $E3, $E3, $E3, $E3;
401+  D194 D1 AD 64 E3
401+  D198 E3 E3 E3 E3
401+  D19C E3 E3 E3 E3
402+  D1A0 64 A9 D1 D1  	db  $64, $A9, $D1, $D1, $AD, $A9, $E3, $E3, $E3, $E3, $E3, $E3, $E3, $E3, $E3, $E3;
402+  D1A4 AD A9 E3 E3
402+  D1A8 E3 E3 E3 E3
402+  D1AC E3 E3 E3 E3
403+  D1B0 E3 64 A9 AD  	db  $E3, $64, $A9, $AD, $A9, $64, $E3, $E3, $E3, $E3, $E3, $E3, $E3, $E3, $E3, $E3;
403+  D1B4 A9 64 E3 E3
403+  D1B8 E3 E3 E3 E3
403+  D1BC E3 E3 E3 E3
404+  D1C0 E3 E3 64 64  	db  $E3, $E3, $64, $64, $64, $E3, $E3, $E3, $E3, $E3, $E3, $E3, $E3, $E3, $E3, $E3;
404+  D1C4 64 E3 E3 E3
404+  D1C8 E3 E3 E3 E3
404+  D1CC E3 E3 E3 E3
405+  D1D0 E3 E3 E3 E3  	db  $E3, $E3, $E3, $E3, $E3, $E3, $E3, $E3, $E3, $E3, $E3, $E3, $E3, $E3, $E3, $E3;
405+  D1D4 E3 E3 E3 E3
405+  D1D8 E3 E3 E3 E3
405+  D1DC E3 E3 E3 E3
406+  D1E0 E3 E3 E3 E3  	db  $E3, $E3, $E3, $E3, $E3, $E3, $E3, $E3, $E3, $E3, $E3, $E3, $E3, $E3, $E3, $E3;
406+  D1E4 E3 E3 E3 E3
406+  D1E8 E3 E3 E3 E3
406+  D1EC E3 E3 E3 E3
407+  D1F0 E3 E3 E3 E3  	db  $E3, $E3, $E3, $E3, $E3, $E3, $E3, $E3, $E3, $E3, $E3, $E3, $E3, $E3, $E3, $E3;
407+  D1F4 E3 E3 E3 E3
407+  D1F8 E3 E3 E3 E3
407+  D1FC E3 E3 E3 E3
408+  D200
409+  D200
410+  D200              Caveman_Walk_C_1:
411+  D200 E3 E3 E3 E3  	db  $E3, $E3, $E3, $E3, $E3, $E3, $E3, $E3, $E3, $E3, $E3, $E3, $E3, $E3, $E3, $E3;
411+  D204 E3 E3 E3 E3
411+  D208 E3 E3 E3 E3
411+  D20C E3 E3 E3 E3
412+  D210 E3 E3 E3 E3  	db  $E3, $E3, $E3, $E3, $E3, $E3, $E3, $E3, $E3, $E3, $E3, $E3, $E3, $E3, $E3, $E3;
412+  D214 E3 E3 E3 E3
412+  D218 E3 E3 E3 E3
412+  D21C E3 E3 E3 E3
413+  D220 E3 E3 E3 E3  	db  $E3, $E3, $E3, $E3, $E3, $E3, $E3, $E3, $E3, $E3, $E3, $E3, $E3, $E3, $E3, $E3;
413+  D224 E3 E3 E3 E3
413+  D228 E3 E3 E3 E3
413+  D22C E3 E3 E3 E3
414+  D230 E3 E3 E3 E3  	db  $E3, $E3, $E3, $E3, $E3, $E3, $E3, $E3, $E3, $E3, $E3, $E3, $E3, $E3, $E3, $E3;
414+  D234 E3 E3 E3 E3
414+  D238 E3 E3 E3 E3
414+  D23C E3 E3 E3 E3
415+  D240 E3 E3 E3 E3  	db  $E3, $E3, $E3, $E3, $E3, $E3, $E3, $E3, $E3, $E3, $E3, $E3, $E3, $E3, $E3, $E3;
415+  D244 E3 E3 E3 E3
415+  D248 E3 E3 E3 E3
415+  D24C E3 E3 E3 E3
416+  D250 E3 E3 E3 E3  	db  $E3, $E3, $E3, $E3, $E3, $E3, $E3, $E3, $E3, $E3, $E3, $E3, $E3, $E3, $E3, $E3;
416+  D254 E3 E3 E3 E3
416+  D258 E3 E3 E3 E3
416+  D25C E3 E3 E3 E3
417+  D260 E3 E3 E3 E3  	db  $E3, $E3, $E3, $E3, $E3, $E3, $E3, $E3, $E3, $E3, $E3, $E3, $E3, $E3, $E3, $E3;
417+  D264 E3 E3 E3 E3
417+  D268 E3 E3 E3 E3
417+  D26C E3 E3 E3 E3
418+  D270 E3 E3 E3 E3  	db  $E3, $E3, $E3, $E3, $E3, $E3, $E3, $E3, $E3, $E3, $E3, $E3, $E3, $E3, $E3, $E3;
418+  D274 E3 E3 E3 E3
418+  D278 E3 E3 E3 E3
418+  D27C E3 E3 E3 E3
419+  D280 E3 E3 E3 E3  	db  $E3, $E3, $E3, $E3, $E3, $E3, $E3, $E3, $E3, $E3, $E3, $E3, $E3, $E3, $E3, $E3;
419+  D284 E3 E3 E3 E3
419+  D288 E3 E3 E3 E3
419+  D28C E3 E3 E3 E3
420+  D290 E3 E3 E3 E3  	db  $E3, $E3, $E3, $E3, $E3, $E3, $E3, $E3, $E3, $E3, $E3, $E3, $E3, $E3, $E3, $E3;
420+  D294 E3 E3 E3 E3
420+  D298 E3 E3 E3 E3
420+  D29C E3 E3 E3 E3
421+  D2A0 E3 E3 E3 E3  	db  $E3, $E3, $E3, $E3, $E3, $E3, $E3, $E3, $E3, $E3, $E3, $E3, $E3, $E3, $E3, $E3;
421+  D2A4 E3 E3 E3 E3
421+  D2A8 E3 E3 E3 E3
421+  D2AC E3 E3 E3 E3
422+  D2B0 E3 E3 E3 E3  	db  $E3, $E3, $E3, $E3, $E3, $E3, $E3, $E3, $E3, $E3, $E3, $E3, $E3, $E3, $E3, $E3;
422+  D2B4 E3 E3 E3 E3
422+  D2B8 E3 E3 E3 E3
422+  D2BC E3 E3 E3 E3
423+  D2C0 E3 E3 E3 E3  	db  $E3, $E3, $E3, $E3, $E3, $E3, $E3, $E3, $E3, $E3, $E3, $E3, $E3, $E3, $E3, $E3;
423+  D2C4 E3 E3 E3 E3
423+  D2C8 E3 E3 E3 E3
423+  D2CC E3 E3 E3 E3
424+  D2D0 E3 E3 E3 E3  	db  $E3, $E3, $E3, $E3, $E3, $E3, $E3, $E3, $E3, $E3, $E3, $E3, $E3, $E3, $E3, $0D;
424+  D2D4 E3 E3 E3 E3
424+  D2D8 E3 E3 E3 E3
424+  D2DC E3 E3 E3 0D
425+  D2E0 E3 E3 E3 E3  	db  $E3, $E3, $E3, $E3, $E3, $E3, $E3, $E3, $E3, $E3, $E3, $E3, $E3, $E3, $0D, $04;
425+  D2E4 E3 E3 E3 E3
425+  D2E8 E3 E3 E3 E3
425+  D2EC E3 E3 0D 04
426+  D2F0 E3 E3 E3 E3  	db  $E3, $E3, $E3, $E3, $E3, $E3, $E3, $E3, $E3, $E3, $E3, $E3, $E3, $E3, $E3, $E3;
426+  D2F4 E3 E3 E3 E3
426+  D2F8 E3 E3 E3 E3
426+  D2FC E3 E3 E3 E3
427+  D300
428+  D300
429+  D300
430+  D300              Caveman_Walk_C_2:
431+  D300 E3 E3 E3 E3  	db  $E3, $E3, $E3, $E3, $E3, $E3, $E3, $E3, $E3, $E3, $E3, $E3, $E3, $E3, $E3, $E3;
431+  D304 E3 E3 E3 E3
431+  D308 E3 E3 E3 E3
431+  D30C E3 E3 E3 E3
432+  D310 E3 E3 E3 E3  	db  $E3, $E3, $E3, $E3, $E3, $E3, $E3, $E3, $E3, $E3, $E3, $E3, $E3, $E3, $E3, $E3;
432+  D314 E3 E3 E3 E3
432+  D318 E3 E3 E3 E3
432+  D31C E3 E3 E3 E3
433+  D320 E3 E3 E3 E3  	db  $E3, $E3, $E3, $E3, $E3, $E3, $E3, $E3, $E3, $E3, $E3, $E3, $E3, $E3, $E3, $E3;
433+  D324 E3 E3 E3 E3
433+  D328 E3 E3 E3 E3
433+  D32C E3 E3 E3 E3
434+  D330 E3 0D 0D E3  	db  $E3, $0D, $0D, $E3, $E3, $0D, $E3, $E3, $0D, $E3, $E3, $E3, $E3, $E3, $E3, $E3;
434+  D334 E3 0D E3 E3
434+  D338 0D E3 E3 E3
434+  D33C E3 E3 E3 E3
435+  D340 E3 E3 04 0D  	db  $E3, $E3, $04, $0D, $E3, $11, $E3, $11, $E3, $E3, $E3, $E3, $E3, $E3, $E3, $E3;
435+  D344 E3 11 E3 11
435+  D348 E3 E3 E3 E3
435+  D34C E3 E3 E3 E3
436+  D350 E3 11 11 04  	db  $E3, $11, $11, $04, $0D, $11, $15, $0D, $E3, $E3, $E3, $11, $11, $11, $11, $E3;
436+  D354 0D 11 15 0D
436+  D358 E3 E3 E3 11
436+  D35C 11 11 11 E3
437+  D360 04 04 11 15  	db  $04, $04, $11, $15, $11, $0D, $15, $0D, $FF, $E3, $11, $0D, $0D, $E3, $E3, $E3;
437+  D364 11 0D 15 0D
437+  D368 FF E3 11 0D
437+  D36C 0D E3 E3 E3
438+  D370 E3 E3 04 0D  	db  $E3, $E3, $04, $0D, $15, $0D, $11, $0D, $FF, $0D, $11, $11, $15, $15, $11, $11;
438+  D374 15 0D 11 0D
438+  D378 FF 0D 11 11
438+  D37C 15 15 11 11
439+  D380 E3 E3 E3 04  	db  $E3, $E3, $E3, $04, $04, $11, $0D, $FF, $0D, $15, $0D, $11, $0D, $11, $15, $0D;
439+  D384 04 11 0D FF
439+  D388 0D 15 0D 11
439+  D38C 0D 11 15 0D
440+  D390 E3 0D 0D 6D  	db  $E3, $0D, $0D, $6D, $6D, $B6, $B6, $0D, $0D, $11, $15, $04, $11, $0D, $11, $15;
440+  D394 6D B6 B6 0D
440+  D398 0D 11 15 04
440+  D39C 11 0D 11 15
441+  D3A0 0D 11 11 11  	db  $0D, $11, $11, $11, $11, $0D, $0D, $11, $0D, $0D, $15, $A9, $04, $11, $64, $11;
441+  D3A4 11 0D 0D 11
441+  D3A8 0D 0D 15 A9
441+  D3AC 04 11 64 11
442+  D3B0 00 04 04 0D  	db  $00, $04, $04, $0D, $0D, $11, $0D, $15, $A9, $0D, $15, $AD, $A9, $11, $AD, $64;
442+  D3B4 0D 11 0D 15
442+  D3B8 A9 0D 15 AD
442+  D3BC A9 11 AD 64
443+  D3C0 0D 11 11 0D  	db  $0D, $11, $11, $0D, $11, $15, $0D, $15, $AD, $11, $6D, $B6, $B6, $0D, $B6, $6D;
443+  D3C4 11 15 0D 15
443+  D3C8 AD 11 6D B6
443+  D3CC B6 0D B6 6D
444+  D3D0 11 0D D1 A9  	db  $11, $0D, $D1, $A9, $11, $15, $0D, $11, $D1, $11, $B6, $FF, $FF, $AD, $FF, $B6;
444+  D3D4 11 15 0D 11
444+  D3D8 D1 11 B6 FF
444+  D3DC FF AD FF B6
445+  D3E0 04 11 FA D1  	db  $04, $11, $FA, $D1, $11, $15, $0D, $AD, $F6, $0D, $FF, $FF, $04, $AD, $04, $FF;
445+  D3E4 11 15 0D AD
445+  D3E8 F6 0D FF FF
445+  D3EC 04 AD 04 FF
446+  D3F0 04 0D F6 FA  	db  $04, $0D, $F6, $FA, $11, $15, $A9, $D1, $F6, $AD, $FF, $FF, $6D, $D1, $6D, $FF;
446+  D3F4 11 15 A9 D1
446+  D3F8 F6 AD FF FF
446+  D3FC 6D D1 6D FF
447+  D400
448+  D400
449+  D400
450+  D400              Caveman_Walk_C_3:
451+  D400 E3 E3 E3 E3  	db  $E3, $E3, $E3, $E3, $E3, $E3, $E3, $E3, $E3, $E3, $E3, $E3, $E3, $E3, $E3, $E3;
451+  D404 E3 E3 E3 E3
451+  D408 E3 E3 E3 E3
451+  D40C E3 E3 E3 E3
452+  D410 E3 E3 E3 E3  	db  $E3, $E3, $E3, $E3, $E3, $E3, $E3, $E3, $E3, $E3, $E3, $E3, $E3, $E3, $E3, $E3;
452+  D414 E3 E3 E3 E3
452+  D418 E3 E3 E3 E3
452+  D41C E3 E3 E3 E3
453+  D420 E3 E3 E3 E3  	db  $E3, $E3, $E3, $E3, $E3, $E3, $E3, $E3, $E3, $E3, $E3, $E3, $E3, $E3, $E3, $E3;
453+  D424 E3 E3 E3 E3
453+  D428 E3 E3 E3 E3
453+  D42C E3 E3 E3 E3
454+  D430 E3 E3 E3 E3  	db  $E3, $E3, $E3, $E3, $E3, $E3, $E3, $E3, $E3, $E3, $E3, $E3, $E3, $E3, $E3, $E3;
454+  D434 E3 E3 E3 E3
454+  D438 E3 E3 E3 E3
454+  D43C E3 E3 E3 E3
455+  D440 E3 E3 E3 E3  	db  $E3, $E3, $E3, $E3, $E3, $E3, $E3, $E3, $E3, $E3, $E3, $E3, $E3, $E3, $E3, $E3;
455+  D444 E3 E3 E3 E3
455+  D448 E3 E3 E3 E3
455+  D44C E3 E3 E3 E3
456+  D450 E3 E3 E3 E3  	db  $E3, $E3, $E3, $E3, $E3, $E3, $E3, $E3, $E3, $E3, $E3, $E3, $E3, $E3, $E3, $E3;
456+  D454 E3 E3 E3 E3
456+  D458 E3 E3 E3 E3
456+  D45C E3 E3 E3 E3
457+  D460 E3 E3 E3 E3  	db  $E3, $E3, $E3, $E3, $E3, $E3, $E3, $E3, $E3, $E3, $E3, $E3, $E3, $E3, $E3, $E3;
457+  D464 E3 E3 E3 E3
457+  D468 E3 E3 E3 E3
457+  D46C E3 E3 E3 E3
458+  D470 11 11 E3 E3  	db  $11, $11, $E3, $E3, $E3, $E3, $E3, $E3, $E3, $E3, $E3, $E3, $E3, $E3, $E3, $E3;
458+  D474 E3 E3 E3 E3
458+  D478 E3 E3 E3 E3
458+  D47C E3 E3 E3 E3
459+  D480 0D E3 E3 E3  	db  $0D, $E3, $E3, $E3, $E3, $E3, $E3, $E3, $E3, $E3, $E3, $E3, $E3, $E3, $E3, $E3;
459+  D484 E3 E3 E3 E3
459+  D488 E3 E3 E3 E3
459+  D48C E3 E3 E3 E3
460+  D490 11 0D E3 E3  	db  $11, $0D, $E3, $E3, $E3, $E3, $E3, $E3, $E3, $E3, $E3, $E3, $E3, $E3, $E3, $E3;
460+  D494 E3 E3 E3 E3
460+  D498 E3 E3 E3 E3
460+  D49C E3 E3 E3 E3
461+  D4A0 15 11 E3 E3  	db  $15, $11, $E3, $E3, $E3, $E3, $E3, $E3, $E3, $E3, $E3, $E3, $E3, $E3, $E3, $E3;
461+  D4A4 E3 E3 E3 E3
461+  D4A8 E3 E3 E3 E3
461+  D4AC E3 E3 E3 E3
462+  D4B0 11 15 11 E3  	db  $11, $15, $11, $E3, $E3, $E3, $E3, $E3, $E3, $E3, $E3, $E3, $E3, $E3, $E3, $E3;
462+  D4B4 E3 E3 E3 E3
462+  D4B8 E3 E3 E3 E3
462+  D4BC E3 E3 E3 E3
463+  D4C0 04 11 11 E3  	db  $04, $11, $11, $E3, $E3, $E3, $E3, $E3, $E3, $E3, $E3, $E3, $E3, $E3, $E3, $E3;
463+  D4C4 E3 E3 E3 E3
463+  D4C8 E3 E3 E3 E3
463+  D4CC E3 E3 E3 E3
464+  D4D0 E3 0D 11 E3  	db  $E3, $0D, $11, $E3, $E3, $E3, $E3, $E3, $E3, $E3, $E3, $E3, $E3, $E3, $E3, $E3;
464+  D4D4 E3 E3 E3 E3
464+  D4D8 E3 E3 E3 E3
464+  D4DC E3 E3 E3 E3
465+  D4E0 E3 04 0D E3  	db  $E3, $04, $0D, $E3, $E3, $E3, $E3, $E3, $E3, $E3, $E3, $E3, $E3, $E3, $E3, $E3;
465+  D4E4 E3 E3 E3 E3
465+  D4E8 E3 E3 E3 E3
465+  D4EC E3 E3 E3 E3
466+  D4F0 E3 E3 0D E3  	db  $E3, $E3, $0D, $E3, $E3, $E3, $E3, $E3, $E3, $E3, $E3, $E3, $E3, $E3, $E3, $E3;
466+  D4F4 E3 E3 E3 E3
466+  D4F8 E3 E3 E3 E3
466+  D4FC E3 E3 E3 E3
467+  D500
468+  D500
469+  D500
470+  D500              Caveman_Walk_C_4:
471+  D500 E3 E3 E3 E3  	db  $E3, $E3, $E3, $E3, $E3, $E3, $E3, $E3, $E3, $E3, $E3, $E3, $E3, $E3, $E3, $04;
471+  D504 E3 E3 E3 E3
471+  D508 E3 E3 E3 E3
471+  D50C E3 E3 E3 04
472+  D510 E3 E3 E3 E3  	db  $E3, $E3, $E3, $E3, $E3, $E3, $E3, $E3, $E3, $E3, $E3, $E3, $E3, $E3, $E3, $04;
472+  D514 E3 E3 E3 E3
472+  D518 E3 E3 E3 E3
472+  D51C E3 E3 E3 04
473+  D520 E3 E3 E3 E3  	db  $E3, $E3, $E3, $E3, $E3, $E3, $E3, $E3, $E3, $E3, $E3, $E3, $E3, $E3, $E3, $64;
473+  D524 E3 E3 E3 E3
473+  D528 E3 E3 E3 E3
473+  D52C E3 E3 E3 64
474+  D530 E3 E3 E3 E3  	db  $E3, $E3, $E3, $E3, $E3, $E3, $E3, $E3, $E3, $E3, $E3, $E3, $E3, $E3, $64, $AD;
474+  D534 E3 E3 E3 E3
474+  D538 E3 E3 E3 E3
474+  D53C E3 E3 64 AD
475+  D540 E3 E3 E3 E3  	db  $E3, $E3, $E3, $E3, $E3, $E3, $E3, $E3, $E3, $E3, $E3, $E3, $E3, $E3, $64, $D1;
475+  D544 E3 E3 E3 E3
475+  D548 E3 E3 E3 E3
475+  D54C E3 E3 64 D1
476+  D550 E3 E3 E3 E3  	db  $E3, $E3, $E3, $E3, $E3, $E3, $E3, $E3, $E3, $E3, $E3, $E3, $E3, $E3, $64, $F6;
476+  D554 E3 E3 E3 E3
476+  D558 E3 E3 E3 E3
476+  D55C E3 E3 64 F6
477+  D560 E3 E3 E3 E3  	db  $E3, $E3, $E3, $E3, $E3, $E3, $E3, $E3, $E3, $E3, $E3, $E3, $E3, $E3, $64, $D1;
477+  D564 E3 E3 E3 E3
477+  D568 E3 E3 E3 E3
477+  D56C E3 E3 64 D1
478+  D570 E3 E3 E3 E3  	db  $E3, $E3, $E3, $E3, $E3, $E3, $E3, $E3, $E3, $E3, $E3, $E3, $E3, $E3, $64, $AD;
478+  D574 E3 E3 E3 E3
478+  D578 E3 E3 E3 E3
478+  D57C E3 E3 64 AD
479+  D580 E3 E3 E3 E3  	db  $E3, $E3, $E3, $E3, $E3, $E3, $E3, $E3, $E3, $E3, $E3, $E3, $E3, $E3, $64, $A9;
479+  D584 E3 E3 E3 E3
479+  D588 E3 E3 E3 E3
479+  D58C E3 E3 64 A9
480+  D590 E3 E3 E3 E3  	db  $E3, $E3, $E3, $E3, $E3, $E3, $E3, $E3, $E3, $E3, $E3, $E3, $E3, $E3, $E3, $64;
480+  D594 E3 E3 E3 E3
480+  D598 E3 E3 E3 E3
480+  D59C E3 E3 E3 64
481+  D5A0 E3 E3 E3 E3  	db  $E3, $E3, $E3, $E3, $E3, $E3, $E3, $E3, $E3, $E3, $E3, $E3, $E3, $E3, $E3, $64;
481+  D5A4 E3 E3 E3 E3
481+  D5A8 E3 E3 E3 E3
481+  D5AC E3 E3 E3 64
482+  D5B0 E3 E3 E3 E3  	db  $E3, $E3, $E3, $E3, $E3, $E3, $E3, $E3, $E3, $E3, $E3, $E3, $E3, $E3, $E3, $64;
482+  D5B4 E3 E3 E3 E3
482+  D5B8 E3 E3 E3 E3
482+  D5BC E3 E3 E3 64
483+  D5C0 E3 E3 E3 E3  	db  $E3, $E3, $E3, $E3, $E3, $E3, $E3, $E3, $E3, $E3, $E3, $E3, $E3, $E3, $E3, $E3;
483+  D5C4 E3 E3 E3 E3
483+  D5C8 E3 E3 E3 E3
483+  D5CC E3 E3 E3 E3
484+  D5D0 E3 E3 E3 E3  	db  $E3, $E3, $E3, $E3, $E3, $E3, $E3, $E3, $E3, $E3, $E3, $E3, $E3, $E3, $E3, $E3;
484+  D5D4 E3 E3 E3 E3
484+  D5D8 E3 E3 E3 E3
484+  D5DC E3 E3 E3 E3
485+  D5E0 E3 E3 E3 E3  	db  $E3, $E3, $E3, $E3, $E3, $E3, $E3, $E3, $E3, $E3, $E3, $E3, $E3, $E3, $E3, $E3;
485+  D5E4 E3 E3 E3 E3
485+  D5E8 E3 E3 E3 E3
485+  D5EC E3 E3 E3 E3
486+  D5F0 E3 E3 E3 E3  	db  $E3, $E3, $E3, $E3, $E3, $E3, $E3, $E3, $E3, $E3, $E3, $E3, $E3, $E3, $E3, $E3;
486+  D5F4 E3 E3 E3 E3
486+  D5F8 E3 E3 E3 E3
486+  D5FC E3 E3 E3 E3
487+  D600
488+  D600
489+  D600
490+  D600              Caveman_Walk_C_5:
491+  D600 0D 04 D1 FA  	db  $0D, $04, $D1, $FA, $11, $15, $AD, $F6, $FA, $D1, $B6, $FF, $04, $D1, $A9, $AD;
491+  D604 11 15 AD F6
491+  D608 FA D1 B6 FF
491+  D60C 04 D1 A9 AD
492+  D610 64 A9 64 64  	db  $64, $A9, $64, $64, $11, $15, $D1, $FA, $FF, $FA, $AD, $B6, $FF, $F6, $FA, $FA;
492+  D614 11 15 D1 FA
492+  D618 FF FA AD B6
492+  D61C FF F6 FA FA
493+  D620 AD D1 AD 64  	db  $AD, $D1, $AD, $64, $11, $11, $D1, $FF, $FA, $FF, $F6, $AD, $AD, $D1, $FA, $FF;
493+  D624 11 11 D1 FF
493+  D628 FA FF F6 AD
493+  D62C AD D1 FA FF
494+  D630 D1 F6 F6 AD  	db  $D1, $F6, $F6, $AD, $11, $11, $D1, $F6, $F6, $FA, $FA, $D1, $D1, $A9, $D1, $F6;
494+  D634 11 11 D1 F6
494+  D638 F6 FA FA D1
494+  D63C D1 A9 D1 F6
495+  D640 F6 FA FF F6  	db  $F6, $FA, $FF, $F6, $11, $0D, $64, $D1, $D1, $AD, $F6, $FA, $F6, $D1, $64, $64;
495+  D644 11 0D 64 D1
495+  D648 D1 AD F6 FA
495+  D64C F6 D1 64 64
496+  D650 FA FF FF F6  	db  $FA, $FF, $FF, $F6, $0D, $0D, $64, $D1, $FA, $64, $AD, $F6, $FA, $FA, $D1, $AD;
496+  D654 0D 0D 64 D1
496+  D658 FA 64 AD F6
496+  D65C FA FA D1 AD
497+  D660 F6 FF FA F6  	db  $F6, $FF, $FA, $F6, $0D, $A9, $64, $AD, $D1, $D1, $64, $64, $D1, $F6, $FA, $FA;
497+  D664 0D A9 64 AD
497+  D668 D1 D1 64 64
497+  D66C D1 F6 FA FA
498+  D670 F6 FA FA F6  	db  $F6, $FA, $FA, $F6, $0D, $AD, $A9, $64, $D1, $F6, $F6, $AD, $64, $64, $64, $64;
498+  D674 0D AD A9 64
498+  D678 D1 F6 F6 AD
498+  D67C 64 64 64 64
499+  D680 F6 F6 FA F6  	db  $F6, $F6, $FA, $F6, $AD, $AD, $AD, $64, $A9, $D1, $F6, $FA, $FA, $FA, $FF, $FF;
499+  D684 AD AD AD 64
499+  D688 A9 D1 F6 FA
499+  D68C FA FA FF FF
500+  D690 D1 F6 FA FA  	db  $D1, $F6, $FA, $FA, $D1, $A9, $AD, $A9, $64, $A9, $D1, $F6, $D1, $AD, $A9, $64;
500+  D694 D1 A9 AD A9
500+  D698 64 A9 D1 F6
500+  D69C D1 AD A9 64
501+  D6A0 AD F6 FA FA  	db  $AD, $F6, $FA, $FA, $F6, $64, $AD, $D1, $AD, $64, $64, $AD, $F6, $FA, $D1, $64;
501+  D6A4 F6 64 AD D1
501+  D6A8 AD 64 64 AD
501+  D6AC F6 FA D1 64
502+  D6B0 A9 F6 F6 FF  	db  $A9, $F6, $F6, $FF, $F6, $AD, $64, $FA, $F6, $D1, $AD, $64, $64, $64, $64, $AD;
502+  D6B4 F6 AD 64 FA
502+  D6B8 F6 D1 AD 64
502+  D6BC 64 64 64 AD
503+  D6C0 64 D1 F6 FA  	db  $64, $D1, $F6, $FA, $FF, $F6, $AD, $64, $FA, $FA, $F6, $F6, $D1, $AD, $D1, $F6;
503+  D6C4 FF F6 AD 64
503+  D6C8 FA FA F6 F6
503+  D6CC D1 AD D1 F6
504+  D6D0 64 AD F6 FA  	db  $64, $AD, $F6, $FA, $FF, $FF, $F6, $AD, $64, $FA, $FA, $FA, $F6, $F6, $D1, $FF;
504+  D6D4 FF FF F6 AD
504+  D6D8 64 FA FA FA
504+  D6DC F6 F6 D1 FF
505+  D6E0 64 AD D1 F6  	db  $64, $AD, $D1, $F6, $FA, $FA, $FF, $D1, $0D, $64, $64, $64, $64, $F6, $D1, $AD;
505+  D6E4 FA FA FF D1
505+  D6E8 0D 64 64 64
505+  D6EC 64 F6 D1 AD
506+  D6F0 E3 A9 AD D1  	db  $E3, $A9, $AD, $D1, $F6, $FA, $FA, $F6, $11, $11, $0D, $F6, $D1, $64, $D1, $64;
506+  D6F4 F6 FA FA F6
506+  D6F8 11 11 0D F6
506+  D6FC D1 64 D1 64
507+  D700
508+  D700
509+  D700
510+  D700              Caveman_Walk_C_6:
511+  D700 AD 9B 77 E3  	db  $AD, $9B, $77, $E3, $9B, $E3, $E3, $E3, $E3, $E3, $E3, $E3, $E3, $E3, $E3, $E3;
511+  D704 9B E3 E3 E3
511+  D708 E3 E3 E3 E3
511+  D70C E3 E3 E3 E3
512+  D710 F6 A9 E3 E3  	db  $F6, $A9, $E3, $E3, $E3, $E3, $E3, $E3, $E3, $E3, $E3, $E3, $E3, $E3, $E3, $E3;
512+  D714 E3 E3 E3 E3
512+  D718 E3 E3 E3 E3
512+  D71C E3 E3 E3 E3
513+  D720 FA 64 A9 E3  	db  $FA, $64, $A9, $E3, $E3, $E3, $E3, $E3, $E3, $E3, $E3, $E3, $E3, $E3, $E3, $E3;
513+  D724 E3 E3 E3 E3
513+  D728 E3 E3 E3 E3
513+  D72C E3 E3 E3 E3
514+  D730 D1 64 AD A9  	db  $D1, $64, $AD, $A9, $E3, $E3, $E3, $E3, $E3, $E3, $E3, $E3, $E3, $E3, $E3, $E3;
514+  D734 E3 E3 E3 E3
514+  D738 E3 E3 E3 E3
514+  D73C E3 E3 E3 E3
515+  D740 64 A9 D1 64  	db  $64, $A9, $D1, $64, $E3, $E3, $E3, $E3, $E3, $E3, $E3, $E3, $E3, $E3, $E3, $E3;
515+  D744 E3 E3 E3 E3
515+  D748 E3 E3 E3 E3
515+  D74C E3 E3 E3 E3
516+  D750 64 AD D1 64  	db  $64, $AD, $D1, $64, $E3, $E3, $E3, $E3, $E3, $E3, $E3, $E3, $E3, $E3, $E3, $E3;
516+  D754 E3 E3 E3 E3
516+  D758 E3 E3 E3 E3
516+  D75C E3 E3 E3 E3
517+  D760 AD AD D1 64  	db  $AD, $AD, $D1, $64, $E3, $E3, $E3, $E3, $E3, $E3, $E3, $E3, $E3, $E3, $E3, $E3;
517+  D764 E3 E3 E3 E3
517+  D768 E3 E3 E3 E3
517+  D76C E3 E3 E3 E3
518+  D770 64 A9 AD 64  	db  $64, $A9, $AD, $64, $E3, $E3, $E3, $E3, $E3, $E3, $E3, $E3, $E3, $E3, $E3, $E3;
518+  D774 E3 E3 E3 E3
518+  D778 E3 E3 E3 E3
518+  D77C E3 E3 E3 E3
519+  D780 FA A9 64 E3  	db  $FA, $A9, $64, $E3, $E3, $E3, $E3, $E3, $E3, $E3, $E3, $E3, $E3, $E3, $E3, $E3;
519+  D784 E3 E3 E3 E3
519+  D788 E3 E3 E3 E3
519+  D78C E3 E3 E3 E3
520+  D790 64 64 E3 E3  	db  $64, $64, $E3, $E3, $E3, $E3, $E3, $E3, $E3, $E3, $E3, $E3, $E3, $E3, $E3, $E3;
520+  D794 E3 E3 E3 E3
520+  D798 E3 E3 E3 E3
520+  D79C E3 E3 E3 E3
521+  D7A0 AD 64 E3 E3  	db  $AD, $64, $E3, $E3, $E3, $E3, $E3, $E3, $E3, $E3, $E3, $E3, $E3, $E3, $E3, $E3;
521+  D7A4 E3 E3 E3 E3
521+  D7A8 E3 E3 E3 E3
521+  D7AC E3 E3 E3 E3
522+  D7B0 D1 64 E3 E3  	db  $D1, $64, $E3, $E3, $E3, $E3, $E3, $E3, $E3, $E3, $E3, $E3, $E3, $E3, $E3, $E3;
522+  D7B4 E3 E3 E3 E3
522+  D7B8 E3 E3 E3 E3
522+  D7BC E3 E3 E3 E3
523+  D7C0 AD 64 E3 E3  	db  $AD, $64, $E3, $E3, $E3, $E3, $E3, $E3, $E3, $E3, $E3, $E3, $E3, $E3, $E3, $E3;
523+  D7C4 E3 E3 E3 E3
523+  D7C8 E3 E3 E3 E3
523+  D7CC E3 E3 E3 E3
524+  D7D0 64 E3 E3 E3  	db  $64, $E3, $E3, $E3, $E3, $E3, $E3, $E3, $E3, $E3, $E3, $E3, $E3, $E3, $E3, $E3;
524+  D7D4 E3 E3 E3 E3
524+  D7D8 E3 E3 E3 E3
524+  D7DC E3 E3 E3 E3
525+  D7E0 64 E3 E3 E3  	db  $64, $E3, $E3, $E3, $E3, $E3, $E3, $E3, $E3, $E3, $E3, $E3, $E3, $E3, $E3, $E3;
525+  D7E4 E3 E3 E3 E3
525+  D7E8 E3 E3 E3 E3
525+  D7EC E3 E3 E3 E3
526+  D7F0 E3 E3 E3 E3  	db  $E3, $E3, $E3, $E3, $E3, $E3, $E3, $E3, $E3, $E3, $E3, $E3, $E3, $E3, $E3, $E3;
526+  D7F4 E3 E3 E3 E3
526+  D7F8 E3 E3 E3 E3
526+  D7FC E3 E3 E3 E3
527+  D800
528+  D800
529+  D800
530+  D800              Caveman_Walk_C_7:
531+  D800 E3 E3 E3 E3  	db  $E3, $E3, $E3, $E3, $E3, $E3, $E3, $E3, $E3, $E3, $E3, $E3, $E3, $E3, $E3, $E3;
531+  D804 E3 E3 E3 E3
531+  D808 E3 E3 E3 E3
531+  D80C E3 E3 E3 E3
532+  D810 E3 E3 E3 E3  	db  $E3, $E3, $E3, $E3, $E3, $E3, $E3, $E3, $E3, $E3, $E3, $E3, $E3, $E3, $E3, $E3;
532+  D814 E3 E3 E3 E3
532+  D818 E3 E3 E3 E3
532+  D81C E3 E3 E3 E3
533+  D820 E3 E3 E3 E3  	db  $E3, $E3, $E3, $E3, $E3, $E3, $E3, $E3, $E3, $E3, $E3, $E3, $E3, $E3, $E3, $E3;
533+  D824 E3 E3 E3 E3
533+  D828 E3 E3 E3 E3
533+  D82C E3 E3 E3 E3
534+  D830 E3 E3 E3 E3  	db  $E3, $E3, $E3, $E3, $E3, $E3, $E3, $E3, $E3, $E3, $E3, $E3, $E3, $E3, $E3, $E3;
534+  D834 E3 E3 E3 E3
534+  D838 E3 E3 E3 E3
534+  D83C E3 E3 E3 E3
535+  D840 E3 E3 E3 E3  	db  $E3, $E3, $E3, $E3, $E3, $E3, $E3, $E3, $E3, $E3, $E3, $E3, $E3, $E3, $E3, $04;
535+  D844 E3 E3 E3 E3
535+  D848 E3 E3 E3 E3
535+  D84C E3 E3 E3 04
536+  D850 E3 E3 E3 E3  	db  $E3, $E3, $E3, $E3, $E3, $E3, $E3, $E3, $E3, $E3, $E3, $E3, $E3, $E3, $04, $11;
536+  D854 E3 E3 E3 E3
536+  D858 E3 E3 E3 E3
536+  D85C E3 E3 04 11
537+  D860 E3 E3 E3 E3  	db  $E3, $E3, $E3, $E3, $E3, $E3, $E3, $E3, $E3, $E3, $E3, $E3, $E3, $E3, $04, $15;
537+  D864 E3 E3 E3 E3
537+  D868 E3 E3 E3 E3
537+  D86C E3 E3 04 15
538+  D870 E3 E3 E3 E3  	db  $E3, $E3, $E3, $E3, $E3, $E3, $E3, $E3, $E3, $E3, $E3, $E3, $E3, $E3, $04, $04;
538+  D874 E3 E3 E3 E3
538+  D878 E3 E3 E3 E3
538+  D87C E3 E3 04 04
539+  D880 E3 E3 E3 E3  	db  $E3, $E3, $E3, $E3, $E3, $E3, $E3, $E3, $E3, $E3, $E3, $E3, $E3, $E3, $E3, $E3;
539+  D884 E3 E3 E3 E3
539+  D888 E3 E3 E3 E3
539+  D88C E3 E3 E3 E3
540+  D890 E3 E3 E3 E3  	db  $E3, $E3, $E3, $E3, $E3, $E3, $E3, $E3, $E3, $E3, $E3, $E3, $E3, $E3, $E3, $E3;
540+  D894 E3 E3 E3 E3
540+  D898 E3 E3 E3 E3
540+  D89C E3 E3 E3 E3
541+  D8A0 E3 E3 E3 E3  	db  $E3, $E3, $E3, $E3, $E3, $E3, $E3, $E3, $E3, $E3, $E3, $E3, $E3, $E3, $E3, $E3;
541+  D8A4 E3 E3 E3 E3
541+  D8A8 E3 E3 E3 E3
541+  D8AC E3 E3 E3 E3
542+  D8B0 E3 E3 E3 E3  	db  $E3, $E3, $E3, $E3, $E3, $E3, $E3, $E3, $E3, $E3, $E3, $E3, $E3, $E3, $E3, $E3;
542+  D8B4 E3 E3 E3 E3
542+  D8B8 E3 E3 E3 E3
542+  D8BC E3 E3 E3 E3
543+  D8C0 E3 E3 E3 E3  	db  $E3, $E3, $E3, $E3, $E3, $E3, $E3, $E3, $E3, $E3, $E3, $E3, $E3, $E3, $E3, $E3;
543+  D8C4 E3 E3 E3 E3
543+  D8C8 E3 E3 E3 E3
543+  D8CC E3 E3 E3 E3
544+  D8D0 E3 E3 E3 E3  	db  $E3, $E3, $E3, $E3, $E3, $E3, $E3, $E3, $E3, $E3, $E3, $E3, $E3, $E3, $E3, $E3;
544+  D8D4 E3 E3 E3 E3
544+  D8D8 E3 E3 E3 E3
544+  D8DC E3 E3 E3 E3
545+  D8E0 E3 E3 E3 E3  	db  $E3, $E3, $E3, $E3, $E3, $E3, $E3, $E3, $E3, $E3, $E3, $E3, $E3, $E3, $E3, $E3;
545+  D8E4 E3 E3 E3 E3
545+  D8E8 E3 E3 E3 E3
545+  D8EC E3 E3 E3 E3
546+  D8F0 E3 E3 E3 E3  	db  $E3, $E3, $E3, $E3, $E3, $E3, $E3, $E3, $E3, $E3, $E3, $E3, $E3, $E3, $E3, $E3;
546+  D8F4 E3 E3 E3 E3
546+  D8F8 E3 E3 E3 E3
546+  D8FC E3 E3 E3 E3
547+  D900
548+  D900
549+  D900
550+  D900              Caveman_Walk_C_8:
551+  D900 E3 64 A9 AD  	db  $E3, $64, $A9, $AD, $D1, $F6, $F6, $15, $FF, $15, $F6, $FA, $A9, $AD, $64, $64;
551+  D904 D1 F6 F6 15
551+  D908 FF 15 F6 FA
551+  D90C A9 AD 64 64
552+  D910 E3 0D 64 A9  	db  $E3, $0D, $64, $A9, $AD, $AD, $11, $15, $15, $D1, $F6, $FA, $FA, $F6, $AD, $04;
552+  D914 AD AD 11 15
552+  D918 15 D1 F6 FA
552+  D91C FA F6 AD 04
553+  D920 0D 11 0D 64  	db  $0D, $11, $0D, $64, $64, $64, $0D, $11, $11, $D1, $F6, $F6, $F6, $D1, $A9, $04;
553+  D924 64 64 0D 11
553+  D928 11 D1 F6 F6
553+  D92C F6 D1 A9 04
554+  D930 15 0D 0D 0D  	db  $15, $0D, $0D, $0D, $0D, $0D, $64, $64, $0D, $AD, $D1, $F6, $D1, $A9, $64, $04;
554+  D934 0D 0D 64 64
554+  D938 0D AD D1 F6
554+  D93C D1 A9 64 04
555+  D940 11 04 0D 11  	db  $11, $04, $0D, $11, $15, $11, $11, $0D, $64, $A9, $AD, $D1, $AD, $64, $11, $15;
555+  D944 15 11 11 0D
555+  D948 64 A9 AD D1
555+  D94C AD 64 11 15
556+  D950 15 0D 11 15  	db  $15, $0D, $11, $15, $15, $11, $11, $11, $0D, $64, $AD, $AD, $A9, $64, $0D, $11;
556+  D954 15 11 11 11
556+  D958 0D 64 AD AD
556+  D95C A9 64 0D 11
557+  D960 0D 11 15 15  	db  $0D, $11, $15, $15, $11, $0D, $15, $11, $0D, $11, $64, $64, $64, $15, $11, $04;
557+  D964 11 0D 15 11
557+  D968 0D 11 64 64
557+  D96C 64 15 11 04
558+  D970 04 11 15 11  	db  $04, $11, $15, $11, $04, $04, $15, $11, $0D, $11, $15, $04, $11, $15, $15, $04;
558+  D974 04 04 15 11
558+  D978 0D 11 15 04
558+  D97C 11 15 15 04
559+  D980 04 04 11 04  	db  $04, $04, $11, $04, $04, $04, $15, $11, $04, $11, $15, $04, $04, $11, $15, $04;
559+  D984 04 04 15 11
559+  D988 04 11 15 04
559+  D98C 04 11 15 04
560+  D990 E3 E3 04 04  	db  $E3, $E3, $04, $04, $64, $04, $11, $04, $64, $04, $15, $04, $E3, $04, $11, $04;
560+  D994 64 04 11 04
560+  D998 64 04 15 04
560+  D99C E3 04 11 04
561+  D9A0 E3 64 A9 AD  	db  $E3, $64, $A9, $AD, $AD, $A9, $04, $AD, $A9, $04, $04, $E3, $E3, $E3, $04, $E3;
561+  D9A4 AD A9 04 AD
561+  D9A8 A9 04 04 E3
561+  D9AC E3 E3 04 E3
562+  D9B0 64 AD D1 F6  	db  $64, $AD, $D1, $F6, $FA, $F6, $D1, $AD, $64, $E3, $E3, $E3, $A9, $AD, $E3, $E3;
562+  D9B4 FA F6 D1 AD
562+  D9B8 64 E3 E3 E3
562+  D9BC A9 AD E3 E3
563+  D9C0 64 D1 F6 FA  	db  $64, $D1, $F6, $FA, $FF, $FF, $FA, $F6, $F6, $D1, $AD, $A9, $D1, $D1, $AD, $E3;
563+  D9C4 FF FF FA F6
563+  D9C8 F6 D1 AD A9
563+  D9CC D1 D1 AD E3
564+  D9D0 64 AD D1 F6  	db  $64, $AD, $D1, $F6, $FA, $FF, $FF, $FA, $F6, $FA, $F6, $FA, $F6, $FA, $A9, $E3;
564+  D9D4 FA FF FF FA
564+  D9D8 F6 FA F6 FA
564+  D9DC F6 FA A9 E3
565+  D9E0 E3 64 64 AD  	db  $E3, $64, $64, $AD, $D1, $D1, $D1, $F6, $A9, $F6, $A9, $F6, $A9, $AD, $64, $E3;
565+  D9E4 D1 D1 D1 F6
565+  D9E8 A9 F6 A9 F6
565+  D9EC A9 AD 64 E3
566+  D9F0 E3 E3 E3 64  	db  $E3, $E3, $E3, $64, $64, $64, $A9, $64, $64, $A9, $64, $A9, $64, $64, $E3, $E3;
566+  D9F4 64 64 A9 64
566+  D9F8 64 A9 64 A9
566+  D9FC 64 64 E3 E3
567+  DA00
568+  DA00
569+  DA00
570+  DA00              Caveman_Walk_C_9:
571+  DA00 E3 E3 E3 E3  	db  $E3, $E3, $E3, $E3, $E3, $E3, $E3, $E3, $E3, $E3, $E3, $E3, $E3, $E3, $E3, $E3;
571+  DA04 E3 E3 E3 E3
571+  DA08 E3 E3 E3 E3
571+  DA0C E3 E3 E3 E3
572+  DA10 E3 E3 E3 E3  	db  $E3, $E3, $E3, $E3, $E3, $E3, $E3, $E3, $E3, $E3, $E3, $E3, $E3, $E3, $E3, $E3;
572+  DA14 E3 E3 E3 E3
572+  DA18 E3 E3 E3 E3
572+  DA1C E3 E3 E3 E3
573+  DA20 E3 E3 E3 E3  	db  $E3, $E3, $E3, $E3, $E3, $E3, $E3, $E3, $E3, $E3, $E3, $E3, $E3, $E3, $E3, $E3;
573+  DA24 E3 E3 E3 E3
573+  DA28 E3 E3 E3 E3
573+  DA2C E3 E3 E3 E3
574+  DA30 E3 E3 E3 E3  	db  $E3, $E3, $E3, $E3, $E3, $E3, $E3, $E3, $E3, $E3, $E3, $E3, $E3, $E3, $E3, $E3;
574+  DA34 E3 E3 E3 E3
574+  DA38 E3 E3 E3 E3
574+  DA3C E3 E3 E3 E3
575+  DA40 04 E3 E3 E3  	db  $04, $E3, $E3, $E3, $E3, $E3, $E3, $E3, $E3, $E3, $E3, $E3, $E3, $E3, $E3, $E3;
575+  DA44 E3 E3 E3 E3
575+  DA48 E3 E3 E3 E3
575+  DA4C E3 E3 E3 E3
576+  DA50 15 04 E3 E3  	db  $15, $04, $E3, $E3, $E3, $E3, $E3, $E3, $E3, $E3, $E3, $E3, $E3, $E3, $E3, $E3;
576+  DA54 E3 E3 E3 E3
576+  DA58 E3 E3 E3 E3
576+  DA5C E3 E3 E3 E3
577+  DA60 04 04 04 E3  	db  $04, $04, $04, $E3, $E3, $E3, $E3, $E3, $E3, $E3, $E3, $E3, $E3, $E3, $E3, $E3;
577+  DA64 E3 E3 E3 E3
577+  DA68 E3 E3 E3 E3
577+  DA6C E3 E3 E3 E3
578+  DA70 E3 E3 E3 E3  	db  $E3, $E3, $E3, $E3, $E3, $E3, $E3, $E3, $E3, $E3, $E3, $E3, $E3, $E3, $E3, $E3;
578+  DA74 E3 E3 E3 E3
578+  DA78 E3 E3 E3 E3
578+  DA7C E3 E3 E3 E3
579+  DA80 E3 E3 E3 E3  	db  $E3, $E3, $E3, $E3, $E3, $E3, $E3, $E3, $E3, $E3, $E3, $E3, $E3, $E3, $E3, $E3;
579+  DA84 E3 E3 E3 E3
579+  DA88 E3 E3 E3 E3
579+  DA8C E3 E3 E3 E3
580+  DA90 E3 E3 E3 E3  	db  $E3, $E3, $E3, $E3, $E3, $E3, $E3, $E3, $E3, $E3, $E3, $E3, $E3, $E3, $E3, $E3;
580+  DA94 E3 E3 E3 E3
580+  DA98 E3 E3 E3 E3
580+  DA9C E3 E3 E3 E3
581+  DAA0 E3 E3 E3 E3  	db  $E3, $E3, $E3, $E3, $E3, $E3, $E3, $E3, $E3, $E3, $E3, $E3, $E3, $E3, $E3, $E3;
581+  DAA4 E3 E3 E3 E3
581+  DAA8 E3 E3 E3 E3
581+  DAAC E3 E3 E3 E3
582+  DAB0 E3 E3 E3 E3  	db  $E3, $E3, $E3, $E3, $E3, $E3, $E3, $E3, $E3, $E3, $E3, $E3, $E3, $E3, $E3, $E3;
582+  DAB4 E3 E3 E3 E3
582+  DAB8 E3 E3 E3 E3
582+  DABC E3 E3 E3 E3
583+  DAC0 E3 E3 E3 E3  	db  $E3, $E3, $E3, $E3, $E3, $E3, $E3, $E3, $E3, $E3, $E3, $E3, $E3, $E3, $E3, $E3;
583+  DAC4 E3 E3 E3 E3
583+  DAC8 E3 E3 E3 E3
583+  DACC E3 E3 E3 E3
584+  DAD0 E3 E3 E3 E3  	db  $E3, $E3, $E3, $E3, $E3, $E3, $E3, $E3, $E3, $E3, $E3, $E3, $E3, $E3, $E3, $E3;
584+  DAD4 E3 E3 E3 E3
584+  DAD8 E3 E3 E3 E3
584+  DADC E3 E3 E3 E3
585+  DAE0 E3 E3 E3 E3  	db  $E3, $E3, $E3, $E3, $E3, $E3, $E3, $E3, $E3, $E3, $E3, $E3, $E3, $E3, $E3, $E3;
585+  DAE4 E3 E3 E3 E3
585+  DAE8 E3 E3 E3 E3
585+  DAEC E3 E3 E3 E3
586+  DAF0 E3 E3 E3 E3  	db  $E3, $E3, $E3, $E3, $E3, $E3, $E3, $E3, $E3, $E3, $E3, $E3, $E3, $E3, $E3, $E3;
586+  DAF4 E3 E3 E3 E3
586+  DAF8 E3 E3 E3 E3
586+  DAFC E3 E3 E3 E3
587+  DB00
588+  DB00
589+  DB00              Caveman_Walk_D_1:
590+  DB00 E3 E3 E3 E3  	db  $E3, $E3, $E3, $E3, $E3, $E3, $E3, $E3, $E3, $E3, $E3, $E3, $E3, $E3, $E3, $E3;
590+  DB04 E3 E3 E3 E3
590+  DB08 E3 E3 E3 E3
590+  DB0C E3 E3 E3 E3
591+  DB10 E3 E3 E3 E3  	db  $E3, $E3, $E3, $E3, $E3, $E3, $E3, $E3, $E3, $E3, $E3, $E3, $E3, $E3, $E3, $E3;
591+  DB14 E3 E3 E3 E3
591+  DB18 E3 E3 E3 E3
591+  DB1C E3 E3 E3 E3
592+  DB20 E3 E3 E3 E3  	db  $E3, $E3, $E3, $E3, $E3, $E3, $E3, $E3, $E3, $E3, $E3, $E3, $E3, $E3, $E3, $E3;
592+  DB24 E3 E3 E3 E3
592+  DB28 E3 E3 E3 E3
592+  DB2C E3 E3 E3 E3
593+  DB30 E3 E3 E3 E3  	db  $E3, $E3, $E3, $E3, $E3, $E3, $E3, $E3, $E3, $E3, $E3, $E3, $E3, $E3, $E3, $E3;
593+  DB34 E3 E3 E3 E3
593+  DB38 E3 E3 E3 E3
593+  DB3C E3 E3 E3 E3
594+  DB40 E3 E3 E3 E3  	db  $E3, $E3, $E3, $E3, $E3, $E3, $E3, $E3, $E3, $E3, $E3, $E3, $E3, $E3, $E3, $E3;
594+  DB44 E3 E3 E3 E3
594+  DB48 E3 E3 E3 E3
594+  DB4C E3 E3 E3 E3
595+  DB50 E3 E3 E3 E3  	db  $E3, $E3, $E3, $E3, $E3, $E3, $E3, $E3, $E3, $E3, $E3, $E3, $E3, $E3, $E3, $E3;
595+  DB54 E3 E3 E3 E3
595+  DB58 E3 E3 E3 E3
595+  DB5C E3 E3 E3 E3
596+  DB60 E3 E3 E3 E3  	db  $E3, $E3, $E3, $E3, $E3, $E3, $E3, $E3, $E3, $E3, $E3, $E3, $E3, $E3, $E3, $E3;
596+  DB64 E3 E3 E3 E3
596+  DB68 E3 E3 E3 E3
596+  DB6C E3 E3 E3 E3
597+  DB70 E3 E3 E3 E3  	db  $E3, $E3, $E3, $E3, $E3, $E3, $E3, $E3, $E3, $E3, $E3, $E3, $E3, $E3, $E3, $E3;
597+  DB74 E3 E3 E3 E3
597+  DB78 E3 E3 E3 E3
597+  DB7C E3 E3 E3 E3
598+  DB80 E3 E3 E3 E3  	db  $E3, $E3, $E3, $E3, $E3, $E3, $E3, $E3, $E3, $E3, $E3, $E3, $E3, $E3, $E3, $E3;
598+  DB84 E3 E3 E3 E3
598+  DB88 E3 E3 E3 E3
598+  DB8C E3 E3 E3 E3
599+  DB90 E3 E3 E3 E3  	db  $E3, $E3, $E3, $E3, $E3, $E3, $E3, $E3, $E3, $E3, $E3, $E3, $E3, $E3, $E3, $E3;
599+  DB94 E3 E3 E3 E3
599+  DB98 E3 E3 E3 E3
599+  DB9C E3 E3 E3 E3
600+  DBA0 E3 E3 E3 E3  	db  $E3, $E3, $E3, $E3, $E3, $E3, $E3, $E3, $E3, $E3, $E3, $E3, $E3, $E3, $E3, $E3;
600+  DBA4 E3 E3 E3 E3
600+  DBA8 E3 E3 E3 E3
600+  DBAC E3 E3 E3 E3
601+  DBB0 E3 E3 E3 E3  	db  $E3, $E3, $E3, $E3, $E3, $E3, $E3, $E3, $E3, $E3, $E3, $E3, $E3, $E3, $E3, $0D;
601+  DBB4 E3 E3 E3 E3
601+  DBB8 E3 E3 E3 E3
601+  DBBC E3 E3 E3 0D
602+  DBC0 E3 E3 E3 E3  	db  $E3, $E3, $E3, $E3, $E3, $E3, $E3, $E3, $E3, $E3, $E3, $E3, $E3, $E3, $0D, $04;
602+  DBC4 E3 E3 E3 E3
602+  DBC8 E3 E3 E3 E3
602+  DBCC E3 E3 0D 04
603+  DBD0 E3 E3 E3 E3  	db  $E3, $E3, $E3, $E3, $E3, $E3, $E3, $E3, $E3, $E3, $E3, $E3, $E3, $E3, $E3, $E3;
603+  DBD4 E3 E3 E3 E3
603+  DBD8 E3 E3 E3 E3
603+  DBDC E3 E3 E3 E3
604+  DBE0 E3 E3 E3 E3  	db  $E3, $E3, $E3, $E3, $E3, $E3, $E3, $E3, $E3, $E3, $E3, $E3, $E3, $E3, $E3, $64;
604+  DBE4 E3 E3 E3 E3
604+  DBE8 E3 E3 E3 E3
604+  DBEC E3 E3 E3 64
605+  DBF0 E3 E3 E3 E3  	db  $E3, $E3, $E3, $E3, $E3, $E3, $E3, $E3, $E3, $E3, $E3, $E3, $E3, $E3, $64, $A9;
605+  DBF4 E3 E3 E3 E3
605+  DBF8 E3 E3 E3 E3
605+  DBFC E3 E3 64 A9
606+  DC00
607+  DC00
608+  DC00
609+  DC00              Caveman_Walk_D_2:
610+  DC00 E3 E3 E3 E3  	db  $E3, $E3, $E3, $E3, $E3, $E3, $E3, $E3, $E3, $E3, $E3, $E3, $E3, $E3, $E3, $E3;
610+  DC04 E3 E3 E3 E3
610+  DC08 E3 E3 E3 E3
610+  DC0C E3 E3 E3 E3
611+  DC10 E3 0D 0D E3  	db  $E3, $0D, $0D, $E3, $E3, $0D, $E3, $E3, $0D, $E3, $E3, $E3, $E3, $E3, $E3, $E3;
611+  DC14 E3 0D E3 E3
611+  DC18 0D E3 E3 E3
611+  DC1C E3 E3 E3 E3
612+  DC20 E3 E3 04 0D  	db  $E3, $E3, $04, $0D, $E3, $11, $E3, $11, $E3, $E3, $E3, $E3, $E3, $E3, $E3, $E3;
612+  DC24 E3 11 E3 11
612+  DC28 E3 E3 E3 E3
612+  DC2C E3 E3 E3 E3
613+  DC30 E3 11 11 04  	db  $E3, $11, $11, $04, $0D, $11, $15, $0D, $E3, $E3, $E3, $11, $11, $11, $11, $E3;
613+  DC34 0D 11 15 0D
613+  DC38 E3 E3 E3 11
613+  DC3C 11 11 11 E3
614+  DC40 04 04 11 15  	db  $04, $04, $11, $15, $11, $0D, $15, $0D, $FF, $E3, $11, $0D, $0D, $E3, $E3, $E3;
614+  DC44 11 0D 15 0D
614+  DC48 FF E3 11 0D
614+  DC4C 0D E3 E3 E3
615+  DC50 E3 E3 04 0D  	db  $E3, $E3, $04, $0D, $15, $0D, $11, $0D, $FF, $0D, $11, $11, $15, $15, $11, $11;
615+  DC54 15 0D 11 0D
615+  DC58 FF 0D 11 11
615+  DC5C 15 15 11 11
616+  DC60 E3 E3 E3 04  	db  $E3, $E3, $E3, $04, $04, $11, $0D, $FF, $0D, $15, $0D, $11, $0D, $11, $15, $0D;
616+  DC64 04 11 0D FF
616+  DC68 0D 15 0D 11
616+  DC6C 0D 11 15 0D
617+  DC70 E3 0D 0D E3  	db  $E3, $0D, $0D, $E3, $E3, $B6, $B6, $0D, $0D, $11, $15, $04, $11, $0D, $11, $15;
617+  DC74 E3 B6 B6 0D
617+  DC78 0D 11 15 04
617+  DC7C 11 0D 11 15
618+  DC80 0D 11 11 11  	db  $0D, $11, $11, $11, $11, $0D, $0D, $11, $0D, $0D, $15, $A9, $04, $11, $64, $11;
618+  DC84 11 0D 0D 11
618+  DC88 0D 0D 15 A9
618+  DC8C 04 11 64 11
619+  DC90 00 04 04 0D  	db  $00, $04, $04, $0D, $0D, $11, $0D, $15, $A9, $0D, $15, $AD, $A9, $11, $AD, $64;
619+  DC94 0D 11 0D 15
619+  DC98 A9 0D 15 AD
619+  DC9C A9 11 AD 64
620+  DCA0 0D 11 11 0D  	db  $0D, $11, $11, $0D, $11, $15, $0D, $15, $AD, $11, $6D, $B6, $B6, $0D, $B6, $6D;
620+  DCA4 11 15 0D 15
620+  DCA8 AD 11 6D B6
620+  DCAC B6 0D B6 6D
621+  DCB0 11 0D D1 A9  	db  $11, $0D, $D1, $A9, $11, $15, $0D, $11, $D1, $11, $B6, $FF, $FF, $AD, $FF, $B6;
621+  DCB4 11 15 0D 11
621+  DCB8 D1 11 B6 FF
621+  DCBC FF AD FF B6
622+  DCC0 04 11 FA D1  	db  $04, $11, $FA, $D1, $11, $15, $0D, $AD, $F6, $0D, $FF, $FF, $04, $AD, $04, $FF;
622+  DCC4 11 15 0D AD
622+  DCC8 F6 0D FF FF
622+  DCCC 04 AD 04 FF
623+  DCD0 04 0D F6 FA  	db  $04, $0D, $F6, $FA, $11, $15, $A9, $D1, $F6, $AD, $FF, $FF, $6D, $D1, $6D, $FF;
623+  DCD4 11 15 A9 D1
623+  DCD8 F6 AD FF FF
623+  DCDC 6D D1 6D FF
624+  DCE0 64 64 D1 FA  	db  $64, $64, $D1, $FA, $11, $15, $AD, $F6, $FA, $AD, $B6, $FF, $04, $D1, $A9, $AD;
624+  DCE4 11 15 AD F6
624+  DCE8 FA AD B6 FF
624+  DCEC 04 D1 A9 AD
625+  DCF0 AD AD 64 AD  	db  $AD, $AD, $64, $AD, $11, $15, $D1, $FA, $FF, $FA, $AD, $B6, $FF, $F6, $FA, $FA;
625+  DCF4 11 15 D1 FA
625+  DCF8 FF FA AD B6
625+  DCFC FF F6 FA FA
626+  DD00
627+  DD00
628+  DD00
629+  DD00              Caveman_Walk_D_3:
630+  DD00 E3 E3 E3 E3  	db  $E3, $E3, $E3, $E3, $E3, $E3, $E3, $E3, $E3, $E3, $E3, $E3, $E3, $E3, $E3, $E3;
630+  DD04 E3 E3 E3 E3
630+  DD08 E3 E3 E3 E3
630+  DD0C E3 E3 E3 E3
631+  DD10 E3 E3 E3 E3  	db  $E3, $E3, $E3, $E3, $E3, $E3, $E3, $E3, $E3, $E3, $E3, $E3, $E3, $E3, $E3, $E3;
631+  DD14 E3 E3 E3 E3
631+  DD18 E3 E3 E3 E3
631+  DD1C E3 E3 E3 E3
632+  DD20 E3 E3 E3 E3  	db  $E3, $E3, $E3, $E3, $E3, $E3, $E3, $E3, $E3, $E3, $E3, $E3, $E3, $E3, $E3, $E3;
632+  DD24 E3 E3 E3 E3
632+  DD28 E3 E3 E3 E3
632+  DD2C E3 E3 E3 E3
633+  DD30 E3 E3 E3 E3  	db  $E3, $E3, $E3, $E3, $E3, $E3, $E3, $E3, $E3, $E3, $E3, $E3, $E3, $E3, $E3, $E3;
633+  DD34 E3 E3 E3 E3
633+  DD38 E3 E3 E3 E3
633+  DD3C E3 E3 E3 E3
634+  DD40 E3 E3 E3 E3  	db  $E3, $E3, $E3, $E3, $E3, $E3, $E3, $E3, $E3, $E3, $E3, $E3, $E3, $E3, $E3, $E3;
634+  DD44 E3 E3 E3 E3
634+  DD48 E3 E3 E3 E3
634+  DD4C E3 E3 E3 E3
635+  DD50 11 11 E3 E3  	db  $11, $11, $E3, $E3, $E3, $E3, $E3, $E3, $E3, $E3, $E3, $E3, $E3, $E3, $E3, $E3;
635+  DD54 E3 E3 E3 E3
635+  DD58 E3 E3 E3 E3
635+  DD5C E3 E3 E3 E3
636+  DD60 0D E3 E3 E3  	db  $0D, $E3, $E3, $E3, $E3, $E3, $E3, $E3, $E3, $E3, $E3, $E3, $E3, $E3, $E3, $E3;
636+  DD64 E3 E3 E3 E3
636+  DD68 E3 E3 E3 E3
636+  DD6C E3 E3 E3 E3
637+  DD70 11 0D E3 E3  	db  $11, $0D, $E3, $E3, $E3, $E3, $E3, $E3, $E3, $E3, $E3, $E3, $E3, $E3, $E3, $E3;
637+  DD74 E3 E3 E3 E3
637+  DD78 E3 E3 E3 E3
637+  DD7C E3 E3 E3 E3
638+  DD80 15 11 E3 E3  	db  $15, $11, $E3, $E3, $E3, $E3, $E3, $E3, $E3, $E3, $E3, $E3, $E3, $E3, $E3, $E3;
638+  DD84 E3 E3 E3 E3
638+  DD88 E3 E3 E3 E3
638+  DD8C E3 E3 E3 E3
639+  DD90 11 15 11 E3  	db  $11, $15, $11, $E3, $E3, $E3, $E3, $E3, $E3, $E3, $E3, $E3, $E3, $E3, $E3, $E3;
639+  DD94 E3 E3 E3 E3
639+  DD98 E3 E3 E3 E3
639+  DD9C E3 E3 E3 E3
640+  DDA0 04 11 11 E3  	db  $04, $11, $11, $E3, $E3, $E3, $E3, $E3, $E3, $E3, $E3, $E3, $E3, $E3, $E3, $E3;
640+  DDA4 E3 E3 E3 E3
640+  DDA8 E3 E3 E3 E3
640+  DDAC E3 E3 E3 E3
641+  DDB0 00 0D 11 E3  	db  $00, $0D, $11, $E3, $E3, $E3, $E3, $E3, $E3, $E3, $E3, $E3, $E3, $E3, $E3, $E3;
641+  DDB4 E3 E3 E3 E3
641+  DDB8 E3 E3 E3 E3
641+  DDBC E3 E3 E3 E3
642+  DDC0 00 04 0D E3  	db  $00, $04, $0D, $E3, $E3, $E3, $E3, $E3, $E3, $E3, $E3, $E3, $E3, $E3, $E3, $E3;
642+  DDC4 E3 E3 E3 E3
642+  DDC8 E3 E3 E3 E3
642+  DDCC E3 E3 E3 E3
643+  DDD0 00 00 0D E3  	db  $00, $00, $0D, $E3, $E3, $E3, $E3, $E3, $E3, $E3, $E3, $E3, $E3, $E3, $E3, $E3;
643+  DDD4 E3 E3 E3 E3
643+  DDD8 E3 E3 E3 E3
643+  DDDC E3 E3 E3 E3
644+  DDE0 AD 00 0D E3  	db  $AD, $00, $0D, $E3, $E3, $E3, $E3, $E3, $E3, $E3, $E3, $E3, $E3, $E3, $E3, $E3;
644+  DDE4 E3 E3 E3 E3
644+  DDE8 E3 E3 E3 E3
644+  DDEC E3 E3 E3 E3
645+  DDF0 F6 A9 E3 E3  	db  $F6, $A9, $E3, $E3, $E3, $E3, $E3, $E3, $E3, $E3, $E3, $E3, $E3, $E3, $E3, $E3;
645+  DDF4 E3 E3 E3 E3
645+  DDF8 E3 E3 E3 E3
645+  DDFC E3 E3 E3 E3
646+  DE00
647+  DE00
648+  DE00
649+  DE00              Caveman_Walk_D_4:
650+  DE00 E3 E3 E3 E3  	db  $E3, $E3, $E3, $E3, $E3, $E3, $E3, $E3, $E3, $E3, $E3, $E3, $E3, $64, $D1, $F6;
650+  DE04 E3 E3 E3 E3
650+  DE08 E3 E3 E3 E3
650+  DE0C E3 64 D1 F6
651+  DE10 E3 E3 E3 E3  	db  $E3, $E3, $E3, $E3, $E3, $E3, $E3, $E3, $E3, $E3, $E3, $E3, $E3, $AD, $D1, $F6;
651+  DE14 E3 E3 E3 E3
651+  DE18 E3 E3 E3 E3
651+  DE1C E3 AD D1 F6
652+  DE20 E3 E3 E3 E3  	db  $E3, $E3, $E3, $E3, $E3, $E3, $E3, $E3, $E3, $E3, $E3, $E3, $E3, $AD, $F6, $F6;
652+  DE24 E3 E3 E3 E3
652+  DE28 E3 E3 E3 E3
652+  DE2C E3 AD F6 F6
653+  DE30 E3 E3 E3 E3  	db  $E3, $E3, $E3, $E3, $E3, $E3, $E3, $E3, $E3, $E3, $E3, $E3, $E3, $A9, $F6, $F6;
653+  DE34 E3 E3 E3 E3
653+  DE38 E3 E3 E3 E3
653+  DE3C E3 A9 F6 F6
654+  DE40 E3 E3 E3 E3  	db  $E3, $E3, $E3, $E3, $E3, $E3, $E3, $E3, $E3, $E3, $E3, $E3, $E3, $64, $D1, $F6;
654+  DE44 E3 E3 E3 E3
654+  DE48 E3 E3 E3 E3
654+  DE4C E3 64 D1 F6
655+  DE50 E3 E3 E3 E3  	db  $E3, $E3, $E3, $E3, $E3, $E3, $E3, $E3, $E3, $E3, $E3, $E3, $E3, $E3, $AD, $D1;
655+  DE54 E3 E3 E3 E3
655+  DE58 E3 E3 E3 E3
655+  DE5C E3 E3 AD D1
656+  DE60 E3 E3 E3 E3  	db  $E3, $E3, $E3, $E3, $E3, $E3, $E3, $E3, $E3, $E3, $E3, $E3, $E3, $E3, $A9, $AD;
656+  DE64 E3 E3 E3 E3
656+  DE68 E3 E3 E3 E3
656+  DE6C E3 E3 A9 AD
657+  DE70 E3 E3 E3 E3  	db  $E3, $E3, $E3, $E3, $E3, $E3, $E3, $E3, $E3, $E3, $E3, $E3, $E3, $E3, $64, $A9;
657+  DE74 E3 E3 E3 E3
657+  DE78 E3 E3 E3 E3
657+  DE7C E3 E3 64 A9
658+  DE80 E3 E3 E3 E3  	db  $E3, $E3, $E3, $E3, $E3, $E3, $E3, $E3, $E3, $E3, $E3, $E3, $E3, $E3, $64, $64;
658+  DE84 E3 E3 E3 E3
658+  DE88 E3 E3 E3 E3
658+  DE8C E3 E3 64 64
659+  DE90 E3 E3 E3 E3  	db  $E3, $E3, $E3, $E3, $E3, $E3, $E3, $E3, $E3, $E3, $E3, $E3, $E3, $E3, $64, $A9;
659+  DE94 E3 E3 E3 E3
659+  DE98 E3 E3 E3 E3
659+  DE9C E3 E3 64 A9
660+  DEA0 E3 E3 E3 E3  	db  $E3, $E3, $E3, $E3, $E3, $E3, $E3, $E3, $E3, $E3, $E3, $E3, $E3, $E3, $E3, $64;
660+  DEA4 E3 E3 E3 E3
660+  DEA8 E3 E3 E3 E3
660+  DEAC E3 E3 E3 64
661+  DEB0 E3 E3 E3 E3  	db  $E3, $E3, $E3, $E3, $E3, $E3, $E3, $E3, $E3, $E3, $E3, $E3, $E3, $E3, $E3, $64;
661+  DEB4 E3 E3 E3 E3
661+  DEB8 E3 E3 E3 E3
661+  DEBC E3 E3 E3 64
662+  DEC0 E3 E3 E3 E3  	db  $E3, $E3, $E3, $E3, $E3, $E3, $E3, $E3, $E3, $E3, $E3, $E3, $E3, $E3, $E3, $E3;
662+  DEC4 E3 E3 E3 E3
662+  DEC8 E3 E3 E3 E3
662+  DECC E3 E3 E3 E3
663+  DED0 E3 E3 E3 E3  	db  $E3, $E3, $E3, $E3, $E3, $E3, $E3, $E3, $E3, $E3, $E3, $E3, $E3, $E3, $E3, $E3;
663+  DED4 E3 E3 E3 E3
663+  DED8 E3 E3 E3 E3
663+  DEDC E3 E3 E3 E3
664+  DEE0 E3 E3 E3 E3  	db  $E3, $E3, $E3, $E3, $E3, $E3, $E3, $E3, $E3, $E3, $E3, $E3, $E3, $E3, $E3, $E3;
664+  DEE4 E3 E3 E3 E3
664+  DEE8 E3 E3 E3 E3
664+  DEEC E3 E3 E3 E3
665+  DEF0 E3 E3 E3 E3  	db  $E3, $E3, $E3, $E3, $E3, $E3, $E3, $E3, $E3, $E3, $E3, $E3, $E3, $E3, $E3, $E3;
665+  DEF4 E3 E3 E3 E3
665+  DEF8 E3 E3 E3 E3
665+  DEFC E3 E3 E3 E3
666+  DF00
667+  DF00
668+  DF00
669+  DF00              Caveman_Walk_D_5:
670+  DF00 FA FA D1 64  	db  $FA, $FA, $D1, $64, $11, $11, $D1, $FF, $FA, $FF, $F6, $AD, $AD, $D1, $FA, $FF;
670+  DF04 11 11 D1 FF
670+  DF08 FA FF F6 AD
670+  DF0C AD D1 FA FF
671+  DF10 FA FA FA F6  	db  $FA, $FA, $FA, $F6, $D1, $11, $D1, $F6, $F6, $FA, $FA, $D1, $D1, $A9, $D1, $A9;
671+  DF14 D1 11 D1 F6
671+  DF18 F6 FA FA D1
671+  DF1C D1 A9 D1 A9
672+  DF20 FA FA FF FA  	db  $FA, $FA, $FF, $FA, $F6, $AD, $A9, $D1, $D1, $AD, $F6, $FA, $F6, $D1, $64, $D1;
672+  DF24 F6 AD A9 D1
672+  DF28 D1 AD F6 FA
672+  DF2C F6 D1 64 D1
673+  DF30 FA FA FA FF  	db  $FA, $FA, $FA, $FF, $FA, $D1, $A9, $D1, $FA, $64, $AD, $F6, $FA, $FA, $A9, $F6;
673+  DF34 FA D1 A9 D1
673+  DF38 FA 64 AD F6
673+  DF3C FA FA A9 F6
674+  DF40 F6 FA FA FF  	db  $F6, $FA, $FA, $FF, $FA, $F6, $A9, $AD, $D1, $D1, $64, $64, $D1, $F6, $AD, $F6;
674+  DF44 FA F6 A9 AD
674+  DF48 D1 D1 64 64
674+  DF4C D1 F6 AD F6
675+  DF50 F6 FA FA FA  	db  $F6, $FA, $FA, $FA, $FA, $FA, $A9, $64, $D1, $F6, $F6, $AD, $64, $64, $AD, $F6;
675+  DF54 FA FA A9 64
675+  DF58 D1 F6 F6 AD
675+  DF5C 64 64 AD F6
676+  DF60 D1 F6 F6 FA  	db  $D1, $F6, $F6, $FA, $F6, $F6, $AD, $64, $64, $64, $64, $64, $15, $15, $A9, $F6;
676+  DF64 F6 F6 AD 64
676+  DF68 64 64 64 64
676+  DF6C 15 15 A9 F6
677+  DF70 AD D1 D1 F6  	db  $AD, $D1, $D1, $F6, $F6, $D1, $F6, $F6, $F6, $F6, $D1, $AD, $11, $FF, $A9, $D1;
677+  DF74 F6 D1 F6 F6
677+  DF78 F6 F6 D1 AD
677+  DF7C 11 FF A9 D1
678+  DF80 64 A9 AD F6  	db  $64, $A9, $AD, $F6, $F6, $FA, $FA, $FA, $FF, $FF, $FA, $D1, $11, $15, $15, $AD;
678+  DF84 F6 FA FA FA
678+  DF88 FF FF FA D1
678+  DF8C 11 15 15 AD
679+  DF90 A9 64 A9 D1  	db  $A9, $64, $A9, $D1, $F6, $FA, $FA, $FF, $FF, $FA, $FA, $F6, $A9, $11, $11, $64;
679+  DF94 F6 FA FA FF
679+  DF98 FF FA FA F6
679+  DF9C A9 11 11 64
680+  DFA0 AD A9 64 AD  	db  $AD, $A9, $64, $AD, $F6, $F6, $FA, $FA, $FA, $FA, $F6, $D1, $A9, $0D, $0D, $D1;
680+  DFA4 F6 F6 FA FA
680+  DFA8 FA FA F6 D1
680+  DFAC A9 0D 0D D1
681+  DFB0 A9 A9 64 A9  	db  $A9, $A9, $64, $A9, $D1, $F6, $F6, $F6, $F6, $D1, $D1, $AD, $64, $0D, $F6, $D1;
681+  DFB4 D1 F6 F6 F6
681+  DFB8 F6 D1 D1 AD
681+  DFBC 64 0D F6 D1
682+  DFC0 64 AD 64 A9  	db  $64, $AD, $64, $A9, $AD, $D1, $D1, $D1, $D1, $AD, $64, $64, $AD, $F6, $D1, $D1;
682+  DFC4 AD D1 D1 D1
682+  DFC8 D1 AD 64 64
682+  DFCC AD F6 D1 D1
683+  DFD0 64 A9 A9 64  	db  $64, $A9, $A9, $64, $A9, $AD, $AD, $AD, $64, $64, $AD, $F6, $D1, $D1, $A9, $D1;
683+  DFD4 A9 AD AD AD
683+  DFD8 64 64 AD F6
683+  DFDC D1 D1 A9 D1
684+  DFE0 E3 64 A9 64  	db  $E3, $64, $A9, $64, $64, $64, $64, $64, $AD, $A9, $AD, $AD, $A9, $A9, $AD, $A9;
684+  DFE4 64 64 64 64
684+  DFE8 AD A9 AD AD
684+  DFEC A9 A9 AD A9
685+  DFF0 E3 64 64 64  	db  $E3, $64, $64, $64, $AD, $AD, $AD, $D1, $D1, $D1, $D1, $F6, $F6, $F6, $D1, $E3;
685+  DFF4 AD AD AD D1
685+  DFF8 D1 D1 D1 F6
685+  DFFC F6 F6 D1 E3
686+  E000
687+  E000
688+  E000
689+  E000              Caveman_Walk_D_6:
690+  E000 FA 64 A9 A9  	db  $FA, $64, $A9, $A9, $E3, $E3, $E3, $E3, $E3, $E3, $E3, $E3, $E3, $E3, $E3, $E3;
690+  E004 E3 E3 E3 E3
690+  E008 E3 E3 E3 E3
690+  E00C E3 E3 E3 E3
691+  E010 D1 F6 64 64  	db  $D1, $F6, $64, $64, $E3, $E3, $E3, $E3, $E3, $E3, $E3, $E3, $E3, $E3, $E3, $E3;
691+  E014 E3 E3 E3 E3
691+  E018 E3 E3 E3 E3
691+  E01C E3 E3 E3 E3
692+  E020 F6 A9 AD A9  	db  $F6, $A9, $AD, $A9, $64, $E3, $E3, $E3, $E3, $E3, $E3, $E3, $E3, $E3, $E3, $E3;
692+  E024 64 E3 E3 E3
692+  E028 E3 E3 E3 E3
692+  E02C E3 E3 E3 E3
693+  E030 FA FF FA F6  	db  $FA, $FF, $FA, $F6, $64, $E3, $E3, $E3, $E3, $E3, $E3, $E3, $E3, $E3, $E3, $E3;
693+  E034 64 E3 E3 E3
693+  E038 E3 E3 E3 E3
693+  E03C E3 E3 E3 E3
694+  E040 FF FA AD 64  	db  $FF, $FA, $AD, $64, $64, $E3, $E3, $E3, $E3, $E3, $E3, $E3, $E3, $E3, $E3, $E3;
694+  E044 64 E3 E3 E3
694+  E048 E3 E3 E3 E3
694+  E04C E3 E3 E3 E3
695+  E050 FF FA F6 64  	db  $FF, $FA, $F6, $64, $64, $E3, $E3, $E3, $E3, $E3, $E3, $E3, $E3, $E3, $E3, $E3;
695+  E054 64 E3 E3 E3
695+  E058 E3 E3 E3 E3
695+  E05C E3 E3 E3 E3
696+  E060 FA F6 AD 64  	db  $FA, $F6, $AD, $64, $E3, $E3, $E3, $E3, $E3, $E3, $E3, $E3, $E3, $E3, $E3, $E3;
696+  E064 E3 E3 E3 E3
696+  E068 E3 E3 E3 E3
696+  E06C E3 E3 E3 E3
697+  E070 F6 D1 64 64  	db  $F6, $D1, $64, $64, $E3, $E3, $E3, $E3, $E3, $E3, $E3, $E3, $E3, $E3, $E3, $E3;
697+  E074 E3 E3 E3 E3
697+  E078 E3 E3 E3 E3
697+  E07C E3 E3 E3 E3
698+  E080 AD 64 64 E3  	db  $AD, $64, $64, $E3, $E3, $E3, $E3, $E3, $E3, $E3, $E3, $E3, $E3, $E3, $E3, $E3;
698+  E084 E3 E3 E3 E3
698+  E088 E3 E3 E3 E3
698+  E08C E3 E3 E3 E3
699+  E090 64 AD 64 E3  	db  $64, $AD, $64, $E3, $E3, $E3, $E3, $E3, $E3, $E3, $E3, $E3, $E3, $E3, $E3, $E3;
699+  E094 E3 E3 E3 E3
699+  E098 E3 E3 E3 E3
699+  E09C E3 E3 E3 E3
700+  E0A0 F6 D1 64 E3  	db  $F6, $D1, $64, $E3, $E3, $E3, $E3, $E3, $E3, $E3, $E3, $E3, $E3, $E3, $E3, $E3;
700+  E0A4 E3 E3 E3 E3
700+  E0A8 E3 E3 E3 E3
700+  E0AC E3 E3 E3 E3
701+  E0B0 F6 AD 64 E3  	db  $F6, $AD, $64, $E3, $E3, $E3, $E3, $E3, $E3, $E3, $E3, $E3, $E3, $E3, $E3, $E3;
701+  E0B4 E3 E3 E3 E3
701+  E0B8 E3 E3 E3 E3
701+  E0BC E3 E3 E3 E3
702+  E0C0 F6 04 E3 E3  	db  $F6, $04, $E3, $E3, $E3, $E3, $E3, $E3, $E3, $E3, $E3, $E3, $E3, $E3, $E3, $E3;
702+  E0C4 E3 E3 E3 E3
702+  E0C8 E3 E3 E3 E3
702+  E0CC E3 E3 E3 E3
703+  E0D0 AD 64 E3 E3  	db  $AD, $64, $E3, $E3, $E3, $E3, $E3, $E3, $E3, $E3, $E3, $E3, $E3, $E3, $E3, $E3;
703+  E0D4 E3 E3 E3 E3
703+  E0D8 E3 E3 E3 E3
703+  E0DC E3 E3 E3 E3
704+  E0E0 64 E3 E3 E3  	db  $64, $E3, $E3, $E3, $E3, $E3, $E3, $E3, $E3, $E3, $E3, $E3, $E3, $E3, $E3, $E3;
704+  E0E4 E3 E3 E3 E3
704+  E0E8 E3 E3 E3 E3
704+  E0EC E3 E3 E3 E3
705+  E0F0 E3 E3 E3 E3  	db  $E3, $E3, $E3, $E3, $E3, $E3, $E3, $E3, $A9, $A9, $E3, $E3, $E3, $E3, $E3, $E3;
705+  E0F4 E3 E3 E3 E3
705+  E0F8 A9 A9 E3 E3
705+  E0FC E3 E3 E3 E3
706+  E100
707+  E100
708+  E100
709+  E100              Caveman_Walk_D_7:
710+  E100 E3 E3 E3 E3  	db  $E3, $E3, $E3, $E3, $E3, $E3, $E3, $E3, $E3, $E3, $E3, $E3, $E3, $E3, $E3, $04;
710+  E104 E3 E3 E3 E3
710+  E108 E3 E3 E3 E3
710+  E10C E3 E3 E3 04
711+  E110 E3 E3 E3 E3  	db  $E3, $E3, $E3, $E3, $E3, $E3, $E3, $E3, $E3, $E3, $64, $64, $A9, $64, $E3, $0D;
711+  E114 E3 E3 E3 E3
711+  E118 E3 E3 64 64
711+  E11C A9 64 E3 0D
712+  E120 E3 E3 E3 E3  	db  $E3, $E3, $E3, $E3, $E3, $E3, $E3, $E3, $E3, $E3, $A9, $AD, $AD, $A9, $11, $11;
712+  E124 E3 E3 E3 E3
712+  E128 E3 E3 A9 AD
712+  E12C AD A9 11 11
713+  E130 E3 E3 E3 E3  	db  $E3, $E3, $E3, $E3, $E3, $E3, $E3, $E3, $E3, $64, $AD, $D1, $D1, $AD, $11, $0D;
713+  E134 E3 E3 E3 E3
713+  E138 E3 64 AD D1
713+  E13C D1 AD 11 0D
714+  E140 E3 E3 E3 E3  	db  $E3, $E3, $E3, $E3, $E3, $E3, $E3, $E3, $E3, $A9, $D1, $FA, $FA, $D1, $04, $04;
714+  E144 E3 E3 E3 E3
714+  E148 E3 A9 D1 FA
714+  E14C FA D1 04 04
715+  E150 E3 E3 E3 E3  	db  $E3, $E3, $E3, $E3, $E3, $E3, $E3, $E3, $64, $AD, $F6, $FF, $FA, $D1, $AD, $04;
715+  E154 E3 E3 E3 E3
715+  E158 64 AD F6 FF
715+  E15C FA D1 AD 04
716+  E160 E3 E3 E3 E3  	db  $E3, $E3, $E3, $E3, $E3, $E3, $E3, $E3, $64, $D1, $FA, $FF, $FA, $D1, $D1, $AD;
716+  E164 E3 E3 E3 E3
716+  E168 64 D1 FA FF
716+  E16C FA D1 D1 AD
717+  E170 E3 E3 E3 E3  	db  $E3, $E3, $E3, $E3, $E3, $E3, $E3, $64, $A9, $F6, $FF, $FA, $D1, $A9, $AD, $AD;
717+  E174 E3 E3 E3 64
717+  E178 A9 F6 FF FA
717+  E17C D1 A9 AD AD
718+  E180 E3 E3 E3 E3  	db  $E3, $E3, $E3, $E3, $E3, $E3, $E3, $64, $AD, $F6, $FA, $F6, $AD, $64, $64, $A9;
718+  E184 E3 E3 E3 64
718+  E188 AD F6 FA F6
718+  E18C AD 64 64 A9
719+  E190 E3 E3 E3 E3  	db  $E3, $E3, $E3, $E3, $E3, $E3, $E3, $64, $AD, $F6, $F6, $AD, $64, $E3, $E3, $64;
719+  E194 E3 E3 E3 64
719+  E198 AD F6 F6 AD
719+  E19C 64 E3 E3 64
720+  E1A0 E3 E3 E3 E3  	db  $E3, $E3, $E3, $E3, $E3, $E3, $E3, $64, $A9, $FA, $D1, $A9, $E3, $E3, $E3, $E3;
720+  E1A4 E3 E3 E3 64
720+  E1A8 A9 FA D1 A9
720+  E1AC E3 E3 E3 E3
721+  E1B0 E3 E3 E3 E3  	db  $E3, $E3, $E3, $E3, $E3, $E3, $E3, $64, $A9, $AD, $F6, $64, $E3, $E3, $E3, $E3;
721+  E1B4 E3 E3 E3 64
721+  E1B8 A9 AD F6 64
721+  E1BC E3 E3 E3 E3
722+  E1C0 E3 E3 E3 E3  	db  $E3, $E3, $E3, $E3, $E3, $E3, $E3, $E3, $A9, $D1, $FA, $AD, $E3, $E3, $E3, $E3;
722+  E1C4 E3 E3 E3 E3
722+  E1C8 A9 D1 FA AD
722+  E1CC E3 E3 E3 E3
723+  E1D0 E3 E3 E3 E3  	db  $E3, $E3, $E3, $E3, $E3, $E3, $E3, $E3, $64, $A9, $AD, $64, $E3, $E3, $E3, $E3;
723+  E1D4 E3 E3 E3 E3
723+  E1D8 64 A9 AD 64
723+  E1DC E3 E3 E3 E3
724+  E1E0 E3 E3 E3 E3  	db  $E3, $E3, $E3, $E3, $E3, $E3, $E3, $E3, $E3, $64, $64, $E3, $E3, $E3, $E3, $E3;
724+  E1E4 E3 E3 E3 E3
724+  E1E8 E3 64 64 E3
724+  E1EC E3 E3 E3 E3
725+  E1F0 E3 E3 E3 E3  	db  $E3, $E3, $E3, $E3, $E3, $E3, $E3, $E3, $E3, $E3, $E3, $E3, $E3, $E3, $E3, $E3;
725+  E1F4 E3 E3 E3 E3
725+  E1F8 E3 E3 E3 E3
725+  E1FC E3 E3 E3 E3
726+  E200
727+  E200
728+  E200
729+  E200              Caveman_Walk_D_8:
730+  E200 11 11 11 11  	db  $11, $11, $11, $11, $0D, $AD, $AD, $AD, $D1, $D1, $F6, $FA, $FA, $FA, $A9, $04;
730+  E204 0D AD AD AD
730+  E208 D1 D1 F6 FA
730+  E20C FA FA A9 04
731+  E210 11 0D 15 0D  	db  $11, $0D, $15, $0D, $11, $0D, $0D, $A9, $AD, $AD, $D1, $A9, $0D, $0D, $11, $11;
731+  E214 11 0D 0D A9
731+  E218 AD AD D1 A9
731+  E21C 0D 0D 11 11
732+  E220 0D 15 0D 11  	db  $0D, $15, $0D, $11, $15, $11, $0D, $11, $11, $0D, $11, $0D, $11, $15, $0D, $11;
732+  E224 15 11 0D 11
732+  E228 11 0D 11 0D
732+  E22C 11 15 0D 11
733+  E230 15 11 0D 11  	db  $15, $11, $0D, $11, $15, $11, $0D, $11, $15, $0D, $15, $11, $0D, $11, $15, $0D;
733+  E234 15 11 0D 11
733+  E238 15 0D 15 11
733+  E23C 0D 11 15 0D
734+  E240 15 0D 11 11  	db  $15, $0D, $11, $11, $15, $11, $0D, $11, $15, $0D, $11, $15, $11, $04, $04, $15;
734+  E244 15 11 0D 11
734+  E248 15 0D 11 15
734+  E24C 11 04 04 15
735+  E250 04 04 11 15  	db  $04, $04, $11, $15, $15, $11, $04, $11, $15, $04, $11, $15, $15, $04, $64, $AD;
735+  E254 15 11 04 11
735+  E258 15 04 11 15
735+  E25C 15 04 64 AD
736+  E260 A9 64 04 15  	db  $A9, $64, $04, $15, $11, $04, $04, $0D, $15, $04, $04, $11, $15, $04, $64, $AD;
736+  E264 11 04 04 0D
736+  E268 15 04 04 11
736+  E26C 15 04 64 AD
737+  E270 AD A9 04 15  	db  $AD, $A9, $04, $15, $04, $E3, $E3, $04, $15, $04, $E3, $E3, $11, $04, $E3, $A9;
737+  E274 04 E3 E3 04
737+  E278 15 04 E3 E3
737+  E27C 11 04 E3 A9
738+  E280 AD A9 64 04  	db  $AD, $A9, $64, $04, $64, $E3, $E3, $E3, $04, $E3, $E3, $E3, $E3, $E3, $E3, $64;
738+  E284 64 E3 E3 E3
738+  E288 04 E3 E3 E3
738+  E28C E3 E3 E3 64
739+  E290 64 A9 A9 64  	db  $64, $A9, $A9, $64, $E3, $E3, $E3, $E3, $E3, $E3, $E3, $E3, $E3, $E3, $E3, $E3;
739+  E294 E3 E3 E3 E3
739+  E298 E3 E3 E3 E3
739+  E29C E3 E3 E3 E3
740+  E2A0 E3 64 64 E3  	db  $E3, $64, $64, $E3, $E3, $E3, $E3, $E3, $E3, $E3, $E3, $E3, $E3, $E3, $E3, $E3;
740+  E2A4 E3 E3 E3 E3
740+  E2A8 E3 E3 E3 E3
740+  E2AC E3 E3 E3 E3
741+  E2B0 E3 E3 E3 E3  	db  $E3, $E3, $E3, $E3, $E3, $E3, $E3, $E3, $E3, $E3, $E3, $E3, $E3, $E3, $E3, $E3;
741+  E2B4 E3 E3 E3 E3
741+  E2B8 E3 E3 E3 E3
741+  E2BC E3 E3 E3 E3
742+  E2C0 E3 E3 E3 E3  	db  $E3, $E3, $E3, $E3, $E3, $E3, $E3, $E3, $E3, $E3, $E3, $E3, $E3, $E3, $E3, $E3;
742+  E2C4 E3 E3 E3 E3
742+  E2C8 E3 E3 E3 E3
742+  E2CC E3 E3 E3 E3
743+  E2D0 E3 E3 E3 E3  	db  $E3, $E3, $E3, $E3, $E3, $E3, $E3, $E3, $E3, $E3, $E3, $E3, $E3, $E3, $E3, $E3;
743+  E2D4 E3 E3 E3 E3
743+  E2D8 E3 E3 E3 E3
743+  E2DC E3 E3 E3 E3
744+  E2E0 E3 E3 E3 E3  	db  $E3, $E3, $E3, $E3, $E3, $E3, $E3, $E3, $E3, $E3, $E3, $E3, $E3, $E3, $E3, $E3;
744+  E2E4 E3 E3 E3 E3
744+  E2E8 E3 E3 E3 E3
744+  E2EC E3 E3 E3 E3
745+  E2F0 E3 E3 E3 E3  	db  $E3, $E3, $E3, $E3, $E3, $E3, $E3, $E3, $E3, $E3, $E3, $E3, $E3, $E3, $E3, $E3;
745+  E2F4 E3 E3 E3 E3
745+  E2F8 E3 E3 E3 E3
745+  E2FC E3 E3 E3 E3
746+  E300
747+  E300
748+  E300
749+  E300              Caveman_Walk_D_9:
750+  E300 E3 E3 E3 E3  	db  $E3, $E3, $E3, $E3, $E3, $E3, $E3, $A9, $F6, $AD, $A9, $E3, $E3, $E3, $E3, $E3;
750+  E304 E3 E3 E3 A9
750+  E308 F6 AD A9 E3
750+  E30C E3 E3 E3 E3
751+  E310 0D E3 E3 E3  	db  $0D, $E3, $E3, $E3, $E3, $E3, $E3, $E3, $A9, $FA, $D1, $64, $E3, $E3, $E3, $E3;
751+  E314 E3 E3 E3 E3
751+  E318 A9 FA D1 64
751+  E31C E3 E3 E3 E3
752+  E320 11 0D E3 E3  	db  $11, $0D, $E3, $E3, $E3, $E3, $E3, $A9, $AD, $64, $AD, $64, $E3, $E3, $E3, $E3;
752+  E324 E3 E3 E3 A9
752+  E328 AD 64 AD 64
752+  E32C E3 E3 E3 E3
753+  E330 64 11 0D E3  	db  $64, $11, $0D, $E3, $E3, $A9, $AD, $D1, $F6, $D1, $64, $E3, $E3, $E3, $E3, $E3;
753+  E334 E3 A9 AD D1
753+  E338 F6 D1 64 E3
753+  E33C E3 E3 E3 E3
754+  E340 AD AD 64 E3  	db  $AD, $AD, $64, $E3, $A9, $AD, $F6, $F6, $A9, $AD, $64, $E3, $E3, $E3, $E3, $E3;
754+  E344 A9 AD F6 F6
754+  E348 A9 AD 64 E3
754+  E34C E3 E3 E3 E3
755+  E350 D1 F6 D1 64  	db  $D1, $F6, $D1, $64, $A9, $F6, $FA, $F6, $D1, $64, $E3, $E3, $E3, $E3, $E3, $E3;
755+  E354 A9 F6 FA F6
755+  E358 D1 64 E3 E3
755+  E35C E3 E3 E3 E3
756+  E360 F6 FA F6 D1  	db  $F6, $FA, $F6, $D1, $F6, $FA, $F6, $A9, $A9, $64, $E3, $E3, $E3, $E3, $E3, $E3;
756+  E364 F6 FA F6 A9
756+  E368 A9 64 E3 E3
756+  E36C E3 E3 E3 E3
757+  E370 D1 F6 FA FA  	db  $D1, $F6, $FA, $FA, $FA, $FA, $F6, $D1, $64, $E3, $E3, $E3, $E3, $E3, $E3, $E3;
757+  E374 FA FA F6 D1
757+  E378 64 E3 E3 E3
757+  E37C E3 E3 E3 E3
758+  E380 AD F6 FA FF  	db  $AD, $F6, $FA, $FF, $FA, $F6, $AD, $A9, $64, $E3, $E3, $E3, $E3, $E3, $E3, $E3;
758+  E384 FA F6 AD A9
758+  E388 64 E3 E3 E3
758+  E38C E3 E3 E3 E3
759+  E390 A9 D1 F6 FA  	db  $A9, $D1, $F6, $FA, $FA, $D1, $A9, $64, $E3, $E3, $E3, $E3, $E3, $E3, $E3, $E3;
759+  E394 FA D1 A9 64
759+  E398 E3 E3 E3 E3
759+  E39C E3 E3 E3 E3
760+  E3A0 64 AD D1 F6  	db  $64, $AD, $D1, $F6, $D1, $AD, $64, $E3, $E3, $E3, $E3, $E3, $E3, $E3, $E3, $E3;
760+  E3A4 D1 AD 64 E3
760+  E3A8 E3 E3 E3 E3
760+  E3AC E3 E3 E3 E3
761+  E3B0 64 A9 D1 D1  	db  $64, $A9, $D1, $D1, $AD, $A9, $E3, $E3, $E3, $E3, $E3, $E3, $E3, $E3, $E3, $E3;
761+  E3B4 AD A9 E3 E3
761+  E3B8 E3 E3 E3 E3
761+  E3BC E3 E3 E3 E3
762+  E3C0 E3 64 A9 AD  	db  $E3, $64, $A9, $AD, $A9, $64, $E3, $E3, $E3, $E3, $E3, $E3, $E3, $E3, $E3, $E3;
762+  E3C4 A9 64 E3 E3
762+  E3C8 E3 E3 E3 E3
762+  E3CC E3 E3 E3 E3
763+  E3D0 E3 E3 64 64  	db  $E3, $E3, $64, $64, $64, $E3, $E3, $E3, $E3, $E3, $E3, $E3, $E3, $E3, $E3, $E3;
763+  E3D4 64 E3 E3 E3
763+  E3D8 E3 E3 E3 E3
763+  E3DC E3 E3 E3 E3
764+  E3E0 E3 E3 E3 E3  	db  $E3, $E3, $E3, $E3, $E3, $E3, $E3, $E3, $E3, $E3, $E3, $E3, $E3, $E3, $E3, $E3;
764+  E3E4 E3 E3 E3 E3
764+  E3E8 E3 E3 E3 E3
764+  E3EC E3 E3 E3 E3
765+  E3F0 E3 E3 E3 E3  	db  $E3, $E3, $E3, $E3, $E3, $E3, $E3, $E3, $E3, $E3, $E3, $E3, $E3, $E3, $E3, $E3;
765+  E3F4 E3 E3 E3 E3
765+  E3F8 E3 E3 E3 E3
765+  E3FC E3 E3 E3 E3
766+  E400
767+  E400
768+  E400
769+  E400
770+  E400
771+  E400
772+  E400
773+  E400
774+  E400
775+  E400
776+  E400
777+  E400
778+  E400              ;;;;;;Fonts
779+  E400
780+  E400
781+  E400
782+  E400                  MMU 6,17
783+  E400              	org 0xC000
784+  C000
785+  C000 00 00 00...  	ds 64,0
786+  C040              	; incbin "fonts/font1.spr"
787+  C040              	; incbin "fonts/font2.spr"
788+  C040              	; incbin "fonts/font3.spr"
789+  C040              	; incbin "fonts/font4.spr"
790+  C040              	; incbin "fonts/font5.spr"
791+  C040              	; incbin "fonts/font6.spr"
792+  C040              	incbin "fonts/font7.spr"
793+  D040              	; incbin "fonts/font8.spr"
794+  D040              	; incbin "fonts/font9.spr"
795+  D040              	; incbin "fonts/font10.spr"
796+  D040              	; incbin "fonts/font11.spr"
797+  D040              	; incbin "fonts/font12.spr"
798+  D040              	; incbin "fonts/font13.spr"
799+  D040              	; incbin "fonts/font14.spr"
800+  D040              	; incbin "fonts/font15.spr"
801+  D040              	; incbin "fonts/font16.spr"
802+  D040              	; ; incbin "fonts/font17.spr"
803+  D040              	; incbin "fonts/font18.spr" *not mapped same as others (?)
804+  D040
805+  D040
806+  D040
807+  D040
808+  D040              ;; Layer2
809+  D040
810+  D040              	; MMU 7 n,40
811+  D040              	; org $e000
812+  D040              	; incbin "assets/sky.bmp", 1078
813+  D040
814+  D040              	MMU 7 n,40
815+  D040              	org $e000
816+  E000              	incbin "assets/skybigrotated.bmp", 1078
# file closed: src/loadbins.asm
 54   E000
 55   E000
 56   E000
 57   E000              	SAVENEX OPEN "main.nex", start , stack_top
 58   E000                  SAVENEX CORE 3, 0, 0
 59   E000                  SAVENEX CFG 0, 0
 60   E000              	SAVENEX AUTO
 61   E000                  SAVENEX CLOSE
 62   E000
 63   E000
 64   E000
# file closed: src/main.asm
