# file opened: src/main.asm
  1   0000                  org 0x8000
  2   8000
  3   8000                  DEVICE ZXSPECTRUMNEXT
  4   8000              	CSPECTMAP main.map
  5   8000
  6   8000
  7   8000              start:
  8   8000 F3           	di
  9   8001 31 FE 7F     	ld sp,0x7FFE
 10   8004 ED 91 07 03  	nextreg $7,3 ;set Mhz mode (3=28mhz)
 11   8008 ED 91 15 0B  	nextreg $15,%00001011 ;sprites/layers system register
 12   800C CD 5B 85     	call game_init
 13   800F C3 12 80     	jp main_loop
 14   8012
 15   8012              main_loop:
 16   8012 CD 71 85     	call game_update
 17   8015 CD 83 85     	call game_draw
 18   8018 C3 12 80     	jp main_loop
 19   801B
 20   801B
 21   801B
 22   801B
 23   801B              STACK_SIZE equ 20
 24   801B 00 00 00...  stack_bottom ds STACK_SIZE, 0
 25   802F 00           stack_top db 0
 26   8030
 27   8030              	include 'retrotools\constants.asm'
# file opened: src/retrotools/constants.asm
  1+  8030              FALSE equ 0
  2+  8030              TRUE equ 1
  3+  8030
  4+  8030              DEAD equ 0
  5+  8030              ALIVE equ 1
  6+  8030
  7+  8030              NOT_VISIBLE equ 0
  8+  8030              VISIBLE equ 1
  9+  8030
 10+  8030              NOT_ENABLED equ 0
 11+  8030              ENABLED equ 1
 12+  8030
 13+  8030
 14+  8030              ;DIRECTIONS:
 15+  8030              LEFT equ 0
 16+  8030              RIGHT equ 1
 17+  8030              UP equ 2
 18+  8030              DOWN equ 3
 19+  8030
 20+  8030
 21+  8030              ;48k Screen
 22+  8030              SCREEN_WIDTH_CELLS equ 32
 23+  8030              SCREEN_HEIGHT_CELLS equ 24
 24+  8030
 25+  8030
 26+  8030
 27+  8030              ;Next Screen
 28+  8030              GUTTER equ 32
 29+  8030
 30+  8030
 31+  8030
 32+  8030
 33+  8030              END_OF_ARRAY equ 255
 34+  8030
 35+  8030
 36+  8030
 37+  8030
 38+  8030
 39+  8030
 40+  8030
 41+  8030
 42+  8030
 43+  8030
# file closed: src/retrotools/constants.asm
 28   8030              	include 'retrotools\tools.asm'
# file opened: src/retrotools/tools.asm
  1+  8030              ;MACROS
  2+  8030              	MACRO BREAKPOINT
  3+  8030 ~            		DW $01DD
  4+  8030              	ENDM
  5+  8030
  6+  8030              	MACRO CLIPTILES x1,y1,x2,y2
  7+  8030 ~            		ld a,x1
  8+  8030 ~            		nextreg $1b,a
  9+  8030 ~            		ld a,y1
 10+  8030 ~            		nextreg $1b,a
 11+  8030 ~            		ld a,x2
 12+  8030 ~            		nextreg $1b,a
 13+  8030 ~            		ld a,y2
 14+  8030 ~            		nextreg $1b,a
 15+  8030 ~
 16+  8030              	ENDM
 17+  8030
 18+  8030              	MACRO CLIP_LAYER2 x1,x2,y1,y2
 19+  8030 ~            		ld a,x1
 20+  8030 ~            		nextreg $18,a
 21+  8030 ~            		ld a,x2
 22+  8030 ~            		nextreg $18,a
 23+  8030 ~            		ld a,y1
 24+  8030 ~            		nextreg $18,a
 25+  8030 ~            		ld a,y2
 26+  8030 ~            		nextreg $18,a
 27+  8030 ~
 28+  8030              	ENDM
 29+  8030
 30+  8030
 31+  8030              ;;;;;;;;;;;;;;;;;;;;;;;;;;;;;;;;;;;;
 32+  8030              ;; Wait for n clock cycles
 33+  8030              ;; Inputs: BC=n
 34+  8030              ;; Outputs: none
 35+  8030              ;; Destroys: A,BC
 36+  8030              ;;;;;;;;;;;;;;;;;;;;;;;;;;;;;;;;;;;;
 37+  8030              wait:
 38+  8030 0B           	dec bc
 39+  8031 78           	ld a,b
 40+  8032 FE 00        	cp 0
 41+  8034 C2 30 80     	jp nz, wait
 42+  8037 C9           	ret
 43+  8038
 44+  8038
 45+  8038
 46+  8038              ;;;em00k wrote this;;;;
 47+  8038              ;;;;;;;;;;;;;;;;;;;;;;;;;;;;;;;;;;;;
 48+  8038              ;; Wait for vertical blank
 49+  8038              ;; Inputs: B=frames delay count
 50+  8038              ;; Outputs:
 51+  8038              ;; Destroys:
 52+  8038              ;;;;;;;;;;;;;;;;;;;;;;;;;;;;;;;;;;;;
 53+  8038              WaitRasterLine:
 54+  8038 CD 3E 80     	call RastererWait
 55+  803B 10 FB        	djnz WaitRasterLine
 56+  803D C9           	ret
 57+  803E              RastererWait:
 58+  803E C5           	push bc
 59+  803F 1E 10        	ld e,16
 59+  8041 3E 1F          ld a,$1f
 59+  8043 01 3B 24       ld bc,$243b
 59+  8046 ED 79          out (c),a
 59+  8048 04             inc b
 60+  8049              WaitForLinea:
 61+  8049 ED 78        	in a,(c)
 61+  804B BB             cp e
 61+  804C 20 FB          jr nz,WaitForLinea
 62+  804E C1           	pop bc
 63+  804F C9           	ret
 64+  8050
 65+  8050
 66+  8050
 67+  8050
 68+  8050
 69+  8050
 70+  8050
 71+  8050
 72+  8050
 73+  8050
 74+  8050
 75+  8050              LAYER2_ACCESS_PORT	EQU 	$123B
 76+  8050
 77+  8050              		;----------------
 78+  8050              		; Original code by Michael Ware adjustd to work with ZXB
 79+  8050              		; Plot tile to layer 2 (needs to accept > 256 tiles)
 80+  8050              		; in - hl = y/x tile coordinate (0-17, 0-31)
 81+  8050              		; in - a = number of tile to display
 82+  8050              		;----------------
 83+  8050              PlotTile8:
 84+  8050 ED 91 56 11  		nextreg $56,17
 85+  8054
 86+  8054 16 40        		ld d,64
 87+  8056 5F           		ld e,a					; 11
 88+  8057 ED 30        		mul
 89+  8059
 90+  8059 3E C0        		ld a,%11000000 			; this points to $c000
 91+  805B B2           		or d		 			; 8
 92+  805C EB           		ex de,hl				; 4			; cannot avoid an ex (de now = yx)
 93+  805D 67           		ld h,a					; 4
 94+  805E 7B           		ld a,e
 95+  805F 07           		rlca
 96+  8060 07           		rlca
 97+  8061 07           		rlca
 98+  8062 5F           		ld e,a					; 4+4+4+4+4 = 20	; mul x,8
 99+  8063 7A           		ld a,d
100+  8064 07           		rlca
101+  8065 07           		rlca
102+  8066 07           		rlca
103+  8067 57           		ld d,a					; 4+4+4+4+4 = 20	; mul y,8
104+  8068 E6 C0        		and 192
105+  806A F6 03        		or 3					; or 3 to keep layer on				; 8
106+  806C 01 3B 12     		ld bc,LAYER2_ACCESS_PORT
107+  806F ED 79        		out (c),a      ; 21			; select bank
108+  8071
109+  8071 7A           		ld a,d
110+  8072 E6 3F        		and 63
111+  8074 57           		ld d,a					; clear top 2 bits of y (dest) (4+4+4 = 12)
112+  8075              		; T96 here
113+  8075 3E 08        		ld a,8					; 7
114+  8077              .plotTilesLoop2:
115+  8077 D5           		push de					; 11
116+  8078 ED A0        		ldi
117+  807A ED A0        		ldi
118+  807C ED A0        		ldi
119+  807E ED A0        		ldi
120+  8080 ED A0        		ldi
121+  8082 ED A0        		ldi
122+  8084 ED A0        		ldi
123+  8086 ED A0        		ldi					; 8 * 16 = 128
124+  8088
125+  8088 D1           		pop de					; 11
126+  8089 14           		inc d					; 4 add 256 for next line down
127+  808A 3D           		dec a					; 4
128+  808B 20 EA        		jr nz,.plotTilesLoop2			; 12/7
129+  808D
130+  808D ED 91 56 0E  		nextreg $56,14 ;$0e
131+  8091 C9           		ret
132+  8092
133+  8092
134+  8092
135+  8092
136+  8092
137+  8092
138+  8092              ; ;HL=mem address start yx
139+  8092              ; ;DE=message address
140+  8092              ; display_string:
141+  8092              ;     ld a,(de)
142+  8092              ;     cp 0
143+  8092              ;     ret z
144+  8092              ;     cp ' '
145+  8092              ;     jp nz,disp_char_next
146+  8092              ; 	inc a
147+  8092              ; disp_char_next:
148+  8092              ;     sub FONT_ASCII_OFFSET
149+  8092              ;     push de
150+  8092              ;     push hl
151+  8092              ;     call PlotTile8
152+  8092              ;     pop hl
153+  8092              ;     pop de
154+  8092
155+  8092              ;     inc de
156+  8092              ;     inc l
157+  8092              ;     jp display_string
158+  8092
159+  8092
160+  8092              ; display_numbers:
161+  8092              ;     ld c,-100
162+  8092              ;     call dispnums_add_offset
163+  8092              ;     ld c,-10
164+  8092              ;     call dispnums_add_offset
165+  8092              ;     ld c,-1
166+  8092              ; dispnums_add_offset:
167+  8092              ;     ld b,FONT_START
168+  8092              ; dispnums_inc:
169+  8092              ;     inc b
170+  8092              ;     add a,c
171+  8092              ;     jr c, dispnums_inc
172+  8092              ;     sub c ;actually adding (its holding minus number)
173+  8092              ;     push af
174+  8092              ;     ld a,b
175+  8092              ;     push hl
176+  8092              ;     call PlotTile8
177+  8092              ;     pop hl
178+  8092              ;     inc l
179+  8092              ;     pop af
180+  8092              ;     ret
181+  8092
182+  8092
183+  8092
184+  8092
# file closed: src/retrotools/tools.asm
 29   8092
 30   8092              	include 'player.asm'
# file opened: src/player.asm
  1+  8092
  2+  8092
  3+  8092
  4+  8092
  5+  8092
  6+  8092              PLAYER_SLOT equ 58
  7+  8092
  8+  8092              PLAYER_DEFAULT_ATTR3 equ %11000000
  9+  8092
 10+  8092              PLAYER_HEIGHT equ 32
 11+  8092
 12+  8092              SCROLL_MARKER_X equ 320/2
 13+  8092
 14+  8092              PLAYER_WALK_SPEED equ 1
 15+  8092
 16+  8092
 17+  8092
 18+  8092 00           player_world_x db 0 ;in cells
 19+  8093 00           player_world_y db 0
 20+  8094
 21+  8094 30 00        px dw 48
 22+  8096 00           py db 0
 23+  8097 08           player_attr_2 db %00001000
 24+  8098 C0           player_attr_3 db PLAYER_DEFAULT_ATTR3
 25+  8099 20           player_attr_4 db %00100000
 26+  809A
 27+  809A 00           player_animation_timer db 0
 28+  809B              PLAYER_ANIMATION_DELAY equ 4
 29+  809B
 30+  809B
 31+  809B              ;movement states:
 32+  809B              WALKING equ 0xA
 33+  809B              JUMPING equ 0xB
 34+  809B              ATTACKING equ 0xC
 35+  809B              CLIMBING equ 0xD
 36+  809B
 37+  809B 0B           player_animation_state db JUMPING
 38+  809C
 39+  809C
 40+  809C 00 00        vy dw 0
 41+  809E
 42+  809E              DOWN_FORCE equ 32
 43+  809E              UP_FORCE equ 64
 44+  809E
 45+  809E              MAX_DOWN_SPEED equ 7
 46+  809E              MAX_UP_SPEED equ 5
 47+  809E
 48+  809E
 49+  809E
 50+  809E 00           player_collided_solid db FALSE
 51+  809F
 52+  809F
 53+  809F 03           player_jump_direction db DOWN
 54+  80A0 D0           player_jump_point db 208
 55+  80A1              PLAYER_JUMP_HEIGHT equ 15
 56+  80A1 00           player_grounded db FALSE
 57+  80A2
 58+  80A2
 59+  80A2              player_init:
 60+  80A2 CD A6 80         call player_init_sprites
 61+  80A5
 62+  80A5 C9               ret
 63+  80A6
 64+  80A6              player_init_sprites:
 65+  80A6 3E 3A            ld a,PLAYER_SLOT
 66+  80A8 ED 92 34         nextreg $34,a
 67+  80AB
 68+  80AB                  ;attr 0
 69+  80AB 3A 94 80         ld a,(px)
 70+  80AE ED 92 35         nextreg $35,a
 71+  80B1
 72+  80B1                  ;attr 1
 73+  80B1 3A 96 80         ld a,(py)
 74+  80B4 ED 92 36         nextreg $36,a
 75+  80B7
 76+  80B7                  ;attr 2
 77+  80B7 3A 97 80         ld a,(player_attr_2)
 78+  80BA 47               ld b,a
 79+  80BB 2A 94 80         ld hl,(px)
 80+  80BE 7C               ld a,h
 81+  80BF B0               or b
 82+  80C0 ED 92 37         nextreg $37,a
 83+  80C3
 84+  80C3                  ;attr 3
 85+  80C3 3A 98 80         ld a,(player_attr_3)
 86+  80C6 ED 92 38         nextreg $38,a
 87+  80C9
 88+  80C9                  ;attr 4
 89+  80C9 3A 99 80         ld a,(player_attr_4)
 90+  80CC ED 92 39         nextreg $39,a
 91+  80CF
 92+  80CF                  ;relative sprites...
 93+  80CF
 94+  80CF                  ;r1:
 95+  80CF                  ;x0
 96+  80CF                  ;xx
 97+  80CF
 98+  80CF 3E 3B            ld a,PLAYER_SLOT+1
 99+  80D1 ED 92 34         nextreg $34,a
100+  80D4
101+  80D4                  ;a0
102+  80D4 3E 10            ld a,16
103+  80D6 ED 92 35         nextreg $35,a
104+  80D9
105+  80D9                  ;a1
106+  80D9 3E 00            ld a,0
107+  80DB ED 92 36         nextreg $36,a
108+  80DE
109+  80DE                  ;a2
110+  80DE 3E 01            ld a,%00000001
111+  80E0 ED 92 37         nextreg $37,a
112+  80E3
113+  80E3                  ;a3
114+  80E3 3E C1            ld a,%11000001
115+  80E5 ED 92 38         nextreg $38,a
116+  80E8
117+  80E8                  ;a4
118+  80E8 3E 41            ld a,%01000001
119+  80EA ED 92 39         nextreg $39,a
120+  80ED
121+  80ED                  ;r2:
122+  80ED                  ;xx
123+  80ED                  ;0x
124+  80ED 3E 3C            ld a,PLAYER_SLOT+2
125+  80EF ED 92 34         nextreg $34,a
126+  80F2
127+  80F2                  ;a0
128+  80F2 3E 00            ld a,0
129+  80F4 ED 92 35         nextreg $35,a
130+  80F7
131+  80F7                  ;a1
132+  80F7 3E 10            ld a,16
133+  80F9 ED 92 36         nextreg $36,a
134+  80FC
135+  80FC                  ;a2
136+  80FC 3E 01            ld a,%00000001
137+  80FE ED 92 37         nextreg $37,a
138+  8101
139+  8101                  ;a3
140+  8101 3E C2            ld a,%11000010
141+  8103 ED 92 38         nextreg $38,a
142+  8106
143+  8106                  ;a4
144+  8106 3E 41            ld a,%01000001
145+  8108 ED 92 39         nextreg $39,a
146+  810B
147+  810B                  ;r3:
148+  810B                  ;xx
149+  810B                  ;x0
150+  810B 3E 3D            ld a,PLAYER_SLOT+3
151+  810D ED 92 34         nextreg $34,a
152+  8110
153+  8110                  ;a0
154+  8110 3E 10            ld a,16
155+  8112 ED 92 35         nextreg $35,a
156+  8115
157+  8115                  ;a1
158+  8115 3E 10            ld a,16
159+  8117 ED 92 36         nextreg $36,a
160+  811A
161+  811A                  ;a2
162+  811A 3E 01            ld a,%00000001
163+  811C ED 92 37         nextreg $37,a
164+  811F
165+  811F                  ;a3
166+  811F 3E C3            ld a,%11000011
167+  8121 ED 92 38         nextreg $38,a
168+  8124
169+  8124                  ;a4
170+  8124 3E 41            ld a,%01000001
171+  8126 ED 92 39         nextreg $39,a
172+  8129
173+  8129 C9               ret
174+  812A              ;
175+  812A
176+  812A
177+  812A
178+  812A              player_update:
179+  812A 3A 9A 80         ld a,(player_animation_timer)
180+  812D 3C               inc a
181+  812E 32 9A 80         ld (player_animation_timer),a
182+  8131
183+  8131
184+  8131
185+  8131 3A 9B 80         ld a,(player_animation_state)
186+  8134 FE 0A            cp WALKING
187+  8136 CA 3F 81         jp z, player_update_walking
188+  8139 FE 0B            cp JUMPING
189+  813B CA 74 81         jp z, player_update_jumping
190+  813E                  ; cp ATTACKING
191+  813E                  ; cp CLIMBING
192+  813E
193+  813E
194+  813E C9               ret
195+  813F
196+  813F
197+  813F              player_update_walking:
198+  813F
199+  813F
200+  813F 3A 8C 85         ld a,(keypressed_A)
201+  8142 FE 01            cp TRUE
202+  8144 CC DD 81         call z,plyr_move_left_start
203+  8147
204+  8147 3A 90 85         ld a,(keypressed_D)
205+  814A FE 01            cp TRUE
206+  814C CC 22 82         call z,plyr_move_right_start
207+  814F
208+  814F 3A 98 85         ld a,(keypressed_Space)
209+  8152 FE 01            cp TRUE
210+  8154 CC 5B 81         call z,player_jump_start
211+  8157
212+  8157
213+  8157
214+  8157 CD 12 83         call check_grounded
215+  815A
216+  815A C9               ret
217+  815B
218+  815B              player_jump_start:
219+  815B                  ; ld a,(keypressed_Space_Held)
220+  815B                  ; cp TRUE
221+  815B                  ; ret z
222+  815B
223+  815B 3A 9B 80         ld a,(player_animation_state)
224+  815E FE 0B            cp JUMPING
225+  8160 C8               ret z
226+  8161
227+  8161 3E 0B            ld a,JUMPING
228+  8163 32 9B 80         ld (player_animation_state),a
229+  8166
230+  8166 3A 96 80         ld a,(py)
231+  8169 32 A0 80         ld (player_jump_point),a
232+  816C
233+  816C 3E 02            ld a,UP
234+  816E 32 9F 80         ld (player_jump_direction),a
235+  8171
236+  8171 C3 2A 81         jp player_update
237+  8174
238+  8174
239+  8174              player_update_jumping:
240+  8174 3A 8C 85         ld a,(keypressed_A)
241+  8177 FE 01            cp TRUE
242+  8179 CC DD 81         call z,plyr_move_left_start
243+  817C
244+  817C 3A 90 85         ld a,(keypressed_D)
245+  817F FE 01            cp TRUE
246+  8181 CC 22 82         call z,plyr_move_right_start
247+  8184
248+  8184 CD A7 82         call player_calculate_world_position
249+  8187
250+  8187 CD CA 82         call check_collision_jumping
251+  818A
252+  818A 3A A0 80         ld a,(player_jump_point)
253+  818D D6 0F            sub PLAYER_JUMP_HEIGHT
254+  818F 47               ld b,a
255+  8190 3A 96 80         ld a,(py)
256+  8193 B8               cp b
257+  8194 DC AC 81         call c,plyr_set_jump_down
258+  8197
259+  8197
260+  8197 3A 9F 80         ld a,(player_jump_direction)
261+  819A FE 02            cp UP
262+  819C F5               push af
263+  819D CC B2 81         call z, apply_force_up
264+  81A0 F1               pop af
265+  81A1 FE 03            cp DOWN
266+  81A3 F5               push af
267+  81A4 CC C1 81         call z, apply_force_down
268+  81A7 F1               pop af
269+  81A8
270+  81A8
271+  81A8
272+  81A8 CD D0 81         call apply_velocity
273+  81AB
274+  81AB
275+  81AB C9               ret
276+  81AC
277+  81AC
278+  81AC
279+  81AC
280+  81AC              plyr_set_jump_down:
281+  81AC 3E 03            ld a,DOWN
282+  81AE 32 9F 80         ld (player_jump_direction),a
283+  81B1 C9               ret
284+  81B2
285+  81B2              apply_force_up:
286+  81B2                  ; call apply_velocity_up
287+  81B2 2A 9C 80         ld hl,(vy)
288+  81B5 7C               ld a,h
289+  81B6 FE FB            cp -MAX_UP_SPEED
290+  81B8 C8               ret z
291+  81B9
292+  81B9 ED 34 80 FF      add hl,-UP_FORCE*2
293+  81BD 22 9C 80         ld (vy),hl
294+  81C0 C9               ret
295+  81C1              apply_force_down:
296+  81C1                  ; call apply_velocity_down
297+  81C1 2A 9C 80         ld hl,(vy)
298+  81C4 7C               ld a,h
299+  81C5 FE 07            cp MAX_DOWN_SPEED
300+  81C7 C8               ret z
301+  81C8 ED 34 20 00      add hl,DOWN_FORCE
302+  81CC 22 9C 80         ld (vy),hl
303+  81CF C9               ret
304+  81D0
305+  81D0              apply_velocity:
306+  81D0 21 96 80         ld hl,py
307+  81D3 46               ld b,(hl)
308+  81D4 2A 9C 80         ld hl,(vy)
309+  81D7 7C               ld a,h
310+  81D8 80               add a,b
311+  81D9 32 96 80         ld (py),a
312+  81DC C9               ret
313+  81DD
314+  81DD
315+  81DD
316+  81DD              plyr_move_left_start:
317+  81DD 3A 97 80         ld a,(player_attr_2)
318+  81E0 CB 5F            bit 3,a
319+  81E2 CA F7 81         jp z,plyr_move_left
320+  81E5
321+  81E5 3A 97 80         ld a,(player_attr_2)
322+  81E8 CB 9F            res 3,a
323+  81EA 32 97 80         ld (player_attr_2),a
324+  81ED
325+  81ED 2A 94 80         ld hl,(px)
326+  81F0 ED 34 F0 FF      add hl,-16
327+  81F4 22 94 80         ld (px),hl
328+  81F7              plyr_move_left:
329+  81F7 CD A7 82         call player_calculate_world_position
330+  81FA                  ; ; ; ; ; ; ; ; call check_collision_left
331+  81FA
332+  81FA 3A 9E 80         ld a,(player_collided_solid)
333+  81FD FE 01            cp TRUE
334+  81FF C8               ret z
335+  8200
336+  8200 3A 9A 80         ld a,(player_animation_timer)
337+  8203 FE 04            cp PLAYER_ANIMATION_DELAY
338+  8205 D4 8B 82         call nc, player_animate_walk
339+  8208
340+  8208 2A 94 80         ld hl,(px)
341+  820B 7C               ld a,h
342+  820C FE 00            cp 0
343+  820E C2 1A 82         jp nz,p_move_left
344+  8211 7D               ld a,l
345+  8212 FE A1            cp SCROLL_MARKER_X+1
346+  8214 DA 77 8C         jp c,scroll_left
347+  8217 D2 1A 82         jp nc,p_move_left
348+  821A
349+  821A              p_move_left
350+  821A ED 34 FF FF      add hl,-PLAYER_WALK_SPEED
351+  821E 22 94 80         ld (px),hl
352+  8221 C9               ret
353+  8222
354+  8222
355+  8222              plyr_move_right_start:
356+  8222 3A 97 80         ld a,(player_attr_2)
357+  8225 CB 5F            bit 3,a
358+  8227 C2 3C 82         jp nz,plyr_move_right
359+  822A
360+  822A 3A 97 80         ld a,(player_attr_2)
361+  822D CB DF            set 3,a
362+  822F 32 97 80         ld (player_attr_2),a
363+  8232
364+  8232 2A 94 80         ld hl,(px)
365+  8235 ED 34 10 00      add hl,16
366+  8239 22 94 80         ld (px),hl
367+  823C              plyr_move_right:
368+  823C CD A7 82         call player_calculate_world_position
369+  823F                  ; ; ; ; ; ; ; ; ; ; call check_collision_right
370+  823F
371+  823F 3A 9E 80         ld a,(player_collided_solid)
372+  8242 FE 01            cp TRUE
373+  8244 C8               ret z
374+  8245
375+  8245 3A 9A 80         ld a,(player_animation_timer)
376+  8248 FE 04            cp PLAYER_ANIMATION_DELAY
377+  824A D4 8B 82         call nc, player_animate_walk
378+  824D
379+  824D 2A 94 80         ld hl,(px)
380+  8250 7D               ld a,l
381+  8251 FE A0            cp SCROLL_MARKER_X
382+  8253 D2 78 8C         jp nc,scroll_right
383+  8256 DA 59 82         jp c,p_move_right
384+  8259
385+  8259              p_move_right
386+  8259 ED 34 01 00      add hl,PLAYER_WALK_SPEED
387+  825D 22 94 80         ld (px),hl
388+  8260 C9               ret
389+  8261
390+  8261
391+  8261
392+  8261
393+  8261
394+  8261
395+  8261              player_draw:
396+  8261 3E 3A            ld a,PLAYER_SLOT
397+  8263 ED 92 34         nextreg $34,a
398+  8266
399+  8266                  ;attr 0
400+  8266 3A 94 80         ld a,(px)
401+  8269 ED 92 35         nextreg $35,a
402+  826C
403+  826C                  ;attr 1
404+  826C 3A 96 80         ld a,(py)
405+  826F ED 92 36         nextreg $36,a
406+  8272
407+  8272                  ;attr 2
408+  8272 3A 97 80         ld a,(player_attr_2)
409+  8275 47               ld b,a
410+  8276 2A 94 80         ld hl,(px)
411+  8279 7C               ld a,h
412+  827A B0               or b
413+  827B ED 92 37         nextreg $37,a
414+  827E
415+  827E                  ;attr 3
416+  827E 3A 98 80         ld a,(player_attr_3)
417+  8281 ED 92 38         nextreg $38,a
418+  8284
419+  8284                  ;attr 4
420+  8284 3A 99 80         ld a,(player_attr_4)
421+  8287 ED 92 39         nextreg $39,a
422+  828A
423+  828A C9               ret
424+  828B
425+  828B
426+  828B
427+  828B
428+  828B              player_animate_walk:
429+  828B AF               xor a
430+  828C 32 9A 80         ld (player_animation_timer),a
431+  828F
432+  828F 3A 98 80         ld a,(player_attr_3)
433+  8292 E6 3F            and %00111111 ;mask out top 2 bits
434+  8294 FE 0C            cp SPRITE_PLAYER_COUNT-SPRITE_SEGMENTS
435+  8296 CA A1 82         jp z,player_set_to_default_frame
436+  8299 C6 04            add a,SPRITE_SEGMENTS
437+  829B C6 C0            add a,PLAYER_DEFAULT_ATTR3
438+  829D 32 98 80         ld (player_attr_3),a
439+  82A0 C9               ret
440+  82A1
441+  82A1              player_set_to_default_frame:
442+  82A1 3E C0            ld a,PLAYER_DEFAULT_ATTR3
443+  82A3 32 98 80         ld (player_attr_3),a
444+  82A6 C9               ret
445+  82A7
446+  82A7
447+  82A7              player_calculate_world_position:
448+  82A7
449+  82A7 3A 96 80         ld a,(py)
450+  82AA E6 F0            and %11110000
451+  82AC 0F               rrca
452+  82AD 0F               rrca
453+  82AE 0F               rrca
454+  82AF 0F               rrca
455+  82B0 32 93 80         ld (player_world_y),a
456+  82B3
457+  82B3 2A 94 80         ld hl,(px)
458+  82B6 7D               ld a,l
459+  82B7 E6 F0            and %11110000
460+  82B9 0F               rrca
461+  82BA 0F               rrca
462+  82BB 0F               rrca
463+  82BC 0F               rrca
464+  82BD 47               ld b,a
465+  82BE 3A 6C 8B         ld a,(cam_edge_r)
466+  82C1 D6 14            sub VIEW_WIDTH_META
467+  82C3 4F               ld c,a
468+  82C4 78               ld a,b
469+  82C5 81               add a,c
470+  82C6 32 92 80         ld (player_world_x),a
471+  82C9
472+  82C9 C9               ret
473+  82CA
474+  82CA
475+  82CA
476+  82CA              check_collision_jumping:
477+  82CA 3A 9B 80         ld a,(player_animation_state)
478+  82CD FE 0B            cp JUMPING
479+  82CF C0               ret nz
480+  82D0
481+  82D0 3A 9F 80         ld a,(player_jump_direction)
482+  82D3 FE 03            cp DOWN
483+  82D5 C0               ret nz
484+  82D6
485+  82D6
486+  82D6 21 EA 86         ld hl,metalevel
487+  82D9 3A 93 80         ld a,(player_world_y)
488+  82DC FE 06            cp 6
489+  82DE D8               ret c
490+  82DF D6 06            sub 6
491+  82E1 57               ld d,a
492+  82E2 1E 50            ld e,LEVEL_WIDTH_META
493+  82E4 ED 30            mul d,e
494+  82E6 19               add hl,de
495+  82E7 3A 92 80         ld a,(player_world_x)
496+  82EA 5F               ld e,a
497+  82EB 16 00            ld d,0
498+  82ED 19               add hl,de
499+  82EE 7E               ld a,(hl)
500+  82EF CD E1 86         call check_solid
501+  82F2 CA F6 82         jp z,collided_jumping
502+  82F5
503+  82F5
504+  82F5
505+  82F5 C9               ret
506+  82F6
507+  82F6
508+  82F6              collided_jumping:
509+  82F6
510+  82F6                  ;snap to nearest cell
511+  82F6 3A 93 80         ld a,(player_world_y)
512+  82F9 87               add a,a
513+  82FA 87               add a,a
514+  82FB 87               add a,a
515+  82FC 87               add a,a
516+  82FD 32 96 80         ld (py),a
517+  8300
518+  8300 3A 9F 80         ld a,(player_jump_direction)
519+  8303 FE 02            cp UP
520+  8305 C8               ret z
521+  8306
522+  8306                  ;collided
523+  8306 3E 0A            ld a,WALKING
524+  8308 32 9B 80         ld (player_animation_state),a
525+  830B 21 00 00         ld hl,0
526+  830E 22 9C 80         ld (vy),hl
527+  8311
528+  8311
529+  8311 C9               ret
530+  8312
531+  8312
532+  8312
533+  8312              check_grounded:
534+  8312 3A 9F 80         ld a,(player_jump_direction)
535+  8315 FE 03            cp DOWN
536+  8317 C0               ret nz
537+  8318
538+  8318
539+  8318 21 EA 86         ld hl,metalevel
540+  831B 3A 93 80         ld a,(player_world_y)
541+  831E FE 07            cp 7
542+  8320 D8               ret c
543+  8321 D6 07            sub 7
544+  8323 57               ld d,a
545+  8324 1E 50            ld e,LEVEL_WIDTH_META
546+  8326 ED 30            mul d,e
547+  8328 19               add hl,de
548+  8329 3A 92 80         ld a,(player_world_x)
549+  832C 5F               ld e,a
550+  832D 16 00            ld d,0
551+  832F 19               add hl,de
552+  8330 7E               ld a,(hl)
553+  8331 CD E1 86         call check_solid
554+  8334 CA 3A 83         jp z,collided_true
555+  8337
556+  8337 C3 40 83         jp collided_false
557+  833A              collided_true:
558+  833A 3E 01            ld a,TRUE
559+  833C 32 A1 80         ld (player_grounded),a
560+  833F C9               ret
561+  8340
562+  8340              collided_false:
563+  8340 3E 00            ld a,FALSE
564+  8342 32 A1 80         ld (player_grounded),a
565+  8345                  ;set mode to jumping>down
566+  8345 3E 0B            ld a,JUMPING
567+  8347 32 9B 80         ld (player_animation_state),a
568+  834A 3E 03            ld a,DOWN
569+  834C 32 9F 80         ld (player_jump_direction),a
570+  834F C9               ret
571+  8350
572+  8350
573+  8350              ; check_grounded:
574+  8350              ;     ld a,(player_jump_direction)
575+  8350              ;     cp UP
576+  8350              ;     ret z
577+  8350
578+  8350              ;     ld hl,level1
579+  8350              ;     ld a,(player_world_y)
580+  8350              ;     add a,5
581+  8350              ;     ld d,a
582+  8350              ;     ld e,WORLD_WIDTH
583+  8350              ;     mul d,e
584+  8350              ;     add hl,de
585+  8350              ;     ld a,(player_world_x)
586+  8350              ;     ld e,a
587+  8350              ;     ld d,0
588+  8350              ;     add hl,de
589+  8350              ;     ld a,(hl)
590+  8350              ;     cp 12
591+  8350              ;     jp c,player_set_grounded ;if under 12, the tile is solid
592+  8350
593+  8350
594+  8350
595+  8350              ;     ;else not grounded:
596+  8350              ;     ld a,FALSE
597+  8350              ;     ld (player_grounded),a
598+  8350              ;     ;set mode to jumping>down
599+  8350              ;     ld a,JUMPING
600+  8350              ;     ld (player_animation_state),a
601+  8350              ;     ld a,DOWN
602+  8350              ;     ld (player_jump_direction),a
603+  8350
604+  8350              ;     ret
605+  8350
606+  8350
607+  8350
608+  8350              ; player_set_grounded:
609+  8350              ;     ld a,TRUE
610+  8350              ;     ld (player_grounded),a
611+  8350              ;     ret
612+  8350
613+  8350
614+  8350              ; collided_solid_feet:
615+  8350              ;     ld a,(player_world_y)
616+  8350              ;     add a,a
617+  8350              ;     add a,a
618+  8350              ;     add a,a
619+  8350              ;     ld (py),a
620+  8350
621+  8350              ;     ld a,(player_jump_direction)
622+  8350              ;     cp UP
623+  8350              ;     ret z
624+  8350
625+  8350              ;     ld a,WALKING
626+  8350              ;     ld (player_animation_state),a
627+  8350              ;     ld hl,0
628+  8350              ;     ld (vy),hl
629+  8350
630+  8350
631+  8350              ;     ret
632+  8350
633+  8350
634+  8350
635+  8350              ; check_collision_left:
636+  8350              ;     ld hl,level1
637+  8350              ;     ld a,(player_world_y)
638+  8350              ;     add a,2
639+  8350              ;     ld d,a
640+  8350              ;     ld e,WORLD_WIDTH
641+  8350              ;     mul d,e
642+  8350              ;     add hl,de
643+  8350              ;     ld a,(player_world_x)
644+  8350              ;     ld e,a
645+  8350              ;     ld d,0
646+  8350              ;     add hl,de
647+  8350              ;     ld a,(hl)
648+  8350              ;     cp 12
649+  8350              ;     jp c,collided_solid_sideways
650+  8350
651+  8350              ;     ld a,FALSE
652+  8350              ;     ld (player_collided_solid),a
653+  8350
654+  8350              ;     ret
655+  8350
656+  8350
657+  8350
658+  8350              ; check_collision_right:
659+  8350              ;     ld hl,(px)
660+  8350              ;     ld a,h
661+  8350              ;     cp 0
662+  8350              ;     jp nz, check_collision_right_x8
663+  8350
664+  8350              ;     ld hl,level1
665+  8350              ;     ld a,(player_world_y)
666+  8350              ;     ld d,a
667+  8350              ;     ld e,WORLD_WIDTH
668+  8350              ;     mul d,e
669+  8350              ;     add hl,de
670+  8350              ;     ld a,(player_world_x)
671+  8350              ;     add a,1
672+  8350              ;     ld e,a
673+  8350              ;     ld d,0
674+  8350              ;     add hl,de
675+  8350              ;     ld a,(hl)
676+  8350              ;     cp 12
677+  8350              ;     jp c,collided_solid_sideways
678+  8350
679+  8350              ;     ld hl,level1
680+  8350              ;     ld a,(player_world_y)
681+  8350              ;     add a,1
682+  8350              ;     ld d,a
683+  8350              ;     ld e,WORLD_WIDTH
684+  8350              ;     mul d,e
685+  8350              ;     add hl,de
686+  8350              ;     ld a,(player_world_x)
687+  8350              ;     add a,1
688+  8350              ;     ld e,a
689+  8350              ;     ld d,0
690+  8350              ;     add hl,de
691+  8350              ;     ld a,(hl)
692+  8350              ;     cp 12
693+  8350              ;     jp c,collided_solid_sideways
694+  8350
695+  8350              ;     ld hl,level1
696+  8350              ;     ld a,(player_world_y)
697+  8350              ;     add a,2
698+  8350              ;     ld d,a
699+  8350              ;     ld e,WORLD_WIDTH
700+  8350              ;     mul d,e
701+  8350              ;     add hl,de
702+  8350              ;     ld a,(player_world_x)
703+  8350              ;     add a,1
704+  8350              ;     ld e,a
705+  8350              ;     ld d,0
706+  8350              ;     add hl,de
707+  8350              ;     ld a,(hl)
708+  8350              ;     cp 12
709+  8350              ;     jp c,collided_solid_sideways
710+  8350
711+  8350              ;     ld hl,level1
712+  8350              ;     ld a,(player_world_y)
713+  8350              ;     add a,3
714+  8350              ;     ld d,a
715+  8350              ;     ld e,WORLD_WIDTH
716+  8350              ;     mul d,e
717+  8350              ;     add hl,de
718+  8350              ;     ld a,(player_world_x)
719+  8350              ;     add a,1
720+  8350              ;     ld e,a
721+  8350              ;     ld d,0
722+  8350              ;     add hl,de
723+  8350              ;     ld a,(hl)
724+  8350              ;     cp 12
725+  8350              ;     jp c,collided_solid_sideways
726+  8350
727+  8350
728+  8350
729+  8350              ;     ld a,FALSE
730+  8350              ;     ld (player_collided_solid),a
731+  8350
732+  8350              ;     ret
733+  8350
734+  8350              ; check_collision_right_x8:
735+  8350              ;     ld hl,level1
736+  8350              ;     ld a,(player_world_y)
737+  8350              ;     ld d,a
738+  8350              ;     ld e,WORLD_WIDTH
739+  8350              ;     mul d,e
740+  8350              ;     add hl,de
741+  8350              ;     ld a,(player_world_x)
742+  8350              ;     add a,33
743+  8350              ;     ld e,a
744+  8350              ;     ld d,0
745+  8350              ;     add hl,de
746+  8350              ;     ld a,(hl)
747+  8350              ;     cp 12
748+  8350              ;     jp c,collided_solid_sideways
749+  8350
750+  8350              ;     ld hl,level1
751+  8350              ;     ld a,(player_world_y)
752+  8350              ;     add a,1
753+  8350              ;     ld d,a
754+  8350              ;     ld e,WORLD_WIDTH
755+  8350              ;     mul d,e
756+  8350              ;     add hl,de
757+  8350              ;     ld a,(player_world_x)
758+  8350              ;     add a,33
759+  8350              ;     ld e,a
760+  8350              ;     ld d,0
761+  8350              ;     add hl,de
762+  8350              ;     ld a,(hl)
763+  8350              ;     cp 12
764+  8350              ;     jp c,collided_solid_sideways
765+  8350
766+  8350              ;     ld hl,level1
767+  8350              ;     ld a,(player_world_y)
768+  8350              ;     add a,2
769+  8350              ;     ld d,a
770+  8350              ;     ld e,WORLD_WIDTH
771+  8350              ;     mul d,e
772+  8350              ;     add hl,de
773+  8350              ;     ld a,(player_world_x)
774+  8350              ;     add a,33
775+  8350              ;     ld e,a
776+  8350              ;     ld d,0
777+  8350              ;     add hl,de
778+  8350              ;     ld a,(hl)
779+  8350              ;     cp 12
780+  8350              ;     jp c,collided_solid_sideways
781+  8350
782+  8350              ;     ld hl,level1
783+  8350              ;     ld a,(player_world_y)
784+  8350              ;     add a,3
785+  8350              ;     ld d,a
786+  8350              ;     ld e,WORLD_WIDTH
787+  8350              ;     mul d,e
788+  8350              ;     add hl,de
789+  8350              ;     ld a,(player_world_x)
790+  8350              ;     add a,33
791+  8350              ;     ld e,a
792+  8350              ;     ld d,0
793+  8350              ;     add hl,de
794+  8350              ;     ld a,(hl)
795+  8350              ;     cp 12
796+  8350              ;     jp c,collided_solid_sideways
797+  8350
798+  8350
799+  8350
800+  8350              ;     ld a,FALSE
801+  8350              ;     ld (player_collided_solid),a
802+  8350
803+  8350              ;     ret
804+  8350
805+  8350
806+  8350
807+  8350
808+  8350
809+  8350
810+  8350              ; collided_solid_sideways:
811+  8350              ;     ld a,TRUE
812+  8350              ;     ld (player_collided_solid),a
813+  8350              ;     ret
# file closed: src/player.asm
 31   8350              	include 'objects.asm'
# file opened: src/objects.asm
  1+  8350
  2+  8350
  3+  8350
  4+  8350              OBJECT_PUMPKIN equ 0
  5+  8350              OBJECT_GHOST equ 1
  6+  8350              OBJECT_GHOST_WALKER equ 2
  7+  8350              OBJECT_DEAD equ 100
  8+  8350              OBJECT_COLLIDED equ $FF
  9+  8350              OBJECT_HEIGHT equ 16
 10+  8350
 11+  8350
 12+  8350              ;::All objects have 2 frame animation::
 13+  8350
 14+  8350              ;0=isInView
 15+  8350              ;1=objType
 16+  8350              ;2=wX
 17+  8350              ;3=wY
 18+  8350              ;4,5=XX
 19+  8350              ;6=Y
 20+  8350              ;7=att2
 21+  8350              ;8=att3
 22+  8350              ;9=att4
 23+  8350              ;10=slot_ID
 24+  8350              ;11=sprites specific XOR value
 25+  8350              ;12=direction
 26+  8350
 27+  8350              objects:
 28+  8350 00 00 01 01      db FALSE, OBJECT_PUMPKIN, 01, 01
 28+  8354 00 00          dw 0
 28+  8356 00 00 50 00    db 0,  %00000000,%01010000,%00000000,0,1,RIGHT
 28+  835A 00 01 01
 29+  835D 00 01 32 13      db FALSE, OBJECT_GHOST, 50, 19
 29+  8361 00 00          dw 0
 29+  8363 00 00 52 00    db 0, %00000000,%01010010,%00000000,11,1,RIGHT
 29+  8367 0B 01 01
 30+  836A 00 02 27 18      db FALSE, OBJECT_GHOST_WALKER, 39, 24
 30+  836E 00 00          dw 0
 30+  8370 00 00 52 00    db 0, %00000000,%01010010,%00000000,15,1,LEFT
 30+  8374 0F 01 00
 31+  8377 00 02 32 1A      db FALSE, OBJECT_GHOST_WALKER, 50, 26
 31+  837B 00 00          dw 0
 31+  837D 00 00 52 00    db 0, %00000000,%01010010,%00000000,15,1,LEFT
 31+  8381 0F 01 00
 32+  8384 00 02 48 1A      db FALSE, OBJECT_GHOST_WALKER, 72, 26
 32+  8388 00 00          dw 0
 32+  838A 00 00 52 00    db 0, %00000000,%01010010,%00000000,15,1,LEFT
 32+  838E 0F 01 00
 33+  8391 00 02 6E 1A      db FALSE, OBJECT_GHOST_WALKER, 110, 26
 33+  8395 00 00          dw 0
 33+  8397 00 00 52 00    db 0, %00000000,%01010010,%00000000,15,1,LEFT
 33+  839B 0F 01 00
 34+  839E FF               db END_OF_ARRAY
 35+  839F
 36+  839F              OBJECTS_DATA_LENGTH equ 13
 37+  839F
 38+  839F
 39+  839F              GHOST_SPEED equ 2
 40+  839F              GHOST_MAX_MOVEMENT_X equ 30
 41+  839F
 42+  839F
 43+  839F
 44+  839F              ;sX= wX-(cam_edge_r-VW)*8
 45+  839F              ;sY= wY*8
 46+  839F
 47+  839F
 48+  839F
 49+  839F              objects_init:
 50+  839F C9               ret
 51+  83A0
 52+  83A0
 53+  83A0
 54+  83A0              objects_update:
 55+  83A0 DD 21 50 83      ld ix,objects
 56+  83A4              objs_update_start:
 57+  83A4 DD 7E 00         ld a,(ix)
 58+  83A7 FE FF            cp END_OF_ARRAY
 59+  83A9 C8               ret z
 60+  83AA
 61+  83AA CD CA 83         call object_update
 62+  83AD
 63+  83AD 11 0D 00         ld de,OBJECTS_DATA_LENGTH
 64+  83B0 DD 19            add ix,de
 65+  83B2 C3 A4 83         jp objs_update_start
 66+  83B5
 67+  83B5
 68+  83B5
 69+  83B5
 70+  83B5              objects_draw:
 71+  83B5 DD 21 50 83      ld ix,objects
 72+  83B9              objs_draw_start:
 73+  83B9 DD 7E 00         ld a,(ix)
 74+  83BC FE FF            cp END_OF_ARRAY
 75+  83BE C8               ret z
 76+  83BF
 77+  83BF CD 85 84         call object_draw
 78+  83C2
 79+  83C2 11 0D 00         ld de,OBJECTS_DATA_LENGTH
 80+  83C5 DD 19            add ix,de
 81+  83C7 C3 B9 83         jp objs_draw_start
 82+  83CA
 83+  83CA
 84+  83CA
 85+  83CA
 86+  83CA
 87+  83CA
 88+  83CA
 89+  83CA              object_update:
 90+  83CA DD 7E 01         ld a,(ix+1)
 91+  83CD FE 64            cp OBJECT_DEAD
 92+  83CF C8               ret z
 93+  83D0
 94+  83D0
 95+  83D0 CD E3 83         call object_check_in_view
 96+  83D3 CD 72 84         call animate_object
 97+  83D6
 98+  83D6 DD 7E 01         ld a,(ix+1)
 99+  83D9 FE 00            cp OBJECT_PUMPKIN
100+  83DB C8               ret z
101+  83DC
102+  83DC CD B5 84         call handle_behaviour
103+  83DF CD EE 84         call object_check_collision_player
104+  83E2
105+  83E2 C9               ret
106+  83E3
107+  83E3
108+  83E3
109+  83E3              object_check_in_view:
110+  83E3
111+  83E3
112+  83E3 DD 7E 02         ld a,(ix+2)
113+  83E6 47               ld b,a
114+  83E7 3A 6C 8B         ld a,(cam_edge_r)
115+  83EA B8               cp b
116+  83EB DA 0B 84         jp c, obj_set_not_inview
117+  83EE
118+  83EE 3A 6C 8B         ld a,(cam_edge_r)
119+  83F1 D6 28            sub VIEW_WIDTH
120+  83F3 47               ld b,a
121+  83F4 DD 7E 02         ld a,(ix+2)
122+  83F7 B8               cp b
123+  83F8 DA 0B 84         jp c, obj_set_not_inview
124+  83FB
125+  83FB                  ; set to inview=yes
126+  83FB DD 36 00 01      ld (ix),TRUE
127+  83FF DD 7E 08         ld a,(ix+8)
128+  8402 CB FF            set 7,a
129+  8404 DD 77 08         ld (ix+8),a
130+  8407
131+  8407 CD 1B 84         call object_calculate_screen_pos
132+  840A C9               ret
133+  840B
134+  840B              obj_set_not_inview:
135+  840B DD 36 00 00      ld (ix),FALSE
136+  840F DD 7E 08         ld a,(ix+8)
137+  8412 CB BF            res 7,a
138+  8414 DD 77 08         ld (ix+8),a
139+  8417 CD 8B 84         call obj_drw
140+  841A C9               ret
141+  841B
142+  841B
143+  841B
144+  841B
145+  841B              object_calculate_screen_pos:
146+  841B                  ;Y
147+  841B DD 7E 03         ld a,(ix+3)
148+  841E 87               add a,a
149+  841F 87               add a,a
150+  8420 87               add a,a ;A*8
151+  8421 DD 77 06         ld (ix+6),a
152+  8424
153+  8424 3A 6B 8B         ld a,(scroll_direction)
154+  8427 FE 00            cp LEFT
155+  8429 CA 32 84         jp z,obj_screen_moving_left
156+  842C FE 01            cp RIGHT
157+  842E CA 50 84         jp z,obj_screen_moving_right
158+  8431
159+  8431 C9               ret
160+  8432
161+  8432              obj_screen_moving_left:
162+  8432                  ;X (scroll left)
163+  8432 3A 6C 8B         ld a,(cam_edge_r)
164+  8435 D6 28            sub VIEW_WIDTH
165+  8437 47               ld b,a
166+  8438 DD 7E 02         ld a,(ix+2) ;wX
167+  843B 90               sub b ;wX-camX
168+  843C 21 00 00         ld hl,0
169+  843F ED 31            add hl,a
170+  8441 29               add hl,hl
171+  8442 29               add hl,hl
172+  8443 29               add hl,hl
173+  8444 3A 6A 8B         ld a,(current_scroll)
174+  8447 ED 31            add hl,a
175+  8449 DD 75 04         ld (ix+4),l
176+  844C DD 74 05         ld (ix+5),h ;X8
177+  844F C9               ret
178+  8450
179+  8450              obj_screen_moving_right:
180+  8450                  ;X (scroll left)
181+  8450 3A 6C 8B         ld a,(cam_edge_r)
182+  8453 D6 28            sub VIEW_WIDTH
183+  8455 47               ld b,a
184+  8456 DD 7E 02         ld a,(ix+2) ;wX
185+  8459 90               sub b ;wX-camX
186+  845A 21 00 00         ld hl,0
187+  845D ED 31            add hl,a
188+  845F 29               add hl,hl
189+  8460 29               add hl,hl
190+  8461 29               add hl,hl
191+  8462 3A 6A 8B         ld a,(current_scroll)
192+  8465 47               ld b,a
193+  8466 3E 08            ld a,8
194+  8468 90               sub b
195+  8469 ED 31            add hl,a
196+  846B DD 75 04         ld (ix+4),l
197+  846E DD 74 05         ld (ix+5),h ;X8
198+  8471
199+  8471 C9               ret
200+  8472
201+  8472
202+  8472              animate_object:
203+  8472 DD 7E 08         ld a,(ix+8)
204+  8475 E6 C0            and %11000000
205+  8477 47               ld b,a
206+  8478 DD 7E 08         ld a,(ix+8)
207+  847B E6 3F            and %00111111
208+  847D DD AE 0B         xor (ix+11)
209+  8480 80               add a,b
210+  8481 DD 77 08         ld (ix+8),a
211+  8484 C9               ret
212+  8485
213+  8485
214+  8485              object_draw:
215+  8485 DD 7E 00         ld a,(ix)
216+  8488 FE 01            cp TRUE
217+  848A C0               ret nz
218+  848B              obj_drw:
219+  848B DD 7E 0A         ld a,(ix+10)
220+  848E ED 92 34         nextreg $34,a
221+  8491
222+  8491                  ;attr 0
223+  8491 DD 7E 04         ld a,(ix+4)
224+  8494 ED 92 35         nextreg $35,a
225+  8497
226+  8497                  ;attr 1
227+  8497 DD 7E 06         ld a,(ix+6)
228+  849A ED 92 36         nextreg $36,a
229+  849D
230+  849D                  ;attr 2
231+  849D DD 7E 07         ld a,(ix+7)
232+  84A0 47               ld b,a
233+  84A1 DD 7E 05         ld a,(ix+5)
234+  84A4 B0               or b
235+  84A5 ED 92 37         nextreg $37,a
236+  84A8
237+  84A8                  ;attr 3
238+  84A8 DD 7E 08         ld a,(ix+8)
239+  84AB ED 92 38         nextreg $38,a
240+  84AE
241+  84AE                  ;attr 4
242+  84AE DD 7E 09         ld a,(ix+9)
243+  84B1 ED 92 39         nextreg $39,a
244+  84B4
245+  84B4 C9               ret
246+  84B5
247+  84B5
248+  84B5
249+  84B5
250+  84B5
251+  84B5
252+  84B5
253+  84B5              handle_behaviour:
254+  84B5 DD 7E 00         ld a,(ix)
255+  84B8 FE 00            cp FALSE
256+  84BA C8               ret z
257+  84BB
258+  84BB DD 7E 01         ld a,(ix+1)
259+  84BE FE 01            cp OBJECT_GHOST
260+  84C0 CA C9 84         jp z, handle_behaviour_ghost
261+  84C3 FE 02            cp OBJECT_GHOST_WALKER
262+  84C5 CA D9 84         jp z, handle_behaviour_ghost_walker
263+  84C8 C9               ret
264+  84C9
265+  84C9
266+  84C9              handle_behaviour_ghost:
267+  84C9 DD 7E 0C         ld a,(ix+12)
268+  84CC FE 00            cp LEFT
269+  84CE CA D7 84         jp z,ghost_move_left
270+  84D1 FE 01            cp RIGHT
271+  84D3 CA D8 84         jp z,ghost_move_right
272+  84D6
273+  84D6 C9               ret
274+  84D7
275+  84D7              ghost_move_left:
276+  84D7                  ; ld a,(ix+2)
277+  84D7                  ; dec a
278+  84D7                  ; ld (ix+2),a
279+  84D7
280+  84D7                  ; ; ld a,h
281+  84D7                  ; ; or l
282+  84D7                  ; ; ret nz
283+  84D7
284+  84D7                  ; ; ld a,RIGHT
285+  84D7                  ; ; ld (ix+12),a
286+  84D7
287+  84D7 C9               ret
288+  84D8              ghost_move_right:
289+  84D8                  ; ld h,(ix+14)
290+  84D8                  ; ld l,(ix+15)
291+  84D8                  ; add hl,GHOST_SPEED
292+  84D8                  ; ld (ix+14),h
293+  84D8                  ; ld (ix+15),l
294+  84D8
295+  84D8                  ; ld a,l
296+  84D8                  ; cp GHOST_MAX_MOVEMENT_X
297+  84D8                  ; ret nz
298+  84D8
299+  84D8                  ; ld a,LEFT
300+  84D8                  ; ld (ix+12),a
301+  84D8
302+  84D8
303+  84D8 C9               ret
304+  84D9
305+  84D9
306+  84D9              handle_behaviour_ghost_walker:
307+  84D9 DD 7E 02         ld a,(ix+2)
308+  84DC 3D               dec a
309+  84DD DD 77 02         ld (ix+2),a
310+  84E0
311+  84E0 47               ld b,a
312+  84E1 3A 6D 8B         ld a,(cam_x)
313+  84E4 B8               cp b
314+  84E5 D8               ret c
315+  84E6
316+  84E6
317+  84E6                  ;kill ghost
318+  84E6 DD 36 01 64      ld (ix+1),OBJECT_DEAD
319+  84EA CD 0B 84         call obj_set_not_inview
320+  84ED
321+  84ED C9               ret
322+  84EE
323+  84EE
324+  84EE
325+  84EE
326+  84EE
327+  84EE              object_check_collision_player
328+  84EE DD 7E 00         ld a,(ix)
329+  84F1 FE 01            cp TRUE
330+  84F3 C0               ret nz
331+  84F4
332+  84F4 DD 7E 01         ld a,(ix+1)
333+  84F7 FE 01            cp OBJECT_GHOST
334+  84F9 CA 23 85         jp z,checkcollision_player_ghost
335+  84FC FE 02            cp OBJECT_GHOST_WALKER
336+  84FE CA 3E 85         jp z,checkcollision_player_ghostwalker
337+  8501              obj_check_coll_y:
338+  8501                  ;player above object:
339+  8501 DD 7E 06         ld a,(ix+6)
340+  8504 47               ld b,a
341+  8505 3A 96 80         ld a,(py)
342+  8508 C6 20            add a,PLAYER_HEIGHT
343+  850A B8               cp b
344+  850B 38 15            jr c,obj_nocollision
345+  850D
346+  850D                  ;player below object:
347+  850D 3A 96 80         ld a,(py)
348+  8510 47               ld b,a
349+  8511 DD 7E 06         ld a,(ix+6)
350+  8514 C6 10            add a,OBJECT_HEIGHT
351+  8516 B8               cp b
352+  8517 38 09            jr c,obj_nocollision
353+  8519
354+  8519 2A 94 80         ld hl,(px)
355+  851C DD 7E 05         ld a,(ix+5)
356+  851F BC               cp h
357+  8520 20 00            jr nz,obj_nocollision
358+  8522
359+  8522                  ;collided...
360+  8522
361+  8522              obj_nocollision:
362+  8522 C9               ret
363+  8523
364+  8523              checkcollision_player_ghost:
365+  8523                  ;x axis collision check:
366+  8523 DD 66 04         ld h,(ix+4)
367+  8526 DD 6E 05         ld l,(ix+5)
368+  8529 DD 56 0E         ld d,(ix+14)
369+  852C DD 5E 0F         ld e,(ix+15)
370+  852F 19               add hl,de
371+  8530 ED 5B 94 80      ld de,(px)
372+  8534 B7               or a
373+  8535 ED 52            sbc hl,de
374+  8537 7D               ld a,l
375+  8538 FE 1C            cp 28
376+  853A DA 01 85         jp c,obj_check_coll_y
377+  853D C9               ret
378+  853E
379+  853E              checkcollision_player_ghostwalker:
380+  853E                  ;x axis collision check:
381+  853E DD 66 04         ld h,(ix+4)
382+  8541 DD 6E 05         ld l,(ix+5)
383+  8544 DD 56 0E         ld d,(ix+14)
384+  8547 DD 5E 0F         ld e,(ix+15)
385+  854A B7               or a
386+  854B ED 52            sbc hl,de
387+  854D ED 5B 94 80      ld de,(px)
388+  8551 B7               or a
389+  8552 ED 52            sbc hl,de
390+  8554 7D               ld a,l
391+  8555 FE 1C            cp 28
392+  8557 DA 01 85         jp c,obj_check_coll_y
393+  855A C9               ret
# file closed: src/objects.asm
 32   855B              	include 'game.asm'
# file opened: src/game.asm
  1+  855B
  2+  855B              game_init:
  3+  855B CD 70 8B         call layer2_init
  4+  855E ED 91 56 0E      nextreg $56,14
  5+  8562 06 14            ld b,SPRITE_COUNT
  6+  8564 21 00 C0         ld hl,$c000
  7+  8567 CD CA 86         call sprites_init
  8+  856A
  9+  856A CD 91 8B         call tiles_init
 10+  856D CD A2 80         call player_init
 11+  8570
 12+  8570 C9               ret
 13+  8571
 14+  8571
 15+  8571              game_update:
 16+  8571 06 0B            ld b,11
 17+  8573 CD 38 80         call WaitRasterLine
 18+  8576
 19+  8576 CD DA 8B         call layer2_update
 20+  8579 CD 9A 85         call check_keys
 21+  857C CD 2A 81         call player_update
 22+  857F CD A0 83         call objects_update
 23+  8582
 24+  8582 C9               ret
 25+  8583
 26+  8583              game_draw:
 27+  8583 CD 61 82         call player_draw
 28+  8586 CD B5 83         call objects_draw
 29+  8589 C9               ret
 30+  858A
 31+  858A
# file closed: src/game.asm
 33   858A              	include 'retrotools\keycacher.asm'
# file opened: src/retrotools/keycacher.asm
  1+  858A              ;Usage:
  2+  858A              ;first call check_keys
  3+  858A              ;compare states of cached values (eg. keypressed_W) before doing movement/actions etc.
  4+  858A              ;after all actions, call reset_keys
  5+  858A
  6+  858A
  7+  858A              ; 32766 B, N, M, Symbol Shift, Space
  8+  858A              ; 49150 H, J, K, L, Enter
  9+  858A              ; 57342 Y, U, I, O, P
 10+  858A              ; 61438 6, 7, 8, 9, 0
 11+  858A              ; 63486 5, 4, 3, 2, 1
 12+  858A              ; 64510 T, R, E, W, Q
 13+  858A              ; 65022 G, F, D, S, A
 14+  858A              ; 65278 V, C, X, Z, Caps Shift
 15+  858A
 16+  858A
 17+  858A 00           keypressed_W db FALSE
 18+  858B 00           keypressed_W_Held db FALSE
 19+  858C 00           keypressed_A db FALSE
 20+  858D 00           keypressed_A_Held db FALSE
 21+  858E 00           keypressed_S db FALSE
 22+  858F 00           keypressed_S_Held db FALSE
 23+  8590 00           keypressed_D db FALSE
 24+  8591
 25+  8591 00           keypressed_F db FALSE
 26+  8592 00           keypressed_F_Held db FALSE
 27+  8593 00           keypressed_I db FALSE
 28+  8594 00           keypressed_Q db FALSE
 29+  8595 00           keypressed_Q_Held db FALSE
 30+  8596 00           keypressed_O db FALSE
 31+  8597 00           keypressed_P db FALSE
 32+  8598 00           keypressed_Space db FALSE
 33+  8599 00           keypressed_Space_Held db FALSE
 34+  859A
 35+  859A              check_keys:
 36+  859A 3A 8A 85         ld a,(keypressed_W)
 37+  859D FE 01            cp TRUE
 38+  859F CC 52 86         call z,set_W_Held
 39+  85A2 C4 58 86         call nz, reset_W_Held
 40+  85A5
 41+  85A5 3A 8E 85         ld a,(keypressed_S)
 42+  85A8 FE 01            cp TRUE
 43+  85AA CC 74 86         call z,set_S_Held
 44+  85AD C4 7A 86         call nz, reset_S_Held
 45+  85B0
 46+  85B0 3A 91 85         ld a,(keypressed_F)
 47+  85B3 FE 01            cp TRUE
 48+  85B5 CC 8B 86         call z, set_F_Held
 49+  85B8 C4 91 86         call nz, reset_F_Held
 50+  85BB
 51+  85BB 3A 8C 85         ld a,(keypressed_A)
 52+  85BE FE 01            cp TRUE
 53+  85C0 CC 63 86         call z,set_A_Held
 54+  85C3 C4 69 86         call nz, reset_A_Held
 55+  85C6
 56+  85C6 3A 94 85         ld a,(keypressed_Q)
 57+  85C9 FE 01            cp TRUE
 58+  85CB CC A2 86         call z,set_Q_Held
 59+  85CE C4 A8 86         call nz, reset_Q_Held
 60+  85D1
 61+  85D1 3A 98 85         ld a,(keypressed_Space)
 62+  85D4 FE 01            cp TRUE
 63+  85D6 CC BF 86         call z,set_Space_Held
 64+  85D9 C4 C5 86         call nz, reset_Space_Held
 65+  85DC
 66+  85DC
 67+  85DC
 68+  85DC AF               xor a
 69+  85DD 32 8A 85         ld (keypressed_W),a
 70+  85E0 32 8C 85         ld (keypressed_A),a
 71+  85E3 32 8E 85         ld (keypressed_S),a
 72+  85E6 32 90 85         ld (keypressed_D),a
 73+  85E9 32 91 85         ld (keypressed_F),a
 74+  85EC 32 93 85         ld (keypressed_I),a
 75+  85EF 32 94 85         ld (keypressed_Q),a
 76+  85F2 32 96 85         ld (keypressed_O),a
 77+  85F5 32 97 85         ld (keypressed_P),a
 78+  85F8 32 98 85         ld (keypressed_Space),a
 79+  85FB
 80+  85FB
 81+  85FB 01 FE FD         ld bc,0xFDFE ;ASDFG
 82+  85FE ED 78            in a,(c)
 83+  8600 1F               rra
 84+  8601 F5               push af
 85+  8602 D4 5D 86         call nc, set_A
 86+  8605 F1               pop af
 87+  8606 1F               rra
 88+  8607 F5               push af
 89+  8608 D4 6E 86         call nc, set_S
 90+  860B F1               pop af
 91+  860C 1F               rra
 92+  860D F5               push af
 93+  860E D4 7F 86         call nc, set_D
 94+  8611 F1               pop af
 95+  8612 1F               rra
 96+  8613 F5               push af
 97+  8614 D4 85 86         call nc, set_F
 98+  8617 F1               pop af
 99+  8618
100+  8618 01 FE FB         ld bc,0xFBFE ;QWERT
101+  861B ED 78            in a,(c)
102+  861D 1F               rra ;Q
103+  861E F5               push af
104+  861F D4 9C 86         call nc, set_Q
105+  8622 F1               pop af
106+  8623 1F               rra ;W
107+  8624 F5               push af
108+  8625 D4 4C 86         call nc, set_W
109+  8628 F1               pop af
110+  8629
111+  8629 01 FE DF         ld bc,0xDFFE ;POIUY
112+  862C ED 78            in a,(c)
113+  862E 1F               rra ;P
114+  862F F5               push af
115+  8630 D4 B3 86         call nc, set_P
116+  8633 F1               pop af
117+  8634 1F               rra ;O
118+  8635 F5               push af
119+  8636 D4 AD 86         call nc, set_O
120+  8639 F1               pop af
121+  863A 1F               rra ;I
122+  863B F5               push af
123+  863C D4 96 86         call nc, set_I
124+  863F F1               pop af
125+  8640
126+  8640 01 FE 7F         ld bc,32766
127+  8643 ED 78            in a,(c)
128+  8645 1F               rra
129+  8646 F5               push af
130+  8647 D4 B9 86         call nc, set_Space
131+  864A F1               pop af
132+  864B
133+  864B
134+  864B C9               ret
135+  864C
136+  864C              set_W:
137+  864C 3E 01            ld a,TRUE
138+  864E 32 8A 85         ld (keypressed_W),a
139+  8651 C9               ret
140+  8652
141+  8652              set_W_Held:
142+  8652 3E 01            ld a,TRUE
143+  8654 32 8B 85         ld (keypressed_W_Held),a
144+  8657 C9               ret
145+  8658              reset_W_Held:
146+  8658 AF               xor a
147+  8659 32 8B 85         ld (keypressed_W_Held),a
148+  865C C9               ret
149+  865D
150+  865D              set_A:
151+  865D 3E 01            ld a,TRUE
152+  865F 32 8C 85         ld (keypressed_A),a
153+  8662 C9               ret
154+  8663
155+  8663              set_A_Held:
156+  8663 3E 01            ld a,TRUE
157+  8665 32 8D 85         ld (keypressed_A_Held),a
158+  8668 C9               ret
159+  8669
160+  8669              reset_A_Held:
161+  8669 AF               xor a
162+  866A 32 8D 85         ld (keypressed_A_Held),a
163+  866D C9               ret
164+  866E
165+  866E              set_S:
166+  866E 3E 01            ld a,TRUE
167+  8670 32 8E 85         ld (keypressed_S),a
168+  8673 C9               ret
169+  8674              set_S_Held:
170+  8674 3E 01            ld a,TRUE
171+  8676 32 8F 85         ld (keypressed_S_Held),a
172+  8679 C9               ret
173+  867A              reset_S_Held:
174+  867A AF               xor a
175+  867B 32 8F 85         ld (keypressed_S_Held),a
176+  867E C9               ret
177+  867F
178+  867F              set_D:
179+  867F 3E 01            ld a,TRUE
180+  8681 32 90 85         ld (keypressed_D),a
181+  8684 C9               ret
182+  8685
183+  8685              set_F:
184+  8685 3E 01            ld a,TRUE
185+  8687 32 91 85         ld (keypressed_F),a
186+  868A C9               ret
187+  868B
188+  868B
189+  868B              set_F_Held:
190+  868B 3E 01            ld a,TRUE
191+  868D 32 92 85         ld (keypressed_F_Held),a
192+  8690 C9               ret
193+  8691
194+  8691              reset_F_Held:
195+  8691 AF               xor a
196+  8692 32 92 85         ld (keypressed_F_Held),a
197+  8695 C9               ret
198+  8696
199+  8696
200+  8696
201+  8696              set_I:
202+  8696 3E 01            ld a,TRUE
203+  8698 32 93 85         ld (keypressed_I),a
204+  869B C9               ret
205+  869C
206+  869C
207+  869C              set_Q:
208+  869C 3E 01            ld a,TRUE
209+  869E 32 94 85         ld (keypressed_Q),a
210+  86A1 C9               ret
211+  86A2
212+  86A2              set_Q_Held:
213+  86A2 3E 01            ld a,TRUE
214+  86A4 32 95 85         ld (keypressed_Q_Held),a
215+  86A7 C9               ret
216+  86A8
217+  86A8              reset_Q_Held:
218+  86A8 AF               xor a
219+  86A9 32 95 85         ld (keypressed_Q_Held),a
220+  86AC C9               ret
221+  86AD
222+  86AD              set_O:
223+  86AD 3E 01            ld a,TRUE
224+  86AF 32 96 85         ld (keypressed_O),a
225+  86B2 C9               ret
226+  86B3
227+  86B3              set_P:
228+  86B3 3E 01            ld a,TRUE
229+  86B5 32 97 85         ld (keypressed_P),a
230+  86B8 C9               ret
231+  86B9
232+  86B9              set_Space:
233+  86B9 3E 01            ld a,TRUE
234+  86BB 32 98 85         ld (keypressed_Space),a
235+  86BE C9               ret
236+  86BF              set_Space_Held:
237+  86BF 3E 01            ld a,TRUE
238+  86C1 32 99 85         ld (keypressed_Space_Held),a
239+  86C4 C9               ret
240+  86C5
241+  86C5              reset_Space_Held:
242+  86C5 AF               xor a
243+  86C6 32 99 85         ld (keypressed_Space_Held),a
244+  86C9 C9               ret
245+  86CA
# file closed: src/retrotools/keycacher.asm
 34   86CA              	include 'retrotools\spritetools.asm'
# file opened: src/retrotools/spritetools.asm
  1+  86CA              VISIBILITY equ %10000000
  2+  86CA              EXTENDED equ %01000000
  3+  86CA              MIRROR_X equ %00001000
  4+  86CA              MIRROR_Y equ %00000100
  5+  86CA
  6+  86CA
  7+  86CA
  8+  86CA              ;;;;;;;;;;;;;;;;;;;;;;;;;;;;;;;;;;;;
  9+  86CA              ;; Upload spritesheet to 16K FPGA Internal Memory
 10+  86CA              ;; Inputs: B=Sprite Count HL=Sprite data Ptr
 11+  86CA              ;; Outputs: none
 12+  86CA              ;; Destroys: A,BC,HL
 13+  86CA              ;;;;;;;;;;;;;;;;;;;;;;;;;;;;;;;;;;;;
 14+  86CA              sprites_init:
 15+  86CA C5           	push bc
 16+  86CB 3E 00        	ld a,0
 17+  86CD 01 3B 30     	ld bc,$303b
 18+  86D0 ED 79        	out (c),a
 19+  86D2 C1           	pop bc
 20+  86D3              is_loop:
 21+  86D3 C5           	push bc
 22+  86D4 01 5B 00     	ld bc,$005b
 23+  86D7 ED B3        	otir
 24+  86D9 C1           	pop bc
 25+  86DA 10 F7        	djnz is_loop
 26+  86DC C9           	ret
# file closed: src/retrotools/spritetools.asm
 35   86DD              	include 'levels\levels.asm'
# file opened: src/levels/levels.asm
  1+  86DD              ; another way to check solids (if not in order)
  2+  86DD              meta_solids:
  3+  86DD 11 13            db 17,19
  4+  86DF 31 33            db 17+32,19+32
  5+  86E1              SOLIDS_LENGTH equ 4
  6+  86E1              check_solid:
  7+  86E1 21 DD 86         ld hl,meta_solids
  8+  86E4 01 04 00         ld bc,SOLIDS_LENGTH
  9+  86E7 ED B1            cpir
 10+  86E9 C9               ret
 11+  86EA
 12+  86EA
 13+  86EA              ;Platform::
 14+  86EA              ;01 03 03 01*
 15+  86EA              ;17 19 19 17*
 16+  86EA              ;02 04 04 02*
 17+  86EA              ;18 20 20 18*
 18+  86EA
 19+  86EA
 20+  86EA              LEVEL_Y_START_ADDRESS equ $4500 ;half way down
 21+  86EA              LEVEL_WIDTH_META equ 80
 22+  86EA              LEVEL_HEIGHT_META equ 8
 23+  86EA
 24+  86EA
 25+  86EA              TILE_ATTR_NOMIRROR equ %00000000
 26+  86EA              TILE_ATTR_MIRROR equ %00001000
 27+  86EA
 28+  86EA              metalevel:
 29+  86EA 00 00 00 00      db 00,00,00,00,00,00,00,00,00,00,00,00,00,00,00,00,00,00,00,00,00,00,00,00,00,00,00,00,00,00,00,00,00,00,00,00,00,00,00,00,00,00,00,00,00,00,00,00,00,00,00,00,00,00,00,00,00,00,00,00,00,00,00,00,00,00,00,00,00,00,00,00,00,00,00,00,00,00,00,00
 29+  86EE 00 00 00 00
 29+  86F2 00 00 00 00
 29+  86F6 00 00 00 00
 29+  86FA 00 00 00 00
 29+  86FE 00 00 00 00
 29+  8702 00 00 00 00
 29+  8706 00 00 00 00
 29+  870A 00 00 00 00
 29+  870E 00 00 00 00
 29+  8712 00 00 00 00
 29+  8716 00 00 00 00
 29+  871A 00 00 00 00
 29+  871E 00 00 00 00
 29+  8722 00 00 00 00
 29+  8726 00 00 00 00
 29+  872A 00 00 00 00
 29+  872E 00 00 00 00
 29+  8732 00 00 00 00
 29+  8736 00 00 00 00
 30+  873A 00 00 00 00      db 00,00,00,00,00,00,00,00,00,00,00,00,00,00,00,00,00,00,00,00,00,00,00,00,00,00,00,00,00,00,00,00,00,00,00,00,00,00,00,00,00,00,00,00,00,00,00,00,00,00,00,00,01,03,03,03,00,00,00,00,00,00,00,00,00,00,00,00,00,00,00,00,00,00,00,00,00,00,00,00
 30+  873E 00 00 00 00
 30+  8742 00 00 00 00
 30+  8746 00 00 00 00
 30+  874A 00 00 00 00
 30+  874E 00 00 00 00
 30+  8752 00 00 00 00
 30+  8756 00 00 00 00
 30+  875A 00 00 00 00
 30+  875E 00 00 00 00
 30+  8762 00 00 00 00
 30+  8766 00 00 00 00
 30+  876A 00 00 00 00
 30+  876E 01 03 03 03
 30+  8772 00 00 00 00
 30+  8776 00 00 00 00
 30+  877A 00 00 00 00
 30+  877E 00 00 00 00
 30+  8782 00 00 00 00
 30+  8786 00 00 00 00
 31+  878A 00 00 00 00      db 00,00,00,00,00,00,00,00,00,00,00,00,00,00,00,00,00,00,00,00,00,00,00,00,00,00,00,00,00,00,00,00,00,00,00,00,00,00,00,00,00,00,00,00,00,00,00,00,00,00,00,00,17,19,19,19,00,00,00,00,00,00,00,00,00,00,00,00,00,00,00,00,00,00,00,00,00,00,00,00
 31+  878E 00 00 00 00
 31+  8792 00 00 00 00
 31+  8796 00 00 00 00
 31+  879A 00 00 00 00
 31+  879E 00 00 00 00
 31+  87A2 00 00 00 00
 31+  87A6 00 00 00 00
 31+  87AA 00 00 00 00
 31+  87AE 00 00 00 00
 31+  87B2 00 00 00 00
 31+  87B6 00 00 00 00
 31+  87BA 00 00 00 00
 31+  87BE 11 13 13 13
 31+  87C2 00 00 00 00
 31+  87C6 00 00 00 00
 31+  87CA 00 00 00 00
 31+  87CE 00 00 00 00
 31+  87D2 00 00 00 00
 31+  87D6 00 00 00 00
 32+  87DA 00 00 00 00      db 00,00,00,00,00,00,00,00,00,00,00,00,00,00,00,00,00,00,00,00,00,00,00,00,00,00,00,00,00,00,00,00,00,00,00,00,00,00,00,00,00,00,00,00,00,00,01,03,03,03,00,00,02,20,20,20,00,00,00,00,00,00,00,00,00,00,00,00,00,00,00,00,00,00,00,00,00,00,00,00
 32+  87DE 00 00 00 00
 32+  87E2 00 00 00 00
 32+  87E6 00 00 00 00
 32+  87EA 00 00 00 00
 32+  87EE 00 00 00 00
 32+  87F2 00 00 00 00
 32+  87F6 00 00 00 00
 32+  87FA 00 00 00 00
 32+  87FE 00 00 00 00
 32+  8802 00 00 00 00
 32+  8806 00 00 01 03
 32+  880A 03 03 00 00
 32+  880E 02 14 14 14
 32+  8812 00 00 00 00
 32+  8816 00 00 00 00
 32+  881A 00 00 00 00
 32+  881E 00 00 00 00
 32+  8822 00 00 00 00
 32+  8826 00 00 00 00
 33+  882A 00 00 00 00      db 00,00,00,00,00,00,00,00,00,00,00,00,00,00,00,00,00,00,00,01,03,03,03,03,03,03,03,03,03,03,03,33,00,00,00,00,00,00,00,00,00,00,17,19,00,00,17,19,19,19,00,00,18,19,19,19,00,00,00,00,00,00,00,00,00,00,00,00,00,00,00,00,00,00,00,00,00,00,00,00
 33+  882E 00 00 00 00
 33+  8832 00 00 00 00
 33+  8836 00 00 00 00
 33+  883A 00 00 00 01
 33+  883E 03 03 03 03
 33+  8842 03 03 03 03
 33+  8846 03 03 03 21
 33+  884A 00 00 00 00
 33+  884E 00 00 00 00
 33+  8852 00 00 11 13
 33+  8856 00 00 11 13
 33+  885A 13 13 00 00
 33+  885E 12 13 13 13
 33+  8862 00 00 00 00
 33+  8866 00 00 00 00
 33+  886A 00 00 00 00
 33+  886E 00 00 00 00
 33+  8872 00 00 00 00
 33+  8876 00 00 00 00
 34+  887A 00 00 00 00      db 00,00,00,00,00,00,00,00,00,00,00,00,00,00,00,00,00,00,00,17,19,19,19,19,19,19,19,19,19,19,19,49,00,00,00,00,00,00,00,00,00,00,00,00,00,00,02,20,20,20,00,00,02,20,20,20,00,00,00,00,00,00,00,00,00,00,00,00,00,00,00,00,00,00,00,00,00,00,00,00
 34+  887E 00 00 00 00
 34+  8882 00 00 00 00
 34+  8886 00 00 00 00
 34+  888A 00 00 00 11
 34+  888E 13 13 13 13
 34+  8892 13 13 13 13
 34+  8896 13 13 13 31
 34+  889A 00 00 00 00
 34+  889E 00 00 00 00
 34+  88A2 00 00 00 00
 34+  88A6 00 00 02 14
 34+  88AA 14 14 00 00
 34+  88AE 02 14 14 14
 34+  88B2 00 00 00 00
 34+  88B6 00 00 00 00
 34+  88BA 00 00 00 00
 34+  88BE 00 00 00 00
 34+  88C2 00 00 00 00
 34+  88C6 00 00 00 00
 35+  88CA 00 01 03 03      db 00,01,03,03,03,03,03,33,00,01,03,03,03,03,03,03,03,03,33,02,20,20,20,20,20,20,20,20,20,20,20,34,03,03,03,33,00,17,19,00,17,19,17,19,00,00,18,19,19,19,00,00,18,19,19,19,00,00,00,00,00,00,00,00,00,00,00,00,00,00,00,00,00,00,00,00,00,00,00,00
 35+  88CE 03 03 03 21
 35+  88D2 00 01 03 03
 35+  88D6 03 03 03 03
 35+  88DA 03 03 21 02
 35+  88DE 14 14 14 14
 35+  88E2 14 14 14 14
 35+  88E6 14 14 14 22
 35+  88EA 03 03 03 21
 35+  88EE 00 11 13 00
 35+  88F2 11 13 11 13
 35+  88F6 00 00 12 13
 35+  88FA 13 13 00 00
 35+  88FE 12 13 13 13
 35+  8902 00 00 00 00
 35+  8906 00 00 00 00
 35+  890A 00 00 00 00
 35+  890E 00 00 00 00
 35+  8912 00 00 00 00
 35+  8916 00 00 00 00
 36+  891A 00 11 13 13      db 00,17,19,19,19,19,19,49,00,17,19,19,19,19,19,19,19,19,49,18,19,19,19,19,19,19,19,19,19,19,19,50,19,19,19,49,00,00,00,00,00,00,00,00,00,00,02,20,20,20,00,00,02,20,20,20,00,00,00,00,00,00,00,00,00,00,00,00,00,00,00,00,00,00,00,00,00,00,00,00
 36+  891E 13 13 13 31
 36+  8922 00 11 13 13
 36+  8926 13 13 13 13
 36+  892A 13 13 31 12
 36+  892E 13 13 13 13
 36+  8932 13 13 13 13
 36+  8936 13 13 13 32
 36+  893A 13 13 13 31
 36+  893E 00 00 00 00
 36+  8942 00 00 00 00
 36+  8946 00 00 02 14
 36+  894A 14 14 00 00
 36+  894E 02 14 14 14
 36+  8952 00 00 00 00
 36+  8956 00 00 00 00
 36+  895A 00 00 00 00
 36+  895E 00 00 00 00
 36+  8962 00 00 00 00
 36+  8966 00 00 00 00
 37+  896A
 38+  896A              ;OO
 39+  896A              ;OO
 40+  896A
 41+  896A              metatiles:
 42+  896A 00 00 00 00      db 0,TILE_ATTR_NOMIRROR,0,TILE_ATTR_NOMIRROR,0,TILE_ATTR_NOMIRROR,0,TILE_ATTR_NOMIRROR   ;supertile 0
 42+  896E 00 00 00 00
 43+  8972 02 00 03 00      db 2,TILE_ATTR_NOMIRROR,3,TILE_ATTR_NOMIRROR,34,TILE_ATTR_NOMIRROR,35,TILE_ATTR_NOMIRROR ;1
 43+  8976 22 00 23 00
 44+  897A 04 00 05 00      db 4,TILE_ATTR_NOMIRROR,5,TILE_ATTR_NOMIRROR,36,TILE_ATTR_NOMIRROR,37,TILE_ATTR_NOMIRROR ;2
 44+  897E 24 00 25 00
 45+  8982 06 00 07 00      db 6,TILE_ATTR_NOMIRROR,7,TILE_ATTR_NOMIRROR,38,TILE_ATTR_NOMIRROR,39,TILE_ATTR_NOMIRROR ;3
 45+  8986 26 00 27 00
 46+  898A 08 00 09 00      db 8,TILE_ATTR_NOMIRROR,9,TILE_ATTR_NOMIRROR,40,TILE_ATTR_NOMIRROR,41,TILE_ATTR_NOMIRROR ;4
 46+  898E 28 00 29 00
 47+  8992 00 00 00 00      db 0,TILE_ATTR_NOMIRROR,0,TILE_ATTR_NOMIRROR,0,TILE_ATTR_NOMIRROR,0,TILE_ATTR_NOMIRROR
 47+  8996 00 00 00 00
 48+  899A 00 00 00 00      db 0,TILE_ATTR_NOMIRROR,0,TILE_ATTR_NOMIRROR,0,TILE_ATTR_NOMIRROR,0,TILE_ATTR_NOMIRROR
 48+  899E 00 00 00 00
 49+  89A2 00 00 00 00      db 0,TILE_ATTR_NOMIRROR,0,TILE_ATTR_NOMIRROR,0,TILE_ATTR_NOMIRROR,0,TILE_ATTR_NOMIRROR
 49+  89A6 00 00 00 00
 50+  89AA 00 00 00 00      db 0,TILE_ATTR_NOMIRROR,0,TILE_ATTR_NOMIRROR,0,TILE_ATTR_NOMIRROR,0,TILE_ATTR_NOMIRROR
 50+  89AE 00 00 00 00
 51+  89B2 00 00 00 00      db 0,TILE_ATTR_NOMIRROR,0,TILE_ATTR_NOMIRROR,0,TILE_ATTR_NOMIRROR,0,TILE_ATTR_NOMIRROR
 51+  89B6 00 00 00 00
 52+  89BA 00 00 00 00      db 0,TILE_ATTR_NOMIRROR,0,TILE_ATTR_NOMIRROR,0,TILE_ATTR_NOMIRROR,0,TILE_ATTR_NOMIRROR
 52+  89BE 00 00 00 00
 53+  89C2 00 00 00 00      db 0,TILE_ATTR_NOMIRROR,0,TILE_ATTR_NOMIRROR,0,TILE_ATTR_NOMIRROR,0,TILE_ATTR_NOMIRROR
 53+  89C6 00 00 00 00
 54+  89CA 00 00 00 00      db 0,TILE_ATTR_NOMIRROR,0,TILE_ATTR_NOMIRROR,0,TILE_ATTR_NOMIRROR,0,TILE_ATTR_NOMIRROR
 54+  89CE 00 00 00 00
 55+  89D2 00 00 00 00      db 0,TILE_ATTR_NOMIRROR,0,TILE_ATTR_NOMIRROR,0,TILE_ATTR_NOMIRROR,0,TILE_ATTR_NOMIRROR
 55+  89D6 00 00 00 00
 56+  89DA 00 00 00 00      db 0,TILE_ATTR_NOMIRROR,0,TILE_ATTR_NOMIRROR,0,TILE_ATTR_NOMIRROR,0,TILE_ATTR_NOMIRROR
 56+  89DE 00 00 00 00
 57+  89E2 00 00 00 00      db 0,TILE_ATTR_NOMIRROR,0,TILE_ATTR_NOMIRROR,0,TILE_ATTR_NOMIRROR,0,TILE_ATTR_NOMIRROR
 57+  89E6 00 00 00 00
 58+  89EA 00 00 00 00      db 0,TILE_ATTR_NOMIRROR,0,TILE_ATTR_NOMIRROR,0,TILE_ATTR_NOMIRROR,0,TILE_ATTR_NOMIRROR
 58+  89EE 00 00 00 00
 59+  89F2 42 00 43 00      db 66,TILE_ATTR_NOMIRROR,67,TILE_ATTR_NOMIRROR,98,TILE_ATTR_NOMIRROR,99,TILE_ATTR_NOMIRROR ;17
 59+  89F6 62 00 63 00
 60+  89FA 44 00 45 00      db 68,TILE_ATTR_NOMIRROR,69,TILE_ATTR_NOMIRROR,100,TILE_ATTR_NOMIRROR,101,TILE_ATTR_NOMIRROR ;18
 60+  89FE 64 00 65 00
 61+  8A02 46 00 47 00      db 70,TILE_ATTR_NOMIRROR,71,TILE_ATTR_NOMIRROR,102,TILE_ATTR_NOMIRROR,103,TILE_ATTR_NOMIRROR ;19
 61+  8A06 66 00 67 00
 62+  8A0A 48 00 49 00      db 72,TILE_ATTR_NOMIRROR,73,TILE_ATTR_NOMIRROR,104,TILE_ATTR_NOMIRROR,105,TILE_ATTR_NOMIRROR ;20
 62+  8A0E 68 00 69 00
 63+  8A12 00 00 00 00      db 0,TILE_ATTR_NOMIRROR,0,TILE_ATTR_NOMIRROR,0,TILE_ATTR_NOMIRROR,0,TILE_ATTR_NOMIRROR
 63+  8A16 00 00 00 00
 64+  8A1A 00 00 00 00      db 0,TILE_ATTR_NOMIRROR,0,TILE_ATTR_NOMIRROR,0,TILE_ATTR_NOMIRROR,0,TILE_ATTR_NOMIRROR
 64+  8A1E 00 00 00 00
 65+  8A22 00 00 00 00      db 0,TILE_ATTR_NOMIRROR,0,TILE_ATTR_NOMIRROR,0,TILE_ATTR_NOMIRROR,0,TILE_ATTR_NOMIRROR
 65+  8A26 00 00 00 00
 66+  8A2A 00 00 00 00      db 0,TILE_ATTR_NOMIRROR,0,TILE_ATTR_NOMIRROR,0,TILE_ATTR_NOMIRROR,0,TILE_ATTR_NOMIRROR
 66+  8A2E 00 00 00 00
 67+  8A32 00 00 00 00      db 0,TILE_ATTR_NOMIRROR,0,TILE_ATTR_NOMIRROR,0,TILE_ATTR_NOMIRROR,0,TILE_ATTR_NOMIRROR
 67+  8A36 00 00 00 00
 68+  8A3A 00 00 00 00      db 0,TILE_ATTR_NOMIRROR,0,TILE_ATTR_NOMIRROR,0,TILE_ATTR_NOMIRROR,0,TILE_ATTR_NOMIRROR
 68+  8A3E 00 00 00 00
 69+  8A42 00 00 00 00      db 0,TILE_ATTR_NOMIRROR,0,TILE_ATTR_NOMIRROR,0,TILE_ATTR_NOMIRROR,0,TILE_ATTR_NOMIRROR
 69+  8A46 00 00 00 00
 70+  8A4A 00 00 00 00      db 0,TILE_ATTR_NOMIRROR,0,TILE_ATTR_NOMIRROR,0,TILE_ATTR_NOMIRROR,0,TILE_ATTR_NOMIRROR
 70+  8A4E 00 00 00 00
 71+  8A52 00 00 00 00      db 0,TILE_ATTR_NOMIRROR,0,TILE_ATTR_NOMIRROR,0,TILE_ATTR_NOMIRROR,0,TILE_ATTR_NOMIRROR
 71+  8A56 00 00 00 00
 72+  8A5A 00 00 00 00      db 0,TILE_ATTR_NOMIRROR,0,TILE_ATTR_NOMIRROR,0,TILE_ATTR_NOMIRROR,0,TILE_ATTR_NOMIRROR ;30
 72+  8A5E 00 00 00 00
 73+  8A62 00 00 00 00      db 0,TILE_ATTR_NOMIRROR,0,TILE_ATTR_NOMIRROR,0,TILE_ATTR_NOMIRROR,0,TILE_ATTR_NOMIRROR ;31 - end of definitions
 73+  8A66 00 00 00 00
 74+  8A6A 00 08 00 08      db 0,TILE_ATTR_MIRROR,0,TILE_ATTR_MIRROR,0,TILE_ATTR_MIRROR,0,TILE_ATTR_MIRROR ;32 0*
 74+  8A6E 00 08 00 08
 75+  8A72 03 08 02 08      db 3,TILE_ATTR_MIRROR,2,TILE_ATTR_MIRROR,35,TILE_ATTR_MIRROR,34,TILE_ATTR_MIRROR ;33 1*
 75+  8A76 23 08 22 08
 76+  8A7A 05 08 04 08      db 5,TILE_ATTR_MIRROR,4,TILE_ATTR_MIRROR,37,TILE_ATTR_MIRROR,36,TILE_ATTR_MIRROR ;34 2*
 76+  8A7E 25 08 24 08
 77+  8A82 07 08 06 08      db 7,TILE_ATTR_MIRROR,6,TILE_ATTR_MIRROR,39,TILE_ATTR_MIRROR,38,TILE_ATTR_MIRROR ;35 3*
 77+  8A86 27 08 26 08
 78+  8A8A 09 08 08 08      db 9,TILE_ATTR_MIRROR,8,TILE_ATTR_MIRROR,41,TILE_ATTR_MIRROR,40,TILE_ATTR_MIRROR ;36 4*
 78+  8A8E 29 08 28 08
 79+  8A92 00 08 00 08      db 0,TILE_ATTR_MIRROR,0,TILE_ATTR_MIRROR,0,TILE_ATTR_MIRROR,0,TILE_ATTR_MIRROR
 79+  8A96 00 08 00 08
 80+  8A9A 00 08 00 08      db 0,TILE_ATTR_MIRROR,0,TILE_ATTR_MIRROR,0,TILE_ATTR_MIRROR,0,TILE_ATTR_MIRROR
 80+  8A9E 00 08 00 08
 81+  8AA2 00 08 00 08      db 0,TILE_ATTR_MIRROR,0,TILE_ATTR_MIRROR,0,TILE_ATTR_MIRROR,0,TILE_ATTR_MIRROR
 81+  8AA6 00 08 00 08
 82+  8AAA 00 08 00 08      db 0,TILE_ATTR_MIRROR,0,TILE_ATTR_MIRROR,0,TILE_ATTR_MIRROR,0,TILE_ATTR_MIRROR
 82+  8AAE 00 08 00 08
 83+  8AB2 00 08 00 08      db 0,TILE_ATTR_MIRROR,0,TILE_ATTR_MIRROR,0,TILE_ATTR_MIRROR,0,TILE_ATTR_MIRROR
 83+  8AB6 00 08 00 08
 84+  8ABA 00 08 00 08      db 0,TILE_ATTR_MIRROR,0,TILE_ATTR_MIRROR,0,TILE_ATTR_MIRROR,0,TILE_ATTR_MIRROR
 84+  8ABE 00 08 00 08
 85+  8AC2 00 08 00 08      db 0,TILE_ATTR_MIRROR,0,TILE_ATTR_MIRROR,0,TILE_ATTR_MIRROR,0,TILE_ATTR_MIRROR
 85+  8AC6 00 08 00 08
 86+  8ACA 00 08 00 08      db 0,TILE_ATTR_MIRROR,0,TILE_ATTR_MIRROR,0,TILE_ATTR_MIRROR,0,TILE_ATTR_MIRROR
 86+  8ACE 00 08 00 08
 87+  8AD2 00 08 00 08      db 0,TILE_ATTR_MIRROR,0,TILE_ATTR_MIRROR,0,TILE_ATTR_MIRROR,0,TILE_ATTR_MIRROR
 87+  8AD6 00 08 00 08
 88+  8ADA 00 08 00 08      db 0,TILE_ATTR_MIRROR,0,TILE_ATTR_MIRROR,0,TILE_ATTR_MIRROR,0,TILE_ATTR_MIRROR
 88+  8ADE 00 08 00 08
 89+  8AE2 00 08 00 08      db 0,TILE_ATTR_MIRROR,0,TILE_ATTR_MIRROR,0,TILE_ATTR_MIRROR,0,TILE_ATTR_MIRROR
 89+  8AE6 00 08 00 08
 90+  8AEA 00 08 00 08      db 0,TILE_ATTR_MIRROR,0,TILE_ATTR_MIRROR,0,TILE_ATTR_MIRROR,0,TILE_ATTR_MIRROR
 90+  8AEE 00 08 00 08
 91+  8AF2 43 08 42 08      db 67,TILE_ATTR_MIRROR,66,TILE_ATTR_MIRROR,99,TILE_ATTR_MIRROR,98,TILE_ATTR_MIRROR ;49 17*
 91+  8AF6 63 08 62 08
 92+  8AFA 45 08 44 08      db 69,TILE_ATTR_MIRROR,68,TILE_ATTR_MIRROR,101,TILE_ATTR_MIRROR,100,TILE_ATTR_MIRROR ;18*
 92+  8AFE 65 08 64 08
 93+  8B02 47 08 46 08      db 71,TILE_ATTR_MIRROR,70,TILE_ATTR_MIRROR,103,TILE_ATTR_MIRROR,102,TILE_ATTR_MIRROR ;19*
 93+  8B06 67 08 66 08
 94+  8B0A 49 08 48 08      db 73,TILE_ATTR_MIRROR,72,TILE_ATTR_MIRROR,105,TILE_ATTR_MIRROR,104,TILE_ATTR_MIRROR ;20*
 94+  8B0E 69 08 68 08
 95+  8B12 00 08 00 08      db 0,TILE_ATTR_MIRROR,0,TILE_ATTR_MIRROR,0,TILE_ATTR_MIRROR,0,TILE_ATTR_MIRROR
 95+  8B16 00 08 00 08
 96+  8B1A 00 08 00 08      db 0,TILE_ATTR_MIRROR,0,TILE_ATTR_MIRROR,0,TILE_ATTR_MIRROR,0,TILE_ATTR_MIRROR
 96+  8B1E 00 08 00 08
 97+  8B22 00 08 00 08      db 0,TILE_ATTR_MIRROR,0,TILE_ATTR_MIRROR,0,TILE_ATTR_MIRROR,0,TILE_ATTR_MIRROR
 97+  8B26 00 08 00 08
 98+  8B2A 00 08 00 08      db 0,TILE_ATTR_MIRROR,0,TILE_ATTR_MIRROR,0,TILE_ATTR_MIRROR,0,TILE_ATTR_MIRROR
 98+  8B2E 00 08 00 08
 99+  8B32 00 08 00 08      db 0,TILE_ATTR_MIRROR,0,TILE_ATTR_MIRROR,0,TILE_ATTR_MIRROR,0,TILE_ATTR_MIRROR
 99+  8B36 00 08 00 08
100+  8B3A 00 08 00 08      db 0,TILE_ATTR_MIRROR,0,TILE_ATTR_MIRROR,0,TILE_ATTR_MIRROR,0,TILE_ATTR_MIRROR
100+  8B3E 00 08 00 08
101+  8B42 00 08 00 08      db 0,TILE_ATTR_MIRROR,0,TILE_ATTR_MIRROR,0,TILE_ATTR_MIRROR,0,TILE_ATTR_MIRROR
101+  8B46 00 08 00 08
102+  8B4A 00 08 00 08      db 0,TILE_ATTR_MIRROR,0,TILE_ATTR_MIRROR,0,TILE_ATTR_MIRROR,0,TILE_ATTR_MIRROR
102+  8B4E 00 08 00 08
103+  8B52 00 08 00 08      db 0,TILE_ATTR_MIRROR,0,TILE_ATTR_MIRROR,0,TILE_ATTR_MIRROR,0,TILE_ATTR_MIRROR
103+  8B56 00 08 00 08
104+  8B5A 00 08 00 08      db 0,TILE_ATTR_MIRROR,0,TILE_ATTR_MIRROR,0,TILE_ATTR_MIRROR,0,TILE_ATTR_MIRROR ;30*
104+  8B5E 00 08 00 08
105+  8B62 00 08 00 08      db 0,TILE_ATTR_MIRROR,0,TILE_ATTR_MIRROR,0,TILE_ATTR_MIRROR,0,TILE_ATTR_MIRROR ;31*
105+  8B66 00 08 00 08
106+  8B6A                  ;supertile 31 is last
# file closed: src/levels/levels.asm
 36   8B6A              	include 'levels\levelmanager.asm'
# file opened: src/levels/levelmanager.asm
  1+  8B6A              TILE_DEFINITIONS_SIZE equ 4096
  2+  8B6A
  3+  8B6A              WORLD_WIDTH equ 160
  4+  8B6A              VIEW_WIDTH equ 40
  5+  8B6A              VIEW_HEIGHT equ 32
  6+  8B6A
  7+  8B6A              VIEW_WIDTH_META equ 20
  8+  8B6A
  9+  8B6A
 10+  8B6A              VIEW_SIZE equ VIEW_WIDTH*VIEW_HEIGHT
 11+  8B6A
 12+  8B6A
 13+  8B6A 00           current_scroll db 0
 14+  8B6B 01           scroll_direction db RIGHT
 15+  8B6C
 16+  8B6C              LEVEL_START equ 0
 17+  8B6C 14           cam_edge_r db LEVEL_START+VIEW_WIDTH_META
 18+  8B6D 00           cam_x db LEVEL_START
 19+  8B6E
 20+  8B6E 00 00        test_layer2_scroll dw 0
 21+  8B70
 22+  8B70
 23+  8B70              layer2_init:
 24+  8B70                  CLIP_LAYER2 4,155,0,255 ;layer 2 is basically rotated to do 320x256 mode
 24+  8B70 3E 04       >		ld a,4
 24+  8B72 ED 92 18    >		nextreg $18,a
 24+  8B75 3E 9B       >		ld a,155
 24+  8B77 ED 92 18    >		nextreg $18,a
 24+  8B7A 3E 00       >		ld a,0
 24+  8B7C ED 92 18    >		nextreg $18,a
 24+  8B7F 3E FF       >		ld a,255
 24+  8B81 ED 92 18    >		nextreg $18,a
 24+  8B84             >
 25+  8B84
 26+  8B84 ED 91 70 10      nextreg $70, %00010000 ;bit5-4=320x256x8bpp mode
 27+  8B88 ED 91 69 80      nextreg $69, %10000000 ;bit7=enable layer2
 28+  8B8C ED 91 12 14  	nextreg $12,20 ;layer2 ram page register
 29+  8B90 C9               ret
 30+  8B91
 31+  8B91              tiles_init:
 32+  8B91                  CLIPTILES 4,155,0,255
 32+  8B91 3E 04       >		ld a,4
 32+  8B93 ED 92 1B    >		nextreg $1b,a
 32+  8B96 3E 9B       >		ld a,155
 32+  8B98 ED 92 1B    >		nextreg $1b,a
 32+  8B9B 3E 00       >		ld a,0
 32+  8B9D ED 92 1B    >		nextreg $1b,a
 32+  8BA0 3E FF       >		ld a,255
 32+  8BA2 ED 92 1B    >		nextreg $1b,a
 32+  8BA5             >
 33+  8BA5 CD F8 8B         call tiles_set_palette
 34+  8BA8
 35+  8BA8                  ;load the tile defs
 36+  8BA8 ED 91 56 10      nextreg $56, 16
 37+  8BAC 21 00 C0         ld hl,$c000
 38+  8BAF 11 00 60         ld de,$6000
 39+  8BB2 01 00 10         ld bc,TILE_DEFINITIONS_SIZE
 40+  8BB5 ED B0            ldir
 41+  8BB7
 42+  8BB7 ED 91 6B 80      nextreg $6b, %10000000
 43+  8BBB ED 91 6C 00      nextreg $6c, 0
 44+  8BBF ED 91 6E 40      nextreg $6e, $40
 45+  8BC3 ED 91 6F 60      nextreg $6f, $60
 46+  8BC7 ED 91 68 80      nextreg $68, %10000000
 47+  8BCB ED 91 43 30      nextreg $43, %00110000
 48+  8BCF
 49+  8BCF                  ; ld a,3
 50+  8BCF
 51+  8BCF AF               xor a ;black
 52+  8BD0 ED 92 4C         nextreg $4c,a ;tilemap transparency colour
 53+  8BD3 ED 92 14         nextreg $14,a; global transparency colour
 54+  8BD6
 55+  8BD6
 56+  8BD6
 57+  8BD6 CD 12 8C         call view_init
 58+  8BD9
 59+  8BD9 C9               ret
 60+  8BDA
 61+  8BDA
 62+  8BDA              layer2_update:
 63+  8BDA 2A 6E 8B         ld hl,(test_layer2_scroll)
 64+  8BDD 7D               ld a,l
 65+  8BDE ED 92 16         nextreg $16, a
 66+  8BE1 7C               ld a,h
 67+  8BE2 ED 92 71         nextreg $71, a
 68+  8BE5 23               inc hl
 69+  8BE6 23               inc hl
 70+  8BE7
 71+  8BE7 22 6E 8B         ld (test_layer2_scroll),hl
 72+  8BEA FE 00            cp 0
 73+  8BEC C8               ret z
 74+  8BED
 75+  8BED 7D               ld a,l
 76+  8BEE FE 40            cp low 320 ;sjasm - gives the low byte needed for value 320
 77+  8BF0 C0               ret nz
 78+  8BF1
 79+  8BF1 21 00 00         ld hl,0
 80+  8BF4 22 6E 8B         ld (test_layer2_scroll),hl
 81+  8BF7
 82+  8BF7 C9               ret
 83+  8BF8
 84+  8BF8
 85+  8BF8
 86+  8BF8
 87+  8BF8              tiles_set_palette:
 88+  8BF8 21 48 8D         ld hl,caveman_palette
 89+  8BFB ED 91 43 30      nextreg $43,%00110000
 90+  8BFF AF               xor a
 91+  8C00 06 10            ld b,16
 92+  8C02 ED 92 40         nextreg $40,a
 93+  8C05              uploadpal:
 94+  8C05 7E               ld a,(hl)
 95+  8C06 ED 92 44         nextreg $44,a
 96+  8C09 23               inc hl
 97+  8C0A 7E               ld a,(hl)
 98+  8C0B ED 92 44         nextreg $44,a
 99+  8C0E 23               inc hl
100+  8C0F 10 F4            djnz uploadpal
101+  8C11 C9               ret
102+  8C12
103+  8C12
104+  8C12              ;does 2 passes per 'map' line, due to 2 rows within each supertile
105+  8C12              view_init:
106+  8C12 DD 21 EA 86      ld ix,metalevel ;point at level 'map' (in meta tiles)
107+  8C16 11 00 45         ld de,$4500 ;
108+  8C19 0E 00            ld c,0
109+  8C1B              view_init_screen:
110+  8C1B 06 14            ld b,VIEW_WIDTH_META
111+  8C1D              view_init_line_pass1:
112+  8C1D 21 6A 89         ld hl,metatiles
113+  8C20 DD 7E 00         ld a,(ix)
114+  8C23 87               add a,a
115+  8C24 87               add a,a ;A*4 (metatile size)
116+  8C25 ED 31            add hl,a
117+  8C27 ED 31            add hl,a ;add twice to hl because metatile elements are 2 bytes each
118+  8C29 7E               ld a,(hl)
119+  8C2A 12               ld (de),a
120+  8C2B 23               inc hl
121+  8C2C 13               inc de
122+  8C2D 7E               ld a,(hl)
123+  8C2E 12               ld (de),a
124+  8C2F 23               inc hl
125+  8C30 13               inc de
126+  8C31 7E               ld a,(hl)
127+  8C32 12               ld (de),a
128+  8C33 23               inc hl
129+  8C34 13               inc de
130+  8C35 7E               ld a,(hl)
131+  8C36 12               ld (de),a
132+  8C37 13               inc de
133+  8C38 DD 23            inc ix
134+  8C3A 10 E1            djnz view_init_line_pass1
135+  8C3C 06 14            ld b,VIEW_WIDTH_META
136+  8C3E              view_init_golineback:
137+  8C3E DD 2B            dec ix
138+  8C40 10 FC            djnz view_init_golineback
139+  8C42 06 14            ld b,VIEW_WIDTH_META
140+  8C44              view_init_line_pass2:
141+  8C44 21 6A 89         ld hl,metatiles
142+  8C47 DD 7E 00         ld a,(ix)
143+  8C4A 87               add a,a
144+  8C4B 87               add a,a ;A*4 (metatile size)
145+  8C4C ED 31            add hl,a
146+  8C4E ED 31            add hl,a
147+  8C50 3E 04            ld a,4
148+  8C52 ED 31            add hl,a
149+  8C54 7E               ld a,(hl)
150+  8C55 12               ld (de),a
151+  8C56 23               inc hl
152+  8C57 13               inc de
153+  8C58 7E               ld a,(hl)
154+  8C59 12               ld (de),a
155+  8C5A 23               inc hl
156+  8C5B 13               inc de
157+  8C5C 7E               ld a,(hl)
158+  8C5D 12               ld (de),a
159+  8C5E 23               inc hl
160+  8C5F 13               inc de
161+  8C60 7E               ld a,(hl)
162+  8C61 12               ld (de),a
163+  8C62 13               inc de
164+  8C63 DD 23            inc ix
165+  8C65 10 DD            djnz view_init_line_pass2
166+  8C67
167+  8C67 D5               push de
168+  8C68 11 3C 00         ld de,LEVEL_WIDTH_META-VIEW_WIDTH_META
169+  8C6B DD 19            add ix,de
170+  8C6D D1               pop de
171+  8C6E 0C               inc c
172+  8C6F 79               ld a,c
173+  8C70 FE 08            cp LEVEL_HEIGHT_META
174+  8C72 DA 1B 8C         jp c,view_init_screen
175+  8C75 C9               ret
176+  8C76
177+  8C76
178+  8C76 00           meta_tile_offset db 0
179+  8C77
180+  8C77
181+  8C77              scroll_left:
182+  8C77 C9               ret
183+  8C78
184+  8C78              ; AB  (meta tile "a")
185+  8C78              ; CD
186+  8C78              ; EF (meta tile "b")
187+  8C78              ; GH
188+  8C78
189+  8C78              ; .. you draw only:
190+  8C78              ; A
191+  8C78              ; E
192+  8C78              scroll_right:
193+  8C78 3E 01            ld a,RIGHT
194+  8C7A 32 6B 8B         ld (scroll_direction),a
195+  8C7D
196+  8C7D 3A 6C 8B         ld a,(cam_edge_r)
197+  8C80 D6 14            sub VIEW_WIDTH_META
198+  8C82 32 6D 8B         ld (cam_x),a
199+  8C85
200+  8C85 3A 6C 8B         ld a,(cam_edge_r)
201+  8C88 FE 50            cp LEVEL_WIDTH_META
202+  8C8A D2 59 82         jp nc, p_move_right
203+  8C8D
204+  8C8D 3A 6A 8B         ld a,(current_scroll)
205+  8C90 3C               inc a
206+  8C91 FE 08            cp 8
207+  8C93 32 6A 8B         ld (current_scroll),a
208+  8C96 CC A0 8C         call z,sr_scrollmax
209+  8C99 3A 6A 8B         ld a,(current_scroll)
210+  8C9C ED 92 30         nextreg $30,a
211+  8C9F C9               ret
212+  8CA0              sr_scrollmax:
213+  8CA0 21 02 45         ld hl,LEVEL_Y_START_ADDRESS+2
214+  8CA3 11 00 45         ld de,LEVEL_Y_START_ADDRESS
215+  8CA6 01 00 05         ld bc,20*32*2
216+  8CA9 ED B0            ldir
217+  8CAB
218+  8CAB 21 EA 86         ld hl,metalevel
219+  8CAE 3A 6C 8B         ld a,(cam_edge_r)
220+  8CB1 ED 31            add hl,a
221+  8CB3 11 4E 45         ld de,LEVEL_Y_START_ADDRESS+78
222+  8CB6 06 08            ld b,LEVEL_HEIGHT_META
223+  8CB8
224+  8CB8 3A 76 8C         ld a,(meta_tile_offset)
225+  8CBB FE 00            cp 0
226+  8CBD CA C3 8C         jp z,sr_putcolumn1
227+  8CC0 C2 01 8D         jp nz,sr_putcolumn2
228+  8CC3              sr_putcolumn1:
229+  8CC3 7E               ld a,(hl)
230+  8CC4 87               add a,a
231+  8CC5 87               add a,a
232+  8CC6 E5               push hl
233+  8CC7 21 6A 89         ld hl,metatiles
234+  8CCA ED 31            add hl,a
235+  8CCC ED 31            add hl,a
236+  8CCE 7E               ld a,(hl)
237+  8CCF 12               ld (de),a ;Aa
238+  8CD0 23               inc hl
239+  8CD1 13               inc de
240+  8CD2 7E               ld a,(hl)
241+  8CD3 12               ld (de),a ;Ab
242+  8CD4 E1               pop hl
243+  8CD5 ED 35 4F 00      add de,(VIEW_WIDTH*2)-1 ;WIDTH-1
244+  8CD9 7E               ld a,(hl)
245+  8CDA 87               add a,a
246+  8CDB 87               add a,a
247+  8CDC E5               push hl
248+  8CDD 21 6A 89         ld hl,metatiles
249+  8CE0 ED 31            add hl,a
250+  8CE2 C6 04            add a,4
251+  8CE4 ED 31            add hl,a
252+  8CE6 7E               ld a,(hl)
253+  8CE7 12               ld (de),a ;Ca
254+  8CE8 23               inc hl
255+  8CE9 13               inc de
256+  8CEA 7E               ld a,(hl)
257+  8CEB 12               ld (de),a ;Ca
258+  8CEC E1               pop hl
259+  8CED ED 35 4F 00      add de,(VIEW_WIDTH*2)-1
260+  8CF1 ED 34 50 00      add hl,LEVEL_WIDTH_META
261+  8CF5 10 CC            djnz sr_putcolumn1
262+  8CF7
263+  8CF7 3E 01            ld a,1
264+  8CF9 32 76 8C         ld (meta_tile_offset),a
265+  8CFC
266+  8CFC AF               xor a
267+  8CFD 32 6A 8B         ld (current_scroll),a
268+  8D00
269+  8D00 C9               ret
270+  8D01              sr_putcolumn2:
271+  8D01 7E               ld a,(hl)
272+  8D02 87               add a,a
273+  8D03 87               add a,a
274+  8D04 E5               push hl
275+  8D05 21 6A 89         ld hl,metatiles
276+  8D08 ED 31            add hl,a
277+  8D0A C6 02            add a,2
278+  8D0C ED 31            add hl,a
279+  8D0E 7E               ld a,(hl)
280+  8D0F 12               ld (de),a ;Ba
281+  8D10 23               inc hl
282+  8D11 13               inc de
283+  8D12 7E               ld a,(hl)
284+  8D13 12               ld (de),a ;Bb
285+  8D14 E1               pop hl
286+  8D15 ED 35 4F 00      add de,(VIEW_WIDTH*2)-1 ;WIDTH-1
287+  8D19 7E               ld a,(hl)
288+  8D1A 87               add a,a
289+  8D1B 87               add a,a
290+  8D1C E5               push hl
291+  8D1D 21 6A 89         ld hl,metatiles
292+  8D20 ED 31            add hl,a
293+  8D22 C6 06            add a,6
294+  8D24 ED 31            add hl,a
295+  8D26 7E               ld a,(hl)
296+  8D27 12               ld (de),a ;Da
297+  8D28 23               inc hl
298+  8D29 13               inc de
299+  8D2A 7E               ld a,(hl)
300+  8D2B 12               ld (de),a ;Db
301+  8D2C E1               pop hl
302+  8D2D ED 35 4F 00      add de,(VIEW_WIDTH*2)-1
303+  8D31 ED 34 50 00      add hl,LEVEL_WIDTH_META
304+  8D35 10 CA            djnz sr_putcolumn2
305+  8D37
306+  8D37
307+  8D37 3E 00            ld a,0
308+  8D39 32 76 8C         ld (meta_tile_offset),a
309+  8D3C
310+  8D3C
311+  8D3C 3A 6C 8B         ld a,(cam_edge_r)
312+  8D3F 3C               inc a
313+  8D40 32 6C 8B         ld (cam_edge_r),a
314+  8D43
315+  8D43 AF               xor a
316+  8D44 32 6A 8B         ld (current_scroll),a
317+  8D47
318+  8D47 C9               ret
319+  8D48
320+  8D48
321+  8D48
322+  8D48
323+  8D48
324+  8D48
325+  8D48
326+  8D48
327+  8D48
328+  8D48
329+  8D48
330+  8D48
331+  8D48
332+  8D48              ; scroll_right_old:
333+  8D48              ;     ld a,RIGHT
334+  8D48              ;     ld (scroll_direction),a
335+  8D48
336+  8D48              ;     ld a,(cam_edge_r)
337+  8D48              ;     sub VIEW_WIDTH_META
338+  8D48              ;     ld (cam_x),a
339+  8D48
340+  8D48              ;     ld a,(cam_edge_r)
341+  8D48              ;     cp LEVEL_WIDTH_META
342+  8D48              ;     jp nc, p_move_right
343+  8D48
344+  8D48              ;     ld a,(current_scroll)
345+  8D48              ;     inc a
346+  8D48              ;     cp 8
347+  8D48              ;     ld (current_scroll),a
348+  8D48              ;     call z,sr_scrollmax
349+  8D48              ;     ld (current_scroll),a
350+  8D48              ;     nextreg $30,a
351+  8D48              ;     ret
352+  8D48              ; sr_scrollmax:
353+  8D48              ;     ld hl,LEVEL_Y_START_ADDRESS+1
354+  8D48              ;     ld de,LEVEL_Y_START_ADDRESS
355+  8D48              ;     ld bc,20*32
356+  8D48              ;     ldir
357+  8D48              ;     ld hl,metalevel
358+  8D48              ;     ld a,(cam_edge_r)
359+  8D48              ;     add hl,a
360+  8D48              ;     ld de,LEVEL_Y_START_ADDRESS+39 ;top right cell
361+  8D48              ;     ld b,LEVEL_HEIGHT_META
362+  8D48
363+  8D48              ;     ld a,(meta_tile_offset)
364+  8D48              ;     cp 0
365+  8D48              ;     jp z,sr_putcolumn
366+  8D48              ;     jp nz,sr_putcolumn_2nd
367+  8D48              ; sr_putcolumn:
368+  8D48              ;     ld a,(hl)
369+  8D48              ;     add a,a
370+  8D48              ;     add a,a ;A*4
371+  8D48              ;     push hl
372+  8D48              ;     ld hl,metatiles
373+  8D48              ;     add hl,a
374+  8D48              ;     add hl,a
375+  8D48              ;     ld a,(hl)
376+  8D48              ;     ld (de),a
377+  8D48              ;     inc hl
378+  8D48              ;     inc de
379+  8D48              ;     ld a,(hl)
380+  8D48              ;     pop hl
381+  8D48              ;     ld (de),a
382+  8D48              ;     add de,VIEW_WIDTH-1
383+  8D48              ;     ld a,(hl)
384+  8D48              ;     add a,a
385+  8D48              ;     add a,a ;A*4
386+  8D48              ;     push hl
387+  8D48              ;     ld hl,metatiles
388+  8D48              ;     add hl,a
389+  8D48              ;     add a,4 ; halfway thru the metatile
390+  8D48              ;     add hl,a
391+  8D48              ;     ld a,(hl)
392+  8D48              ;     ld (de),a
393+  8D48              ;     inc hl
394+  8D48              ;     inc de
395+  8D48              ;     ld a,(hl)
396+  8D48              ;     pop hl
397+  8D48              ;     ld (de),a
398+  8D48              ;     add de,VIEW_WIDTH-1
399+  8D48              ;     add hl,LEVEL_WIDTH_META
400+  8D48              ;     djnz sr_putcolumn
401+  8D48
402+  8D48              ;     ld a,1
403+  8D48              ;     ld (meta_tile_offset),a
404+  8D48
405+  8D48              ;     xor a
406+  8D48              ;     ld (current_scroll),a
407+  8D48
408+  8D48              ;     ret
409+  8D48              ; sr_putcolumn_2nd:
410+  8D48              ;    ld a,(hl)
411+  8D48              ;     add a,a
412+  8D48              ;     add a,a ;A*4
413+  8D48              ;     push hl
414+  8D48              ;     ld hl,metatiles
415+  8D48              ;     add hl,a
416+  8D48              ;     add a,2
417+  8D48              ;     add hl,a
418+  8D48              ;     ld a,(hl)
419+  8D48              ;     ld (de),a
420+  8D48              ;     inc hl
421+  8D48              ;     inc de
422+  8D48              ;     ld a,(hl)
423+  8D48              ;     pop hl
424+  8D48              ;     ld (de),a
425+  8D48              ;     add de,VIEW_WIDTH-1
426+  8D48              ;     ld a,(hl)
427+  8D48              ;     add a,a
428+  8D48              ;     add a,a ;A*4
429+  8D48              ;     push hl
430+  8D48              ;     ld hl,metatiles
431+  8D48              ;     add hl,a
432+  8D48              ;     add a,6 ; halfway thru the metatile
433+  8D48              ;     add hl,a
434+  8D48              ;     ld a,(hl)
435+  8D48              ;     ld (de),a
436+  8D48              ;     inc hl
437+  8D48              ;     inc de
438+  8D48              ;     ld a,(hl)
439+  8D48              ;     pop hl
440+  8D48              ;     ld (de),a
441+  8D48              ;     add de,VIEW_WIDTH-1
442+  8D48              ;     add hl,LEVEL_WIDTH_META
443+  8D48              ;     djnz sr_putcolumn_2nd
444+  8D48
445+  8D48
446+  8D48              ;     ld a,(cam_edge_r)
447+  8D48              ;     inc a
448+  8D48              ;     ld (cam_edge_r),a
449+  8D48
450+  8D48              ;     ld a,0
451+  8D48              ;     ld (meta_tile_offset),a
452+  8D48
453+  8D48              ;     xor a
454+  8D48              ;     ld (current_scroll),a
455+  8D48
456+  8D48              ;     ret
457+  8D48
458+  8D48
459+  8D48
460+  8D48
461+  8D48
462+  8D48
463+  8D48
464+  8D48              ; scroll_left:
465+  8D48              ;     ld a,LEFT
466+  8D48              ;     ld (scroll_direction),a
467+  8D48
468+  8D48              ;     ld a,(cam_edge_r)
469+  8D48              ;     cp LEVEL_START+VIEW_WIDTH+1
470+  8D48              ;     jp c, p_move_left
471+  8D48
472+  8D48              ;     ld a,(cam_edge_r)
473+  8D48              ;     sub VIEW_WIDTH
474+  8D48              ;     ld (cam_x),a
475+  8D48
476+  8D48              ;     ld a,(current_scroll)
477+  8D48              ;     inc a
478+  8D48              ;     cp 8
479+  8D48              ;     call z,drawcolumn_left
480+  8D48              ;     ld (current_scroll),a
481+  8D48              ;     ld b,a
482+  8D48              ;     ld a,8
483+  8D48              ;     sub b
484+  8D48              ;     nextreg $30,a
485+  8D48              ;     ret
486+  8D48              ; drawcolumn_left:
487+  8D48              ;     ; ld hl,$4000+1279
488+  8D48              ;     ; ld de,$4001+1279
489+  8D48              ;     ld hl,$44FF
490+  8D48              ;     ld de,$4500
491+  8D48              ;     ld bc,40*32
492+  8D48              ;     lddr  ; move whole screen to right 1 tile
493+  8D48              ;     ld hl,level1            ; start of tiles
494+  8D48              ;     ld a,(cam_x)           ; current cam_edge_r
495+  8D48              ;     dec a
496+  8D48              ;     add hl,a                ; add this to tile cam_edge_r
497+  8D48              ;     ; dec a                   ; dec the cam_edge_r
498+  8D48              ;     add a,VIEW_WIDTH
499+  8D48              ;     ld (cam_edge_r),a
500+  8D48              ;     ld de,$4000              ; top left cell
501+  8D48              ;     ld b,VIEW_HEIGHT
502+  8D48              ; columnloop_left:
503+  8D48              ;     ld a,(hl)                   ; get tile from (hl)
504+  8D48              ;     ld (de),a                   ; put in (de)
505+  8D48              ;     add de,VIEW_WIDTH                  ; move de to next line
506+  8D48              ;     add hl,WORLD_WIDTH          ; move hl to next map line
507+  8D48              ;     djnz columnloop_left             ; loop for 32 lines
508+  8D48              ;     xor a
509+  8D48              ;     ld (current_scroll),a
510+  8D48              ;     ret
511+  8D48
512+  8D48
513+  8D48
514+  8D48              ; scroll_right:
515+  8D48              ;     ld a,RIGHT
516+  8D48              ;     ld (scroll_direction),a
517+  8D48
518+  8D48              ;     ld a,(cam_edge_r)
519+  8D48              ;     cp WORLD_WIDTH
520+  8D48              ;     jp nc, p_move_right
521+  8D48              ;     ld a,(current_scroll)
522+  8D48              ;     inc a
523+  8D48              ;     cp 8
524+  8D48              ;     call z,nowdrawcolumn
525+  8D48              ;     ld (current_scroll),a
526+  8D48              ;     nextreg $30,a
527+  8D48              ;     ret
528+  8D48              ; nowdrawcolumn:
529+  8D48              ;     ld hl,$4001
530+  8D48              ;     ld de,$4000
531+  8D48              ;     ld bc,1280
532+  8D48              ;     ldir  ; move whole screen to left 1 tile
533+  8D48              ;     ld hl,level1            ; start of tiles
534+  8D48              ;     ld a,(cam_edge_r)           ; current cam_edge_r
535+  8D48              ;     add hl,a                ; add this to tile cam_edge_r
536+  8D48              ;     inc a                   ; inc the cam_edge_r
537+  8D48              ;     ld (cam_edge_r),a
538+  8D48              ;     ld de,$4027              ; top right cell
539+  8D48              ;     ld b,VIEW_HEIGHT
540+  8D48              ; columnloop:
541+  8D48              ;     ld a,(hl)                   ; get tile from (hl)
542+  8D48              ;     ld (de),a                   ; put in (de)
543+  8D48              ;     add de,VIEW_WIDTH                  ; move de to next line
544+  8D48              ;     add hl,WORLD_WIDTH          ; move hl to next map line
545+  8D48              ;     djnz columnloop             ; loop for 32 lines
546+  8D48              ;     xor a
547+  8D48              ;     ld (current_scroll),a
548+  8D48              ;     ret
549+  8D48
550+  8D48
551+  8D48
552+  8D48
553+  8D48
554+  8D48
555+  8D48
556+  8D48
557+  8D48
558+  8D48
559+  8D48
560+  8D48
# file closed: src/levels/levelmanager.asm
 37   8D48              	include 'assets\sprites.asm'
# file opened: src/assets/sprites.asm
  1+  8D48              ; Sprite Attribute 0
  2+  8D48              ;     X X X X X X X X
  3+  8D48
  4+  8D48              ; Sprite Attribute 1
  5+  8D48              ;     Y Y Y Y Y Y Y Y
  6+  8D48
  7+  8D48              ; Sprite Attribute 2
  8+  8D48              ;     P P P P XM YM R X8/PR
  9+  8D48
 10+  8D48              ; Sprite Attribute 3
 11+  8D48              ;     V E N5 N4 N3 N2 N1 N0 (NNNNN=Pattern ID)
 12+  8D48
 13+  8D48              ; Sprite Attribute 4
 14+  8D48              ; A. Extended Anchor Sprite
 15+  8D48              ;     H N6 T X X Y Y Y8
 16+  8D48              ; B. Relative Sprite, Composite Type
 17+  8D48              ;     0 1 N6 X X Y Y PO
 18+  8D48              ; C. Relative Sprite, Unified Type
 19+  8D48              ;     0 1 N6 0 0 0 0 PO
 20+  8D48
 21+  8D48
 22+  8D48
# file closed: src/assets/sprites.asm
 38   8D48
 39   8D48
 40   8D48              	include 'loadbins.asm'
# file opened: src/loadbins.asm
  1+  8D48
  2+  8D48
  3+  8D48              ;;;;;Tiles
  4+  8D48
  5+  8D48
  6+  8D48
  7+  8D48
  8+  8D48
  9+  8D48              caveman_palette:
 10+  8D48                  incbin 'assets/cavemantiles.nxp',0
 11+  8D62
 12+  8D62                  MMU 6,16
 13+  8D62                  org $c000
 14+  C000
 15+  C000                  incbin 'assets/cavemantiles.til',0,TILE_DEFINITIONS_SIZE
 16+  D000
 17+  D000
 18+  D000
 19+  D000
 20+  D000              ;;;sprites
 21+  D000              SPRITE_SEGMENTS equ 4
 22+  D000              SPRITE_COUNT equ 20
 23+  D000              SPRITE_PLAYER_COUNT equ 16
 24+  D000              SPRITE_PUMPKIN_START equ 16
 25+  D000              SPRITE_PUMPKIN_COUNT equ 2
 26+  D000
 27+  D000
 28+  D000
 29+  D000                  MMU 6,14
 30+  D000                  org $c000
 31+  C000
 32+  C000              spikealot_A_1:
 33+  C000 E3 E3 E3 E3  	db  $E3, $E3, $E3, $E3, $E3, $E3, $E3, $E3, $E3, $E3, $E3, $6E, $B6, $49, $00, $E3;
 33+  C004 E3 E3 E3 E3
 33+  C008 E3 E3 E3 6E
 33+  C00C B6 49 00 E3
 34+  C010 E3 E3 E3 E3  	db  $E3, $E3, $E3, $E3, $E3, $E3, $E3, $E3, $E3, $E3, $49, $B6, $B6, $B6, $6E, $49;
 34+  C014 E3 E3 E3 E3
 34+  C018 E3 E3 49 B6
 34+  C01C B6 B6 6E 49
 35+  C020 E3 E3 E3 E3  	db  $E3, $E3, $E3, $E3, $E3, $E3, $E3, $E3, $E3, $E3, $92, $B6, $B6, $B6, $B6, $6E;
 35+  C024 E3 E3 E3 E3
 35+  C028 E3 E3 92 B6
 35+  C02C B6 B6 B6 6E
 36+  C030 E3 E3 E3 E3  	db  $E3, $E3, $E3, $E3, $E3, $E3, $E3, $E3, $E3, $E3, $00, $49, $49, $92, $B6, $B6;
 36+  C034 E3 E3 E3 E3
 36+  C038 E3 E3 00 49
 36+  C03C 49 92 B6 B6
 37+  C040 E3 E3 E3 E3  	db  $E3, $E3, $E3, $E3, $E3, $E3, $E3, $E3, $E3, $E3, $49, $6E, $92, $6E, $49, $6E;
 37+  C044 E3 E3 E3 E3
 37+  C048 E3 E3 49 6E
 37+  C04C 92 6E 49 6E
 38+  C050 E3 E3 E3 E3  	db  $E3, $E3, $E3, $E3, $E3, $E3, $E3, $E3, $E3, $E3, $49, $92, $B6, $92, $92, $49;
 38+  C054 E3 E3 E3 E3
 38+  C058 E3 E3 49 92
 38+  C05C B6 92 92 49
 39+  C060 E3 E3 E3 E3  	db  $E3, $E3, $E3, $E3, $E3, $E3, $E3, $E3, $E3, $E3, $00, $48, $B1, $48, $48, $48;
 39+  C064 E3 E3 E3 E3
 39+  C068 E3 E3 00 48
 39+  C06C B1 48 48 48
 40+  C070 E3 E3 E3 E3  	db  $E3, $E3, $E3, $E3, $E3, $E3, $E3, $E3, $E3, $E3, $48, $68, $D6, $92, $0E, $B6;
 40+  C074 E3 E3 E3 E3
 40+  C078 E3 E3 48 68
 40+  C07C D6 92 0E B6
 41+  C080 E3 E3 E3 E3  	db  $E3, $E3, $E3, $E3, $E3, $E3, $E3, $E3, $E3, $E3, $68, $D6, $D6, $D6, $D6, $D6;
 41+  C084 E3 E3 E3 E3
 41+  C088 E3 E3 68 D6
 41+  C08C D6 D6 D6 D6
 42+  C090 E3 E3 E3 E3  	db  $E3, $E3, $E3, $E3, $E3, $E3, $E3, $E3, $E3, $49, $00, $68, $68, $68, $68, $B1;
 42+  C094 E3 E3 E3 E3
 42+  C098 E3 49 00 68
 42+  C09C 68 68 68 B1
 43+  C0A0 E3 E3 E3 E3  	db  $E3, $E3, $E3, $E3, $E3, $E3, $E3, $E3, $E3, $6E, $48, $68, $68, $68, $68, $68;
 43+  C0A4 E3 E3 E3 E3
 43+  C0A8 E3 6E 48 68
 43+  C0AC 68 68 68 68
 44+  C0B0 E3 E3 E3 E3  	db  $E3, $E3, $E3, $E3, $E3, $E3, $E3, $E3, $E3, $92, $68, $68, $48, $68, $48, $49;
 44+  C0B4 E3 E3 E3 E3
 44+  C0B8 E3 92 68 68
 44+  C0BC 48 68 48 49
 45+  C0C0 E3 E3 E3 E3  	db  $E3, $E3, $E3, $E3, $E3, $E3, $E3, $E3, $E3, $6E, $48, $48, $48, $49, $49, $6E;
 45+  C0C4 E3 E3 E3 E3
 45+  C0C8 E3 6E 48 48
 45+  C0CC 48 49 49 6E
 46+  C0D0 E3 E3 E3 E3  	db  $E3, $E3, $E3, $E3, $E3, $E3, $E3, $E3, $E3, $49, $B6, $6E, $49, $92, $92, $92;
 46+  C0D4 E3 E3 E3 E3
 46+  C0D8 E3 49 B6 6E
 46+  C0DC 49 92 92 92
 47+  C0E0 E3 E3 E3 E3  	db  $E3, $E3, $E3, $E3, $E3, $E3, $E3, $6E, $49, $00, $B6, $B6, $92, $B6, $B6, $B6;
 47+  C0E4 E3 E3 E3 6E
 47+  C0E8 49 00 B6 B6
 47+  C0EC 92 B6 B6 B6
 48+  C0F0 E3 E3 E3 E3  	db  $E3, $E3, $E3, $E3, $E3, $E3, $6E, $B6, $6E, $00, $49, $B6, $B6, $B6, $92, $6E;
 48+  C0F4 E3 E3 6E B6
 48+  C0F8 6E 00 49 B6
 48+  C0FC B6 B6 92 6E
 49+  C100
 50+  C100              spikealot_A_2:
 51+  C100 E3 E3 E3 E3  	db  $E3, $E3, $E3, $E3, $E3, $E3, $E3, $E3, $E3, $E3, $E3, $E3, $E3, $E3, $E3, $E3;
 51+  C104 E3 E3 E3 E3
 51+  C108 E3 E3 E3 E3
 51+  C10C E3 E3 E3 E3
 52+  C110 E3 E3 E3 E3  	db  $E3, $E3, $E3, $E3, $E3, $E3, $E3, $E3, $E3, $E3, $E3, $E3, $E3, $E3, $E3, $E3;
 52+  C114 E3 E3 E3 E3
 52+  C118 E3 E3 E3 E3
 52+  C11C E3 E3 E3 E3
 53+  C120 49 00 E3 E3  	db  $49, $00, $E3, $E3, $E3, $E3, $E3, $E3, $E3, $E3, $E3, $E3, $E3, $E3, $E3, $E3;
 53+  C124 E3 E3 E3 E3
 53+  C128 E3 E3 E3 E3
 53+  C12C E3 E3 E3 E3
 54+  C130 49 49 00 E3  	db  $49, $49, $00, $E3, $E3, $E3, $E3, $E3, $E3, $E3, $E3, $E3, $E3, $E3, $E3, $E3;
 54+  C134 E3 E3 E3 E3
 54+  C138 E3 E3 E3 E3
 54+  C13C E3 E3 E3 E3
 55+  C140 92 49 00 E3  	db  $92, $49, $00, $E3, $E3, $E3, $E3, $E3, $E3, $E3, $E3, $E3, $E3, $E3, $E3, $E3;
 55+  C144 E3 E3 E3 E3
 55+  C148 E3 E3 E3 E3
 55+  C14C E3 E3 E3 E3
 56+  C150 6E 49 49 00  	db  $6E, $49, $49, $00, $E3, $E3, $E3, $E3, $E3, $E3, $E3, $E3, $E3, $E3, $E3, $E3;
 56+  C154 E3 E3 E3 E3
 56+  C158 E3 E3 E3 E3
 56+  C15C E3 E3 E3 E3
 57+  C160 49 49 49 00  	db  $49, $49, $49, $00, $E3, $E3, $E3, $E3, $E3, $E3, $E3, $E3, $E3, $E3, $E3, $E3;
 57+  C164 E3 E3 E3 E3
 57+  C168 E3 E3 E3 E3
 57+  C16C E3 E3 E3 E3
 58+  C170 6E 49 49 00  	db  $6E, $49, $49, $00, $00, $E3, $E3, $E3, $E3, $E3, $E3, $E3, $E3, $E3, $E3, $E3;
 58+  C174 00 E3 E3 E3
 58+  C178 E3 E3 E3 E3
 58+  C17C E3 E3 E3 E3
 59+  C180 6E 49 00 49  	db  $6E, $49, $00, $49, $49, $00, $00, $E3, $E3, $E3, $E3, $E3, $E3, $E3, $E3, $E3;
 59+  C184 49 00 00 E3
 59+  C188 E3 E3 E3 E3
 59+  C18C E3 E3 E3 E3
 60+  C190 49 00 49 6E  	db  $49, $00, $49, $6E, $92, $B6, $49, $00, $E3, $E3, $E3, $E3, $E3, $E3, $E3, $E3;
 60+  C194 92 B6 49 00
 60+  C198 E3 E3 E3 E3
 60+  C19C E3 E3 E3 E3
 61+  C1A0 49 49 6E 92  	db  $49, $49, $6E, $92, $B6, $B6, $B6, $49, $00, $E3, $E3, $E3, $E3, $E3, $E3, $E3;
 61+  C1A4 B6 B6 B6 49
 61+  C1A8 00 E3 E3 E3
 61+  C1AC E3 E3 E3 E3
 62+  C1B0 6E 00 6E 92  	db  $6E, $00, $6E, $92, $92, $B6, $B6, $92, $00, $E3, $E3, $E3, $E3, $E3, $E3, $E3;
 62+  C1B4 92 B6 B6 92
 62+  C1B8 00 E3 E3 E3
 62+  C1BC E3 E3 E3 E3
 63+  C1C0 92 00 49 92  	db  $92, $00, $49, $92, $6E, $49, $00, $00, $00, $E3, $E3, $E3, $E3, $E3, $E3, $E3;
 63+  C1C4 6E 49 00 00
 63+  C1C8 00 E3 E3 E3
 63+  C1CC E3 E3 E3 E3
 64+  C1D0 6E 49 00 00  	db  $6E, $49, $00, $00, $00, $00, $6E, $49, $00, $E3, $E3, $E3, $E3, $E3, $E3, $E3;
 64+  C1D4 00 00 6E 49
 64+  C1D8 00 E3 E3 E3
 64+  C1DC E3 E3 E3 E3
 65+  C1E0 6E 00 00 00  	db  $6E, $00, $00, $00, $6E, $B6, $B6, $6E, $00, $E3, $E3, $E3, $E3, $E3, $E3, $E3;
 65+  C1E4 6E B6 B6 6E
 65+  C1E8 00 E3 E3 E3
 65+  C1EC E3 E3 E3 E3
 66+  C1F0 00 00 49 00  	db  $00, $00, $49, $00, $6E, $92, $B6, $49, $00, $E3, $E3, $E3, $E3, $E3, $E3, $E3;
 66+  C1F4 6E 92 B6 49
 66+  C1F8 00 E3 E3 E3
 66+  C1FC E3 E3 E3 E3
 67+  C200
 68+  C200              spikealot_A_3:
 69+  C200 E3 E3 E3 E3  	db  $E3, $E3, $E3, $E3, $E3, $E3, $6E, $92, $92, $00, $6E, $49, $6E, $6E, $49, $49;
 69+  C204 E3 E3 6E 92
 69+  C208 92 00 6E 49
 69+  C20C 6E 6E 49 49
 70+  C210 E3 E3 E3 E3  	db  $E3, $E3, $E3, $E3, $E3, $E3, $49, $6E, $6E, $00, $6E, $B6, $6E, $92, $B6, $6E;
 70+  C214 E3 E3 49 6E
 70+  C218 6E 00 6E B6
 70+  C21C 6E 92 B6 6E
 71+  C220 E3 E3 E3 E3  	db  $E3, $E3, $E3, $E3, $E3, $E3, $E3, $E3, $49, $6E, $00, $B6, $6E, $B6, $6E, $49;
 71+  C224 E3 E3 E3 E3
 71+  C228 49 6E 00 B6
 71+  C22C 6E B6 6E 49
 72+  C230 E3 E3 E3 E3  	db  $E3, $E3, $E3, $E3, $E3, $E3, $E3, $E3, $00, $00, $60, $00, $88, $88, $00, $88;
 72+  C234 E3 E3 E3 E3
 72+  C238 00 00 60 00
 72+  C23C 88 88 00 88
 73+  C240 E3 E3 E3 E3  	db  $E3, $E3, $E3, $E3, $E3, $E3, $E3, $E3, $E3, $E3, $49, $00, $60, $60, $00, $60;
 73+  C244 E3 E3 E3 E3
 73+  C248 E3 E3 49 00
 73+  C24C 60 60 00 60
 74+  C250 E3 E3 E3 E3  	db  $E3, $E3, $E3, $E3, $E3, $E3, $E3, $E3, $E3, $E3, $49, $6E, $49, $49, $49, $49;
 74+  C254 E3 E3 E3 E3
 74+  C258 E3 E3 49 6E
 74+  C25C 49 49 49 49
 75+  C260 E3 E3 E3 E3  	db  $E3, $E3, $E3, $E3, $E3, $E3, $E3, $E3, $E3, $E3, $49, $B6, $B6, $92, $92, $00;
 75+  C264 E3 E3 E3 E3
 75+  C268 E3 E3 49 B6
 75+  C26C B6 92 92 00
 76+  C270 E3 E3 E3 E3  	db  $E3, $E3, $E3, $E3, $E3, $E3, $E3, $E3, $E3, $E3, $E3, $00, $B6, $00, $92, $92;
 76+  C274 E3 E3 E3 E3
 76+  C278 E3 E3 E3 00
 76+  C27C B6 00 92 92
 77+  C280 E3 E3 E3 E3  	db  $E3, $E3, $E3, $E3, $E3, $E3, $E3, $E3, $E3, $E3, $E3, $E3, $00, $6E, $B6, $B6;
 77+  C284 E3 E3 E3 E3
 77+  C288 E3 E3 E3 E3
 77+  C28C 00 6E B6 B6
 78+  C290 E3 E3 E3 E3  	db  $E3, $E3, $E3, $E3, $E3, $E3, $E3, $E3, $E3, $E3, $E3, $E3, $E3, $92, $B6, $92;
 78+  C294 E3 E3 E3 E3
 78+  C298 E3 E3 E3 E3
 78+  C29C E3 92 B6 92
 79+  C2A0 E3 E3 E3 E3  	db  $E3, $E3, $E3, $E3, $E3, $E3, $E3, $E3, $E3, $E3, $E3, $E3, $E3, $00, $00, $00;
 79+  C2A4 E3 E3 E3 E3
 79+  C2A8 E3 E3 E3 E3
 79+  C2AC E3 00 00 00
 80+  C2B0 E3 E3 E3 E3  	db  $E3, $E3, $E3, $E3, $E3, $E3, $E3, $E3, $E3, $E3, $E3, $E3, $92, $B6, $92, $49;
 80+  C2B4 E3 E3 E3 E3
 80+  C2B8 E3 E3 E3 E3
 80+  C2BC 92 B6 92 49
 81+  C2C0 E3 E3 E3 E3  	db  $E3, $E3, $E3, $E3, $E3, $E3, $E3, $E3, $E3, $E3, $E3, $E3, $92, $B6, $92, $49;
 81+  C2C4 E3 E3 E3 E3
 81+  C2C8 E3 E3 E3 E3
 81+  C2CC 92 B6 92 49
 82+  C2D0 E3 E3 E3 E3  	db  $E3, $E3, $E3, $E3, $E3, $E3, $E3, $E3, $E3, $E3, $6E, $92, $B6, $B6, $92, $6E;
 82+  C2D4 E3 E3 E3 E3
 82+  C2D8 E3 E3 6E 92
 82+  C2DC B6 B6 92 6E
 83+  C2E0 E3 E3 E3 E3  	db  $E3, $E3, $E3, $E3, $E3, $E3, $E3, $E3, $E3, $6E, $92, $92, $92, $92, $92, $92;
 83+  C2E4 E3 E3 E3 E3
 83+  C2E8 E3 6E 92 92
 83+  C2EC 92 92 92 92
 84+  C2F0 E3 E3 E3 E3  	db  $E3, $E3, $E3, $E3, $E3, $E3, $E3, $E3, $E3, $E3, $00, $00, $00, $00, $00, $00;
 84+  C2F4 E3 E3 E3 E3
 84+  C2F8 E3 E3 00 00
 84+  C2FC 00 00 00 00
 85+  C300
 86+  C300              spikealot_A_4:
 87+  C300 49 49 49 49  	db  $49, $49, $49, $49, $00, $00, $6E, $00, $E3, $E3, $E3, $E3, $E3, $E3, $E3, $E3;
 87+  C304 00 00 6E 00
 87+  C308 E3 E3 E3 E3
 87+  C30C E3 E3 E3 E3
 88+  C310 49 49 6E B6  	db  $49, $49, $6E, $B6, $92, $00, $49, $00, $E3, $E3, $E3, $E3, $E3, $E3, $E3, $E3;
 88+  C314 92 00 49 00
 88+  C318 E3 E3 E3 E3
 88+  C31C E3 E3 E3 E3
 89+  C320 B6 92 B6 B6  	db  $B6, $92, $B6, $B6, $B6, $92, $00, $E3, $E3, $E3, $E3, $E3, $E3, $E3, $E3, $E3;
 89+  C324 B6 92 00 E3
 89+  C328 E3 E3 E3 E3
 89+  C32C E3 E3 E3 E3
 90+  C330 B6 B6 B6 B6  	db  $B6, $B6, $B6, $B6, $6E, $00, $E3, $E3, $E3, $E3, $E3, $E3, $E3, $E3, $E3, $E3;
 90+  C334 6E 00 E3 E3
 90+  C338 E3 E3 E3 E3
 90+  C33C E3 E3 E3 E3
 91+  C340 92 B6 92 00  	db  $92, $B6, $92, $00, $00, $E3, $E3, $E3, $E3, $E3, $E3, $E3, $E3, $E3, $E3, $E3;
 91+  C344 00 E3 E3 E3
 91+  C348 E3 E3 E3 E3
 91+  C34C E3 E3 E3 E3
 92+  C350 49 6E 00 49  	db  $49, $6E, $00, $49, $00, $E3, $E3, $E3, $E3, $E3, $E3, $E3, $E3, $E3, $E3, $E3;
 92+  C354 00 E3 E3 E3
 92+  C358 E3 E3 E3 E3
 92+  C35C E3 E3 E3 E3
 93+  C360 00 00 6E 49  	db  $00, $00, $6E, $49, $00, $E3, $E3, $E3, $E3, $E3, $E3, $E3, $E3, $E3, $E3, $E3;
 93+  C364 00 E3 E3 E3
 93+  C368 E3 E3 E3 E3
 93+  C36C E3 E3 E3 E3
 94+  C370 6E 49 00 00  	db  $6E, $49, $00, $00, $E3, $E3, $E3, $E3, $E3, $E3, $E3, $E3, $E3, $E3, $E3, $E3;
 94+  C374 E3 E3 E3 E3
 94+  C378 E3 E3 E3 E3
 94+  C37C E3 E3 E3 E3
 95+  C380 92 6E 00 E3  	db  $92, $6E, $00, $E3, $E3, $E3, $E3, $E3, $E3, $E3, $E3, $E3, $E3, $E3, $E3, $E3;
 95+  C384 E3 E3 E3 E3
 95+  C388 E3 E3 E3 E3
 95+  C38C E3 E3 E3 E3
 96+  C390 6E 00 E3 E3  	db  $6E, $00, $E3, $E3, $E3, $E3, $E3, $E3, $E3, $E3, $E3, $E3, $E3, $E3, $E3, $E3;
 96+  C394 E3 E3 E3 E3
 96+  C398 E3 E3 E3 E3
 96+  C39C E3 E3 E3 E3
 97+  C3A0 49 00 E3 E3  	db  $49, $00, $E3, $E3, $E3, $E3, $E3, $E3, $E3, $E3, $E3, $E3, $E3, $E3, $E3, $E3;
 97+  C3A4 E3 E3 E3 E3
 97+  C3A8 E3 E3 E3 E3
 97+  C3AC E3 E3 E3 E3
 98+  C3B0 00 6E 00 E3  	db  $00, $6E, $00, $E3, $E3, $E3, $E3, $E3, $E3, $E3, $E3, $E3, $E3, $E3, $E3, $E3;
 98+  C3B4 E3 E3 E3 E3
 98+  C3B8 E3 E3 E3 E3
 98+  C3BC E3 E3 E3 E3
 99+  C3C0 00 92 00 E3  	db  $00, $92, $00, $E3, $E3, $E3, $E3, $E3, $E3, $E3, $E3, $E3, $E3, $E3, $E3, $E3;
 99+  C3C4 E3 E3 E3 E3
 99+  C3C8 E3 E3 E3 E3
 99+  C3CC E3 E3 E3 E3
100+  C3D0 00 92 92 00  	db  $00, $92, $92, $00, $E3, $E3, $E3, $E3, $E3, $E3, $E3, $E3, $E3, $E3, $E3, $E3;
100+  C3D4 E3 E3 E3 E3
100+  C3D8 E3 E3 E3 E3
100+  C3DC E3 E3 E3 E3
101+  C3E0 00 92 6E 49  	db  $00, $92, $6E, $49, $00, $E3, $E3, $E3, $E3, $E3, $E3, $E3, $E3, $E3, $E3, $E3;
101+  C3E4 00 E3 E3 E3
101+  C3E8 E3 E3 E3 E3
101+  C3EC E3 E3 E3 E3
102+  C3F0 6E 49 00 00  	db  $6E, $49, $00, $00, $E3, $E3, $E3, $E3, $E3, $E3, $E3, $E3, $E3, $E3, $E3, $E3;
102+  C3F4 E3 E3 E3 E3
102+  C3F8 E3 E3 E3 E3
102+  C3FC E3 E3 E3 E3
103+  C400
104+  C400
105+  C400
106+  C400
107+  C400              spikealot_B_1:
108+  C400 E3 E3 E3 E3  	db  $E3, $E3, $E3, $E3, $E3, $E3, $E3, $E3, $E3, $E3, $E3, $E3, $E3, $E3, $E3, $E3;
108+  C404 E3 E3 E3 E3
108+  C408 E3 E3 E3 E3
108+  C40C E3 E3 E3 E3
109+  C410 E3 E3 E3 E3  	db  $E3, $E3, $E3, $E3, $E3, $E3, $E3, $E3, $E3, $E3, $E3, $49, $B6, $6E, $49, $49;
109+  C414 E3 E3 E3 E3
109+  C418 E3 E3 E3 49
109+  C41C B6 6E 49 49
110+  C420 E3 E3 E3 E3  	db  $E3, $E3, $E3, $E3, $E3, $E3, $E3, $E3, $E3, $E3, $E3, $92, $B6, $B6, $B6, $92;
110+  C424 E3 E3 E3 E3
110+  C428 E3 E3 E3 92
110+  C42C B6 B6 B6 92
111+  C430 E3 E3 E3 E3  	db  $E3, $E3, $E3, $E3, $E3, $E3, $E3, $E3, $E3, $E3, $E3, $B6, $B6, $B6, $B6, $B6;
111+  C434 E3 E3 E3 E3
111+  C438 E3 E3 E3 B6
111+  C43C B6 B6 B6 B6
112+  C440 E3 E3 E3 E3  	db  $E3, $E3, $E3, $E3, $E3, $E3, $E3, $E3, $E3, $E3, $E3, $00, $49, $6E, $6E, $92;
112+  C444 E3 E3 E3 E3
112+  C448 E3 E3 E3 00
112+  C44C 49 6E 6E 92
113+  C450 E3 E3 E3 E3  	db  $E3, $E3, $E3, $E3, $E3, $E3, $E3, $E3, $E3, $E3, $E3, $49, $92, $B6, $92, $6E;
113+  C454 E3 E3 E3 E3
113+  C458 E3 E3 E3 49
113+  C45C 92 B6 92 6E
114+  C460 E3 E3 E3 E3  	db  $E3, $E3, $E3, $E3, $E3, $E3, $E3, $E3, $E3, $E3, $E3, $00, $48, $B1, $48, $48;
114+  C464 E3 E3 E3 E3
114+  C468 E3 E3 E3 00
114+  C46C 48 B1 48 48
115+  C470 E3 E3 E3 E3  	db  $E3, $E3, $E3, $E3, $E3, $E3, $E3, $E3, $E3, $E3, $E3, $48, $68, $D6, $92, $0E;
115+  C474 E3 E3 E3 E3
115+  C478 E3 E3 E3 48
115+  C47C 68 D6 92 0E
116+  C480 E3 E3 E3 E3  	db  $E3, $E3, $E3, $E3, $E3, $E3, $E3, $E3, $E3, $E3, $E3, $68, $D6, $D6, $D6, $D6;
116+  C484 E3 E3 E3 E3
116+  C488 E3 E3 E3 68
116+  C48C D6 D6 D6 D6
117+  C490 E3 E3 E3 E3  	db  $E3, $E3, $E3, $E3, $E3, $E3, $E3, $E3, $E3, $E3, $49, $00, $68, $68, $68, $68;
117+  C494 E3 E3 E3 E3
117+  C498 E3 E3 49 00
117+  C49C 68 68 68 68
118+  C4A0 E3 E3 E3 E3  	db  $E3, $E3, $E3, $E3, $E3, $E3, $E3, $E3, $E3, $E3, $6E, $48, $68, $68, $68, $68;
118+  C4A4 E3 E3 E3 E3
118+  C4A8 E3 E3 6E 48
118+  C4AC 68 68 68 68
119+  C4B0 E3 E3 E3 E3  	db  $E3, $E3, $E3, $E3, $E3, $E3, $E3, $E3, $E3, $E3, $92, $68, $68, $48, $68, $48;
119+  C4B4 E3 E3 E3 E3
119+  C4B8 E3 E3 92 68
119+  C4BC 68 48 68 48
120+  C4C0 E3 E3 E3 E3  	db  $E3, $E3, $E3, $E3, $E3, $E3, $E3, $E3, $E3, $E3, $6E, $48, $48, $48, $49, $49;
120+  C4C4 E3 E3 E3 E3
120+  C4C8 E3 E3 6E 48
120+  C4CC 48 48 49 49
121+  C4D0 E3 E3 E3 E3  	db  $E3, $E3, $E3, $E3, $E3, $E3, $E3, $E3, $E3, $E3, $49, $B6, $6E, $49, $92, $92;
121+  C4D4 E3 E3 E3 E3
121+  C4D8 E3 E3 49 B6
121+  C4DC 6E 49 92 92
122+  C4E0 E3 E3 E3 E3  	db  $E3, $E3, $E3, $E3, $E3, $E3, $E3, $E3, $E3, $E3, $00, $B6, $6E, $B6, $B6, $B6;
122+  C4E4 E3 E3 E3 E3
122+  C4E8 E3 E3 00 B6
122+  C4EC 6E B6 B6 B6
123+  C4F0 E3 E3 E3 E3  	db  $E3, $E3, $E3, $E3, $E3, $E3, $E3, $E3, $E3, $E3, $00, $49, $49, $B6, $B6, $B6;
123+  C4F4 E3 E3 E3 E3
123+  C4F8 E3 E3 00 49
123+  C4FC 49 B6 B6 B6
124+  C500
125+  C500
126+  C500
127+  C500              spikealot_B_2:
128+  C500 E3 E3 E3 E3  	db  $E3, $E3, $E3, $E3, $E3, $E3, $E3, $E3, $E3, $E3, $E3, $E3, $E3, $E3, $E3, $E3;
128+  C504 E3 E3 E3 E3
128+  C508 E3 E3 E3 E3
128+  C50C E3 E3 E3 E3
129+  C510 49 E3 E3 E3  	db  $49, $E3, $E3, $E3, $E3, $E3, $E3, $E3, $E3, $E3, $E3, $E3, $E3, $E3, $E3, $E3;
129+  C514 E3 E3 E3 E3
129+  C518 E3 E3 E3 E3
129+  C51C E3 E3 E3 E3
130+  C520 49 49 00 E3  	db  $49, $49, $00, $E3, $E3, $E3, $E3, $E3, $E3, $E3, $E3, $E3, $E3, $E3, $E3, $E3;
130+  C524 E3 E3 E3 E3
130+  C528 E3 E3 E3 E3
130+  C52C E3 E3 E3 E3
131+  C530 6E 49 49 00  	db  $6E, $49, $49, $00, $E3, $E3, $E3, $E3, $E3, $E3, $E3, $E3, $E3, $E3, $E3, $E3;
131+  C534 E3 E3 E3 E3
131+  C538 E3 E3 E3 E3
131+  C53C E3 E3 E3 E3
132+  C540 92 6E 49 00  	db  $92, $6E, $49, $00, $E3, $E3, $E3, $E3, $E3, $E3, $E3, $E3, $E3, $E3, $E3, $E3;
132+  C544 E3 E3 E3 E3
132+  C548 E3 E3 E3 E3
132+  C54C E3 E3 E3 E3
133+  C550 49 92 49 49  	db  $49, $92, $49, $49, $00, $E3, $E3, $E3, $E3, $E3, $E3, $E3, $E3, $E3, $E3, $E3;
133+  C554 00 E3 E3 E3
133+  C558 E3 E3 E3 E3
133+  C55C E3 E3 E3 E3
134+  C560 48 49 49 49  	db  $48, $49, $49, $49, $00, $E3, $E3, $E3, $E3, $E3, $E3, $E3, $E3, $E3, $E3, $E3;
134+  C564 00 E3 E3 E3
134+  C568 E3 E3 E3 E3
134+  C56C E3 E3 E3 E3
135+  C570 B6 6E 49 49  	db  $B6, $6E, $49, $49, $00, $E3, $E3, $E3, $E3, $E3, $E3, $E3, $E3, $E3, $E3, $E3;
135+  C574 00 E3 E3 E3
135+  C578 E3 E3 E3 E3
135+  C57C E3 E3 E3 E3
136+  C580 D6 6E 49 00  	db  $D6, $6E, $49, $00, $00, $00, $00, $E3, $E3, $E3, $E3, $E3, $E3, $E3, $E3, $E3;
136+  C584 00 00 00 E3
136+  C588 E3 E3 E3 E3
136+  C58C E3 E3 E3 E3
137+  C590 B1 49 00 49  	db  $B1, $49, $00, $49, $6E, $92, $49, $00, $E3, $E3, $E3, $E3, $E3, $E3, $E3, $E3;
137+  C594 6E 92 49 00
137+  C598 E3 E3 E3 E3
137+  C59C E3 E3 E3 E3
138+  C5A0 68 49 49 92  	db  $68, $49, $49, $92, $92, $B6, $B6, $49, $00, $E3, $E3, $E3, $E3, $E3, $E3, $E3;
138+  C5A4 92 B6 B6 49
138+  C5A8 00 E3 E3 E3
138+  C5AC E3 E3 E3 E3
139+  C5B0 49 00 6E 92  	db  $49, $00, $6E, $92, $B6, $B6, $B6, $92, $00, $E3, $E3, $E3, $E3, $E3, $E3, $E3;
139+  C5B4 B6 B6 B6 92
139+  C5B8 00 E3 E3 E3
139+  C5BC E3 E3 E3 E3
140+  C5C0 6E 00 6E 92  	db  $6E, $00, $6E, $92, $92, $6E, $B6, $92, $00, $E3, $E3, $E3, $E3, $E3, $E3, $E3;
140+  C5C4 92 6E B6 92
140+  C5C8 00 E3 E3 E3
140+  C5CC E3 E3 E3 E3
141+  C5D0 49 49 49 00  	db  $49, $49, $49, $00, $00, $00, $49, $92, $00, $E3, $E3, $E3, $E3, $E3, $E3, $E3;
141+  C5D4 00 00 49 92
141+  C5D8 00 E3 E3 E3
141+  C5DC E3 E3 E3 E3
142+  C5E0 92 49 00 49  	db  $92, $49, $00, $49, $92, $6E, $49, $00, $E3, $E3, $E3, $E3, $E3, $E3, $E3, $E3;
142+  C5E4 92 6E 49 00
142+  C5E8 E3 E3 E3 E3
142+  C5EC E3 E3 E3 E3
143+  C5F0 B6 92 00 6E  	db  $B6, $92, $00, $6E, $B6, $B6, $6E, $00, $E3, $E3, $E3, $E3, $E3, $E3, $E3, $E3;
143+  C5F4 B6 B6 6E 00
143+  C5F8 E3 E3 E3 E3
143+  C5FC E3 E3 E3 E3
144+  C600
145+  C600
146+  C600
147+  C600              spikealot_B_3:
148+  C600 E3 E3 E3 E3  	db  $E3, $E3, $E3, $E3, $E3, $E3, $E3, $E3, $E3, $E3, $00, $92, $49, $6E, $B6, $B6;
148+  C604 E3 E3 E3 E3
148+  C608 E3 E3 00 92
148+  C60C 49 6E B6 B6
149+  C610 E3 E3 E3 E3  	db  $E3, $E3, $E3, $E3, $E3, $E3, $E3, $E3, $E3, $E3, $E3, $6E, $92, $49, $49, $6E;
149+  C614 E3 E3 E3 E3
149+  C618 E3 E3 E3 6E
149+  C61C 92 49 49 6E
150+  C620 E3 E3 E3 E3  	db  $E3, $E3, $E3, $E3, $E3, $E3, $E3, $E3, $E3, $E3, $E3, $00, $B6, $49, $92, $49;
150+  C624 E3 E3 E3 E3
150+  C628 E3 E3 E3 00
150+  C62C B6 49 92 49
151+  C630 E3 E3 E3 E3  	db  $E3, $E3, $E3, $E3, $E3, $E3, $E3, $E3, $E3, $E3, $E3, $60, $00, $88, $88, $00;
151+  C634 E3 E3 E3 E3
151+  C638 E3 E3 E3 60
151+  C63C 00 88 88 00
152+  C640 E3 E3 E3 E3  	db  $E3, $E3, $E3, $E3, $E3, $E3, $E3, $E3, $E3, $E3, $E3, $49, $00, $60, $60, $00;
152+  C644 E3 E3 E3 E3
152+  C648 E3 E3 E3 49
152+  C64C 00 60 60 00
153+  C650 E3 E3 E3 E3  	db  $E3, $E3, $E3, $E3, $E3, $E3, $E3, $E3, $E3, $E3, $E3, $49, $6E, $49, $49, $49;
153+  C654 E3 E3 E3 E3
153+  C658 E3 E3 E3 49
153+  C65C 6E 49 49 49
154+  C660 E3 E3 E3 E3  	db  $E3, $E3, $E3, $E3, $E3, $E3, $E3, $E3, $E3, $E3, $E3, $49, $B6, $6E, $B6, $92;
154+  C664 E3 E3 E3 E3
154+  C668 E3 E3 E3 49
154+  C66C B6 6E B6 92
155+  C670 E3 E3 E3 E3  	db  $E3, $E3, $E3, $E3, $E3, $E3, $E3, $E3, $E3, $E3, $E3, $6E, $00, $92, $92, $49;
155+  C674 E3 E3 E3 E3
155+  C678 E3 E3 E3 6E
155+  C67C 00 92 92 49
156+  C680 E3 E3 E3 E3  	db  $E3, $E3, $E3, $E3, $E3, $E3, $E3, $E3, $E3, $E3, $6E, $B6, $6E, $00, $49, $6E;
156+  C684 E3 E3 E3 E3
156+  C688 E3 E3 6E B6
156+  C68C 6E 00 49 6E
157+  C690 E3 E3 E3 E3  	db  $E3, $E3, $E3, $E3, $E3, $E3, $E3, $E3, $E3, $E3, $00, $6E, $6E, $49, $00, $49;
157+  C694 E3 E3 E3 E3
157+  C698 E3 E3 00 6E
157+  C69C 6E 49 00 49
158+  C6A0 E3 E3 E3 E3  	db  $E3, $E3, $E3, $E3, $E3, $E3, $E3, $E3, $E3, $6E, $92, $00, $49, $00, $E3, $49;
158+  C6A4 E3 E3 E3 E3
158+  C6A8 E3 6E 92 00
158+  C6AC 49 00 E3 49
159+  C6B0 E3 E3 E3 E3  	db  $E3, $E3, $E3, $E3, $E3, $E3, $E3, $E3, $E3, $6E, $B6, $6E, $00, $E3, $E3, $E3;
159+  C6B4 E3 E3 E3 E3
159+  C6B8 E3 6E B6 6E
159+  C6BC 00 E3 E3 E3
160+  C6C0 E3 E3 E3 E3  	db  $E3, $E3, $E3, $E3, $E3, $E3, $E3, $E3, $E3, $6E, $92, $49, $00, $E3, $E3, $E3;
160+  C6C4 E3 E3 E3 E3
160+  C6C8 E3 6E 92 49
160+  C6CC 00 E3 E3 E3
161+  C6D0 E3 E3 E3 E3  	db  $E3, $E3, $E3, $E3, $E3, $E3, $E3, $49, $6E, $B6, $92, $6E, $00, $E3, $E3, $E3;
161+  C6D4 E3 E3 E3 49
161+  C6D8 6E B6 92 6E
161+  C6DC 00 E3 E3 E3
162+  C6E0 E3 E3 E3 E3  	db  $E3, $E3, $E3, $E3, $E3, $E3, $49, $6E, $92, $6E, $6E, $6E, $49, $00, $E3, $E3;
162+  C6E4 E3 E3 49 6E
162+  C6E8 92 6E 6E 6E
162+  C6EC 49 00 E3 E3
163+  C6F0 E3 E3 E3 E3  	db  $E3, $E3, $E3, $E3, $E3, $E3, $E3, $00, $00, $00, $00, $00, $00, $E3, $E3, $6E;
163+  C6F4 E3 E3 E3 00
163+  C6F8 00 00 00 00
163+  C6FC 00 E3 E3 6E
164+  C700
165+  C700
166+  C700
167+  C700              spikealot_B_4:
168+  C700 B6 B6 B6 00  	db  $B6, $B6, $B6, $00, $B6, $6E, $49, $00, $E3, $E3, $E3, $E3, $E3, $E3, $E3, $E3;
168+  C704 B6 6E 49 00
168+  C708 E3 E3 E3 E3
168+  C70C E3 E3 E3 E3
169+  C710 92 B6 92 00  	db  $92, $B6, $92, $00, $92, $49, $00, $E3, $E3, $E3, $E3, $E3, $E3, $E3, $E3, $E3;
169+  C714 92 49 00 E3
169+  C718 E3 E3 E3 E3
169+  C71C E3 E3 E3 E3
170+  C720 6E 92 00 6E  	db  $6E, $92, $00, $6E, $49, $00, $E3, $E3, $E3, $E3, $E3, $E3, $E3, $E3, $E3, $E3;
170+  C724 49 00 E3 E3
170+  C728 E3 E3 E3 E3
170+  C72C E3 E3 E3 E3
171+  C730 88 00 60 60  	db  $88, $00, $60, $60, $00, $00, $E3, $E3, $E3, $E3, $E3, $E3, $E3, $E3, $E3, $E3;
171+  C734 00 00 E3 E3
171+  C738 E3 E3 E3 E3
171+  C73C E3 E3 E3 E3
172+  C740 60 00 00 00  	db  $60, $00, $00, $00, $00, $00, $E3, $E3, $E3, $E3, $E3, $E3, $E3, $E3, $E3, $E3;
172+  C744 00 00 E3 E3
172+  C748 E3 E3 E3 E3
172+  C74C E3 E3 E3 E3
173+  C750 49 49 6E 6E  	db  $49, $49, $6E, $6E, $49, $00, $E3, $E3, $E3, $E3, $E3, $E3, $E3, $E3, $E3, $E3;
173+  C754 49 00 E3 E3
173+  C758 E3 E3 E3 E3
173+  C75C E3 E3 E3 E3
174+  C760 49 6E 6E 49  	db  $49, $6E, $6E, $49, $49, $00, $E3, $E3, $E3, $E3, $E3, $E3, $E3, $E3, $E3, $E3;
174+  C764 49 00 E3 E3
174+  C768 E3 E3 E3 E3
174+  C76C E3 E3 E3 E3
175+  C770 92 B6 6E 00  	db  $92, $B6, $6E, $00, $00, $E3, $E3, $E3, $E3, $E3, $E3, $E3, $E3, $E3, $E3, $E3;
175+  C774 00 E3 E3 E3
175+  C778 E3 E3 E3 E3
175+  C77C E3 E3 E3 E3
176+  C780 B6 B6 92 00  	db  $B6, $B6, $92, $00, $E3, $E3, $E3, $E3, $E3, $E3, $E3, $E3, $E3, $E3, $E3, $E3;
176+  C784 E3 E3 E3 E3
176+  C788 E3 E3 E3 E3
176+  C78C E3 E3 E3 E3
177+  C790 92 B6 00 00  	db  $92, $B6, $00, $00, $E3, $E3, $E3, $E3, $E3, $E3, $E3, $E3, $E3, $E3, $E3, $E3;
177+  C794 E3 E3 E3 E3
177+  C798 E3 E3 E3 E3
177+  C79C E3 E3 E3 E3
178+  C7A0 00 00 49 92  	db  $00, $00, $49, $92, $00, $E3, $E3, $E3, $E3, $E3, $E3, $E3, $E3, $E3, $E3, $E3;
178+  C7A4 00 E3 E3 E3
178+  C7A8 E3 E3 E3 E3
178+  C7AC E3 E3 E3 E3
179+  C7B0 92 B6 92 92  	db  $92, $B6, $92, $92, $00, $E3, $E3, $E3, $E3, $E3, $E3, $E3, $E3, $E3, $E3, $E3;
179+  C7B4 00 E3 E3 E3
179+  C7B8 E3 E3 E3 E3
179+  C7BC E3 E3 E3 E3
180+  C7C0 49 92 B6 92  	db  $49, $92, $B6, $92, $00, $E3, $E3, $E3, $E3, $E3, $E3, $E3, $E3, $E3, $E3, $E3;
180+  C7C4 00 E3 E3 E3
180+  C7C8 E3 E3 E3 E3
180+  C7CC E3 E3 E3 E3
181+  C7D0 E3 6E 92 B6  	db  $E3, $6E, $92, $B6, $6E, $00, $E3, $E3, $E3, $E3, $E3, $E3, $E3, $E3, $E3, $E3;
181+  C7D4 6E 00 E3 E3
181+  C7D8 E3 E3 E3 E3
181+  C7DC E3 E3 E3 E3
182+  C7E0 6E 92 B6 92  	db  $6E, $92, $B6, $92, $92, $49, $00, $E3, $E3, $E3, $E3, $E3, $E3, $E3, $E3, $E3;
182+  C7E4 92 49 00 E3
182+  C7E8 E3 E3 E3 E3
182+  C7EC E3 E3 E3 E3
183+  C7F0 92 92 6E 00  	db  $92, $92, $6E, $00, $00, $00, $E3, $E3, $E3, $E3, $E3, $E3, $E3, $E3, $E3, $E3;
183+  C7F4 00 00 E3 E3
183+  C7F8 E3 E3 E3 E3
183+  C7FC E3 E3 E3 E3
184+  C800
185+  C800
186+  C800              spikealot_D_1:
187+  C800 E3 E3 E3 E3  	db  $E3, $E3, $E3, $E3, $E3, $E3, $E3, $E3, $E3, $E3, $E3, $E3, $E3, $E3, $E3, $E3;
187+  C804 E3 E3 E3 E3
187+  C808 E3 E3 E3 E3
187+  C80C E3 E3 E3 E3
188+  C810 E3 E3 E3 E3  	db  $E3, $E3, $E3, $E3, $E3, $E3, $E3, $E3, $E3, $E3, $E3, $E3, $E3, $E3, $6E, $B6;
188+  C814 E3 E3 E3 E3
188+  C818 E3 E3 E3 E3
188+  C81C E3 E3 6E B6
189+  C820 E3 E3 E3 E3  	db  $E3, $E3, $E3, $E3, $E3, $E3, $E3, $E3, $E3, $E3, $E3, $E3, $E3, $49, $B6, $B6;
189+  C824 E3 E3 E3 E3
189+  C828 E3 E3 E3 E3
189+  C82C E3 49 B6 B6
190+  C830 E3 E3 E3 E3  	db  $E3, $E3, $E3, $E3, $E3, $E3, $E3, $E3, $E3, $E3, $E3, $E3, $E3, $92, $B6, $B6;
190+  C834 E3 E3 E3 E3
190+  C838 E3 E3 E3 E3
190+  C83C E3 92 B6 B6
191+  C840 E3 E3 E3 E3  	db  $E3, $E3, $E3, $E3, $E3, $E3, $E3, $E3, $E3, $E3, $E3, $E3, $E3, $00, $49, $49;
191+  C844 E3 E3 E3 E3
191+  C848 E3 E3 E3 E3
191+  C84C E3 00 49 49
192+  C850 E3 E3 E3 E3  	db  $E3, $E3, $E3, $E3, $E3, $E3, $E3, $E3, $E3, $E3, $E3, $E3, $E3, $49, $6E, $92;
192+  C854 E3 E3 E3 E3
192+  C858 E3 E3 E3 E3
192+  C85C E3 49 6E 92
193+  C860 E3 E3 E3 E3  	db  $E3, $E3, $E3, $E3, $E3, $E3, $E3, $E3, $E3, $E3, $E3, $E3, $E3, $49, $92, $B6;
193+  C864 E3 E3 E3 E3
193+  C868 E3 E3 E3 E3
193+  C86C E3 49 92 B6
194+  C870 E3 E3 E3 E3  	db  $E3, $E3, $E3, $E3, $E3, $E3, $E3, $E3, $E3, $E3, $E3, $E3, $E3, $00, $48, $B1;
194+  C874 E3 E3 E3 E3
194+  C878 E3 E3 E3 E3
194+  C87C E3 00 48 B1
195+  C880 E3 E3 E3 E3  	db  $E3, $E3, $E3, $E3, $E3, $E3, $E3, $E3, $E3, $E3, $E3, $E3, $E3, $48, $68, $D6;
195+  C884 E3 E3 E3 E3
195+  C888 E3 E3 E3 E3
195+  C88C E3 48 68 D6
196+  C890 E3 E3 E3 E3  	db  $E3, $E3, $E3, $E3, $E3, $E3, $E3, $E3, $E3, $E3, $E3, $E3, $E3, $68, $D6, $D6;
196+  C894 E3 E3 E3 E3
196+  C898 E3 E3 E3 E3
196+  C89C E3 68 D6 D6
197+  C8A0 E3 E3 E3 E3  	db  $E3, $E3, $E3, $E3, $E3, $E3, $E3, $E3, $E3, $E3, $E3, $E3, $49, $00, $68, $68;
197+  C8A4 E3 E3 E3 E3
197+  C8A8 E3 E3 E3 E3
197+  C8AC 49 00 68 68
198+  C8B0 E3 E3 E3 E3  	db  $E3, $E3, $E3, $E3, $E3, $E3, $E3, $E3, $E3, $E3, $E3, $E3, $6E, $B6, $B6, $68;
198+  C8B4 E3 E3 E3 E3
198+  C8B8 E3 E3 E3 E3
198+  C8BC 6E B6 B6 68
199+  C8C0 E3 E3 E3 E3  	db  $E3, $E3, $E3, $E3, $E3, $E3, $E3, $E3, $E3, $E3, $E3, $E3, $92, $B6, $B6, $B6;
199+  C8C4 E3 E3 E3 E3
199+  C8C8 E3 E3 E3 E3
199+  C8CC 92 B6 B6 B6
200+  C8D0 E3 E3 E3 E3  	db  $E3, $E3, $E3, $E3, $E3, $E3, $E3, $E3, $E3, $E3, $E3, $E3, $92, $B6, $B6, $B6;
200+  C8D4 E3 E3 E3 E3
200+  C8D8 E3 E3 E3 E3
200+  C8DC 92 B6 B6 B6
201+  C8E0 E3 E3 E3 E3  	db  $E3, $E3, $E3, $E3, $E3, $E3, $E3, $E3, $E3, $E3, $E3, $E3, $49, $92, $92, $B6;
201+  C8E4 E3 E3 E3 E3
201+  C8E8 E3 E3 E3 E3
201+  C8EC 49 92 92 B6
202+  C8F0 E3 E3 E3 E3  	db  $E3, $E3, $E3, $E3, $E3, $E3, $E3, $E3, $E3, $E3, $E3, $E3, $49, $49, $92, $B6;
202+  C8F4 E3 E3 E3 E3
202+  C8F8 E3 E3 E3 E3
202+  C8FC 49 49 92 B6
203+  C900
204+  C900
205+  C900
206+  C900              spikealot_D_2:
207+  C900 E3 E3 E3 E3  	db  $E3, $E3, $E3, $E3, $E3, $E3, $E3, $E3, $E3, $E3, $E3, $E3, $E3, $E3, $E3, $E3;
207+  C904 E3 E3 E3 E3
207+  C908 E3 E3 E3 E3
207+  C90C E3 E3 E3 E3
208+  C910 49 E3 E3 E3  	db  $49, $E3, $E3, $E3, $E3, $E3, $E3, $E3, $E3, $E3, $E3, $E3, $E3, $E3, $E3, $E3;
208+  C914 E3 E3 E3 E3
208+  C918 E3 E3 E3 E3
208+  C91C E3 E3 E3 E3
209+  C920 B6 6E 49 E3  	db  $B6, $6E, $49, $E3, $E3, $E3, $E3, $E3, $E3, $E3, $E3, $E3, $E3, $E3, $E3, $E3;
209+  C924 E3 E3 E3 E3
209+  C928 E3 E3 E3 E3
209+  C92C E3 E3 E3 E3
210+  C930 B6 B6 6E 49  	db  $B6, $B6, $6E, $49, $E3, $E3, $E3, $E3, $E3, $E3, $E3, $E3, $E3, $E3, $E3, $E3;
210+  C934 E3 E3 E3 E3
210+  C938 E3 E3 E3 E3
210+  C93C E3 E3 E3 E3
211+  C940 92 B6 B6 49  	db  $92, $B6, $B6, $49, $49, $E3, $E3, $E3, $E3, $E3, $E3, $E3, $E3, $E3, $E3, $E3;
211+  C944 49 E3 E3 E3
211+  C948 E3 E3 E3 E3
211+  C94C E3 E3 E3 E3
212+  C950 6E 49 6E 92  	db  $6E, $49, $6E, $92, $49, $E3, $E3, $E3, $E3, $E3, $E3, $E3, $E3, $E3, $E3, $E3;
212+  C954 49 E3 E3 E3
212+  C958 E3 E3 E3 E3
212+  C95C E3 E3 E3 E3
213+  C960 92 92 49 6E  	db  $92, $92, $49, $6E, $49, $49, $E3, $E3, $E3, $E3, $E3, $E3, $E3, $E3, $E3, $E3;
213+  C964 49 49 E3 E3
213+  C968 E3 E3 E3 E3
213+  C96C E3 E3 E3 E3
214+  C970 48 48 48 49  	db  $48, $48, $48, $49, $49, $49, $E3, $E3, $E3, $E3, $E3, $E3, $E3, $E3, $E3, $E3;
214+  C974 49 49 E3 E3
214+  C978 E3 E3 E3 E3
214+  C97C E3 E3 E3 E3
215+  C980 92 0E B6 6E  	db  $92, $0E, $B6, $6E, $49, $49, $E3, $E3, $E3, $E3, $E3, $E3, $E3, $E3, $E3, $E3;
215+  C984 49 49 E3 E3
215+  C988 E3 E3 E3 E3
215+  C98C E3 E3 E3 E3
216+  C990 D6 D6 D6 6E  	db  $D6, $D6, $D6, $6E, $49, $00, $00, $E3, $E3, $E3, $E3, $E3, $E3, $E3, $E3, $E3;
216+  C994 49 00 00 E3
216+  C998 E3 E3 E3 E3
216+  C99C E3 E3 E3 E3
217+  C9A0 68 68 68 00  	db  $68, $68, $68, $00, $49, $92, $6E, $E3, $E3, $E3, $E3, $E3, $E3, $E3, $E3, $E3;
217+  C9A4 49 92 6E E3
217+  C9A8 E3 E3 E3 E3
217+  C9AC E3 E3 E3 E3
218+  C9B0 68 48 00 6E  	db  $68, $48, $00, $6E, $6E, $B6, $B6, $6E, $E3, $E3, $E3, $E3, $E3, $E3, $E3, $E3;
218+  C9B4 6E B6 B6 6E
218+  C9B8 E3 E3 E3 E3
218+  C9BC E3 E3 E3 E3
219+  C9C0 48 00 49 6E  	db  $48, $00, $49, $6E, $92, $B6, $B6, $B6, $49, $E3, $E3, $E3, $E3, $E3, $E3, $E3;
219+  C9C4 92 B6 B6 B6
219+  C9C8 49 E3 E3 E3
219+  C9CC E3 E3 E3 E3
220+  C9D0 49 49 49 00  	db  $49, $49, $49, $00, $49, $6E, $92, $B6, $49, $E3, $E3, $E3, $E3, $E3, $E3, $E3;
220+  C9D4 49 6E 92 B6
220+  C9D8 49 E3 E3 E3
220+  C9DC E3 E3 E3 E3
221+  C9E0 B6 49 92 B6  	db  $B6, $49, $92, $B6, $00, $00, $49, $6E, $E3, $E3, $E3, $E3, $E3, $E3, $E3, $E3;
221+  C9E4 00 00 49 6E
221+  C9E8 E3 E3 E3 E3
221+  C9EC E3 E3 E3 E3
222+  C9F0 B6 00 B6 B6  	db  $B6, $00, $B6, $B6, $92, $6E, $00, $E3, $E3, $E3, $E3, $E3, $E3, $E3, $E3, $E3;
222+  C9F4 92 6E 00 E3
222+  C9F8 E3 E3 E3 E3
222+  C9FC E3 E3 E3 E3
223+  CA00
224+  CA00
225+  CA00
226+  CA00              spikealot_D_3:
227+  CA00 E3 E3 E3 E3  	db  $E3, $E3, $E3, $E3, $E3, $E3, $E3, $E3, $E3, $E3, $E3, $E3, $6E, $49, $6E, $92;
227+  CA04 E3 E3 E3 E3
227+  CA08 E3 E3 E3 E3
227+  CA0C 6E 49 6E 92
228+  CA10 E3 E3 E3 E3  	db  $E3, $E3, $E3, $E3, $E3, $E3, $E3, $E3, $E3, $E3, $E3, $E3, $6E, $92, $49, $6E;
228+  CA14 E3 E3 E3 E3
228+  CA18 E3 E3 E3 E3
228+  CA1C 6E 92 49 6E
229+  CA20 E3 E3 E3 E3  	db  $E3, $E3, $E3, $E3, $E3, $E3, $E3, $E3, $E3, $E3, $E3, $E3, $92, $B6, $6E, $49;
229+  CA24 E3 E3 E3 E3
229+  CA28 E3 E3 E3 E3
229+  CA2C 92 B6 6E 49
230+  CA30 E3 E3 E3 E3  	db  $E3, $E3, $E3, $E3, $E3, $E3, $E3, $E3, $E3, $E3, $E3, $E3, $49, $B6, $6E, $B6;
230+  CA34 E3 E3 E3 E3
230+  CA38 E3 E3 E3 E3
230+  CA3C 49 B6 6E B6
231+  CA40 E3 E3 E3 E3  	db  $E3, $E3, $E3, $E3, $E3, $E3, $E3, $E3, $E3, $E3, $E3, $E3, $60, $00, $88, $88;
231+  CA44 E3 E3 E3 E3
231+  CA48 E3 E3 E3 E3
231+  CA4C 60 00 88 88
232+  CA50 E3 E3 E3 E3  	db  $E3, $E3, $E3, $E3, $E3, $E3, $E3, $E3, $E3, $E3, $6E, $00, $49, $00, $60, $60;
232+  CA54 E3 E3 E3 E3
232+  CA58 E3 E3 6E 00
232+  CA5C 49 00 60 60
233+  CA60 E3 E3 E3 E3  	db  $E3, $E3, $E3, $E3, $E3, $E3, $E3, $E3, $E3, $6E, $B6, $49, $6E, $49, $49, $49;
233+  CA64 E3 E3 E3 E3
233+  CA68 E3 6E B6 49
233+  CA6C 6E 49 49 49
234+  CA70 E3 E3 E3 E3  	db  $E3, $E3, $E3, $E3, $E3, $E3, $E3, $E3, $49, $00, $00, $6E, $00, $B6, $6E, $B6;
234+  CA74 E3 E3 E3 E3
234+  CA78 49 00 00 6E
234+  CA7C 00 B6 6E B6
235+  CA80 E3 E3 E3 E3  	db  $E3, $E3, $E3, $E3, $49, $49, $6E, $92, $92, $92, $00, $49, $00, $6E, $92, $B6;
235+  CA84 49 49 6E 92
235+  CA88 92 92 00 49
235+  CA8C 00 6E 92 B6
236+  CA90 E3 E3 E3 E3  	db  $E3, $E3, $E3, $E3, $49, $6E, $92, $92, $B6, $92, $6E, $00, $00, $00, $49, $49;
236+  CA94 49 6E 92 92
236+  CA98 B6 92 6E 00
236+  CA9C 00 00 49 49
237+  CAA0 E3 E3 E3 E3  	db  $E3, $E3, $E3, $E3, $E3, $E3, $49, $6E, $92, $6E, $00, $E3, $E3, $E3, $00, $00;
237+  CAA4 E3 E3 49 6E
237+  CAA8 92 6E 00 E3
237+  CAAC E3 E3 00 00
238+  CAB0 E3 E3 E3 E3  	db  $E3, $E3, $E3, $E3, $E3, $E3, $E3, $E3, $49, $6E, $00, $E3, $E3, $E3, $E3, $E3;
238+  CAB4 E3 E3 E3 E3
238+  CAB8 49 6E 00 E3
238+  CABC E3 E3 E3 E3
239+  CAC0 E3 E3 E3 E3  	db  $E3, $E3, $E3, $E3, $E3, $E3, $E3, $E3, $E3, $00, $E3, $E3, $E3, $E3, $E3, $E3;
239+  CAC4 E3 E3 E3 E3
239+  CAC8 E3 00 E3 E3
239+  CACC E3 E3 E3 E3
240+  CAD0 E3 E3 E3 E3  	db  $E3, $E3, $E3, $E3, $E3, $E3, $E3, $E3, $E3, $E3, $E3, $E3, $E3, $E3, $E3, $E3;
240+  CAD4 E3 E3 E3 E3
240+  CAD8 E3 E3 E3 E3
240+  CADC E3 E3 E3 E3
241+  CAE0 E3 E3 E3 E3  	db  $E3, $E3, $E3, $E3, $E3, $E3, $E3, $E3, $E3, $E3, $E3, $E3, $E3, $E3, $E3, $E3;
241+  CAE4 E3 E3 E3 E3
241+  CAE8 E3 E3 E3 E3
241+  CAEC E3 E3 E3 E3
242+  CAF0 E3 E3 E3 E3  	db  $E3, $E3, $E3, $E3, $E3, $E3, $E3, $E3, $E3, $E3, $E3, $E3, $E3, $E3, $E3, $E3;
242+  CAF4 E3 E3 E3 E3
242+  CAF8 E3 E3 E3 E3
242+  CAFC E3 E3 E3 E3
243+  CB00
244+  CB00
245+  CB00
246+  CB00              spikealot_D_4:
247+  CB00 6E 00 92 6E  	db  $6E, $00, $92, $6E, $49, $00, $49, $00, $E3, $E3, $E3, $E3, $E3, $E3, $E3, $E3;
247+  CB04 49 00 49 00
247+  CB08 E3 E3 E3 E3
247+  CB0C E3 E3 E3 E3
248+  CB10 00 6E 6E 00  	db  $00, $6E, $6E, $00, $49, $49, $49, $00, $E3, $E3, $E3, $E3, $E3, $E3, $E3, $E3;
248+  CB14 49 49 49 00
248+  CB18 E3 E3 E3 E3
248+  CB1C E3 E3 E3 E3
249+  CB20 00 49 49 6E  	db  $00, $49, $49, $6E, $6E, $49, $00, $E3, $E3, $E3, $E3, $E3, $E3, $E3, $E3, $E3;
249+  CB24 6E 49 00 E3
249+  CB28 E3 E3 E3 E3
249+  CB2C E3 E3 E3 E3
250+  CB30 B6 92 92 92  	db  $B6, $92, $92, $92, $49, $49, $00, $E3, $E3, $E3, $E3, $E3, $E3, $E3, $E3, $E3;
250+  CB34 49 49 00 E3
250+  CB38 E3 E3 E3 E3
250+  CB3C E3 E3 E3 E3
251+  CB40 00 88 00 60  	db  $00, $88, $00, $60, $60, $00, $E3, $E3, $E3, $E3, $E3, $E3, $E3, $E3, $E3, $E3;
251+  CB44 60 00 E3 E3
251+  CB48 E3 E3 E3 E3
251+  CB4C E3 E3 E3 E3
252+  CB50 00 60 00 00  	db  $00, $60, $00, $00, $00, $00, $00, $00, $00, $E3, $E3, $E3, $E3, $E3, $E3, $E3;
252+  CB54 00 00 00 00
252+  CB58 00 E3 E3 E3
252+  CB5C E3 E3 E3 E3
253+  CB60 49 49 49 49  	db  $49, $49, $49, $49, $49, $00, $49, $92, $6E, $00, $E3, $E3, $E3, $E3, $E3, $E3;
253+  CB64 49 00 49 92
253+  CB68 6E 00 E3 E3
253+  CB6C E3 E3 E3 E3
254+  CB70 B6 6E 00 00  	db  $B6, $6E, $00, $00, $00, $49, $92, $92, $92, $00, $E3, $E3, $E3, $E3, $E3, $E3;
254+  CB74 00 49 92 92
254+  CB78 92 00 E3 E3
254+  CB7C E3 E3 E3 E3
255+  CB80 6E 00 B6 92  	db  $6E, $00, $B6, $92, $92, $00, $B6, $B6, $6E, $6E, $00, $E3, $E3, $E3, $E3, $E3;
255+  CB84 92 00 B6 B6
255+  CB88 6E 6E 00 E3
255+  CB8C E3 E3 E3 E3
256+  CB90 00 92 B6 B6  	db  $00, $92, $B6, $B6, $92, $00, $92, $92, $B6, $B6, $00, $E3, $E3, $E3, $E3, $E3;
256+  CB94 92 00 92 92
256+  CB98 B6 B6 00 E3
256+  CB9C E3 E3 E3 E3
257+  CBA0 00 49 6E 92  	db  $00, $49, $6E, $92, $00, $6E, $49, $00, $92, $B6, $92, $00, $E3, $E3, $E3, $E3;
257+  CBA4 00 6E 49 00
257+  CBA8 92 B6 92 00
257+  CBAC E3 E3 E3 E3
258+  CBB0 E3 00 00 00  	db  $E3, $00, $00, $00, $00, $00, $00, $E3, $6E, $92, $92, $00, $E3, $E3, $E3, $E3;
258+  CBB4 00 00 00 E3
258+  CBB8 6E 92 92 00
258+  CBBC E3 E3 E3 E3
259+  CBC0 E3 E3 E3 E3  	db  $E3, $E3, $E3, $E3, $E3, $E3, $E3, $E3, $00, $6E, $92, $00, $E3, $E3, $E3, $E3;
259+  CBC4 E3 E3 E3 E3
259+  CBC8 00 6E 92 00
259+  CBCC E3 E3 E3 E3
260+  CBD0 E3 E3 E3 E3  	db  $E3, $E3, $E3, $E3, $E3, $E3, $E3, $E3, $E3, $00, $00, $E3, $E3, $E3, $E3, $E3;
260+  CBD4 E3 E3 E3 E3
260+  CBD8 E3 00 00 E3
260+  CBDC E3 E3 E3 E3
261+  CBE0 E3 E3 E3 E3  	db  $E3, $E3, $E3, $E3, $E3, $E3, $E3, $E3, $E3, $E3, $E3, $E3, $E3, $E3, $E3, $E3;
261+  CBE4 E3 E3 E3 E3
261+  CBE8 E3 E3 E3 E3
261+  CBEC E3 E3 E3 E3
262+  CBF0 E3 E3 E3 E3  	db  $E3, $E3, $E3, $E3, $E3, $E3, $E3, $E3, $E3, $E3, $E3, $E3, $E3, $E3, $E3, $E3;
262+  CBF4 E3 E3 E3 E3
262+  CBF8 E3 E3 E3 E3
262+  CBFC E3 E3 E3 E3
263+  CC00
264+  CC00
265+  CC00
266+  CC00              spikealot_C_1:
267+  CC00 E3 E3 E3 E3  	db  $E3, $E3, $E3, $E3, $E3, $E3, $E3, $E3, $E3, $E3, $E3, $E3, $E3, $E3, $E3, $E3;
267+  CC04 E3 E3 E3 E3
267+  CC08 E3 E3 E3 E3
267+  CC0C E3 E3 E3 E3
268+  CC10 E3 E3 E3 E3  	db  $E3, $E3, $E3, $E3, $E3, $E3, $E3, $E3, $E3, $E3, $E3, $E3, $E3, $E3, $E3, $E3;
268+  CC14 E3 E3 E3 E3
268+  CC18 E3 E3 E3 E3
268+  CC1C E3 E3 E3 E3
269+  CC20 E3 E3 E3 E3  	db  $E3, $E3, $E3, $E3, $E3, $E3, $E3, $E3, $E3, $E3, $E3, $49, $B6, $6E, $49, $49;
269+  CC24 E3 E3 E3 E3
269+  CC28 E3 E3 E3 49
269+  CC2C B6 6E 49 49
270+  CC30 E3 E3 E3 E3  	db  $E3, $E3, $E3, $E3, $E3, $E3, $E3, $E3, $E3, $E3, $E3, $92, $B6, $B6, $B6, $92;
270+  CC34 E3 E3 E3 E3
270+  CC38 E3 E3 E3 92
270+  CC3C B6 B6 B6 92
271+  CC40 E3 E3 E3 E3  	db  $E3, $E3, $E3, $E3, $E3, $E3, $E3, $E3, $E3, $E3, $E3, $B6, $B6, $B6, $B6, $B6;
271+  CC44 E3 E3 E3 E3
271+  CC48 E3 E3 E3 B6
271+  CC4C B6 B6 B6 B6
272+  CC50 E3 E3 E3 E3  	db  $E3, $E3, $E3, $E3, $E3, $E3, $E3, $E3, $E3, $E3, $E3, $00, $49, $6E, $6E, $92;
272+  CC54 E3 E3 E3 E3
272+  CC58 E3 E3 E3 00
272+  CC5C 49 6E 6E 92
273+  CC60 E3 E3 E3 E3  	db  $E3, $E3, $E3, $E3, $E3, $E3, $E3, $E3, $E3, $E3, $E3, $49, $92, $B6, $92, $6E;
273+  CC64 E3 E3 E3 E3
273+  CC68 E3 E3 E3 49
273+  CC6C 92 B6 92 6E
274+  CC70 E3 E3 E3 E3  	db  $E3, $E3, $E3, $E3, $E3, $E3, $E3, $E3, $E3, $E3, $E3, $00, $48, $B1, $48, $48;
274+  CC74 E3 E3 E3 E3
274+  CC78 E3 E3 E3 00
274+  CC7C 48 B1 48 48
275+  CC80 E3 E3 E3 E3  	db  $E3, $E3, $E3, $E3, $E3, $E3, $E3, $E3, $E3, $E3, $E3, $48, $68, $D6, $92, $0E;
275+  CC84 E3 E3 E3 E3
275+  CC88 E3 E3 E3 48
275+  CC8C 68 D6 92 0E
276+  CC90 E3 E3 E3 E3  	db  $E3, $E3, $E3, $E3, $E3, $6E, $49, $00, $E3, $E3, $E3, $68, $D6, $D6, $D6, $D6;
276+  CC94 E3 6E 49 00
276+  CC98 E3 E3 E3 68
276+  CC9C D6 D6 D6 D6
277+  CCA0 E3 E3 E3 E3  	db  $E3, $E3, $E3, $E3, $6E, $92, $B6, $B6, $00, $E3, $49, $00, $68, $68, $68, $68;
277+  CCA4 6E 92 B6 B6
277+  CCA8 00 E3 49 00
277+  CCAC 68 68 68 68
278+  CCB0 E3 E3 E3 E3  	db  $E3, $E3, $E3, $E3, $6E, $92, $92, $B6, $00, $E3, $6E, $48, $68, $68, $68, $68;
278+  CCB4 6E 92 92 B6
278+  CCB8 00 E3 6E 48
278+  CCBC 68 68 68 68
279+  CCC0 E3 E3 E3 E3  	db  $E3, $E3, $E3, $E3, $49, $6E, $6E, $92, $92, $00, $92, $68, $68, $48, $68, $48;
279+  CCC4 49 6E 6E 92
279+  CCC8 92 00 92 68
279+  CCCC 68 48 68 48
280+  CCD0 E3 E3 E3 E3  	db  $E3, $E3, $E3, $E3, $E3, $49, $6E, $92, $B6, $00, $B6, $48, $48, $48, $49, $49;
280+  CCD4 E3 49 6E 92
280+  CCD8 B6 00 B6 48
280+  CCDC 48 48 49 49
281+  CCE0 E3 E3 E3 E3  	db  $E3, $E3, $E3, $E3, $E3, $E3, $49, $6E, $6E, $00, $B6, $B6, $6E, $49, $92, $92;
281+  CCE4 E3 E3 49 6E
281+  CCE8 6E 00 B6 B6
281+  CCEC 6E 49 92 92
282+  CCF0 E3 E3 E3 E3  	db  $E3, $E3, $E3, $E3, $E3, $E3, $E3, $00, $00, $49, $6E, $B6, $92, $B6, $B6, $B6;
282+  CCF4 E3 E3 E3 00
282+  CCF8 00 49 6E B6
282+  CCFC 92 B6 B6 B6
283+  CD00
284+  CD00
285+  CD00
286+  CD00              spikealot_C_2:
287+  CD00 E3 E3 E3 E3  	db  $E3, $E3, $E3, $E3, $E3, $E3, $E3, $E3, $E3, $E3, $E3, $E3, $E3, $E3, $E3, $E3;
287+  CD04 E3 E3 E3 E3
287+  CD08 E3 E3 E3 E3
287+  CD0C E3 E3 E3 E3
288+  CD10 E3 E3 E3 E3  	db  $E3, $E3, $E3, $E3, $E3, $E3, $E3, $E3, $E3, $E3, $E3, $E3, $E3, $E3, $E3, $E3;
288+  CD14 E3 E3 E3 E3
288+  CD18 E3 E3 E3 E3
288+  CD1C E3 E3 E3 E3
289+  CD20 49 00 E3 E3  	db  $49, $00, $E3, $E3, $E3, $E3, $E3, $E3, $E3, $E3, $E3, $E3, $E3, $E3, $E3, $E3;
289+  CD24 E3 E3 E3 E3
289+  CD28 E3 E3 E3 E3
289+  CD2C E3 E3 E3 E3
290+  CD30 49 49 00 E3  	db  $49, $49, $00, $E3, $E3, $E3, $E3, $E3, $E3, $E3, $E3, $E3, $E3, $E3, $E3, $E3;
290+  CD34 E3 E3 E3 E3
290+  CD38 E3 E3 E3 E3
290+  CD3C E3 E3 E3 E3
291+  CD40 6E 49 49 00  	db  $6E, $49, $49, $00, $E3, $E3, $E3, $E3, $E3, $E3, $E3, $E3, $E3, $E3, $E3, $E3;
291+  CD44 E3 E3 E3 E3
291+  CD48 E3 E3 E3 E3
291+  CD4C E3 E3 E3 E3
292+  CD50 92 6E 49 00  	db  $92, $6E, $49, $00, $E3, $E3, $E3, $E3, $E3, $E3, $E3, $E3, $E3, $E3, $E3, $E3;
292+  CD54 E3 E3 E3 E3
292+  CD58 E3 E3 E3 E3
292+  CD5C E3 E3 E3 E3
293+  CD60 49 92 49 49  	db  $49, $92, $49, $49, $00, $E3, $E3, $E3, $E3, $E3, $E3, $E3, $E3, $E3, $E3, $E3;
293+  CD64 00 E3 E3 E3
293+  CD68 E3 E3 E3 E3
293+  CD6C E3 E3 E3 E3
294+  CD70 48 49 49 49  	db  $48, $49, $49, $49, $00, $E3, $E3, $E3, $E3, $E3, $E3, $E3, $E3, $E3, $E3, $E3;
294+  CD74 00 E3 E3 E3
294+  CD78 E3 E3 E3 E3
294+  CD7C E3 E3 E3 E3
295+  CD80 B6 6E 49 49  	db  $B6, $6E, $49, $49, $00, $00, $00, $E3, $E3, $E3, $E3, $E3, $E3, $E3, $E3, $E3;
295+  CD84 00 00 00 E3
295+  CD88 E3 E3 E3 E3
295+  CD8C E3 E3 E3 E3
296+  CD90 D6 6E 49 00  	db  $D6, $6E, $49, $00, $00, $49, $49, $00, $E3, $E3, $E3, $E3, $E3, $E3, $E3, $E3;
296+  CD94 00 49 49 00
296+  CD98 E3 E3 E3 E3
296+  CD9C E3 E3 E3 E3
297+  CDA0 B1 49 00 49  	db  $B1, $49, $00, $49, $6E, $92, $B6, $92, $00, $E3, $E3, $E3, $E3, $E3, $E3, $E3;
297+  CDA4 6E 92 B6 92
297+  CDA8 00 E3 E3 E3
297+  CDAC E3 E3 E3 E3
298+  CDB0 68 49 49 6E  	db  $68, $49, $49, $6E, $92, $B6, $B6, $B6, $92, $00, $E3, $E3, $E3, $E3, $E3, $E3;
298+  CDB4 92 B6 B6 B6
298+  CDB8 92 00 E3 E3
298+  CDBC E3 E3 E3 E3
299+  CDC0 49 6E 00 6E  	db  $49, $6E, $00, $6E, $92, $92, $B6, $00, $00, $00, $E3, $E3, $E3, $E3, $E3, $E3;
299+  CDC4 92 92 B6 00
299+  CDC8 00 00 E3 E3
299+  CDCC E3 E3 E3 E3
300+  CDD0 6E 92 00 49  	db  $6E, $92, $00, $49, $6E, $92, $00, $B6, $92, $00, $E3, $E3, $E3, $E3, $E3, $E3;
300+  CDD4 6E 92 00 B6
300+  CDD8 92 00 E3 E3
300+  CDDC E3 E3 E3 E3
301+  CDE0 92 6E 49 00  	db  $92, $6E, $49, $00, $6E, $00, $6E, $92, $B6, $49, $00, $E3, $E3, $E3, $E3, $E3;
301+  CDE4 6E 00 6E 92
301+  CDE8 B6 49 00 E3
301+  CDEC E3 E3 E3 E3
302+  CDF0 92 49 00 00  	db  $92, $49, $00, $00, $00, $E3, $00, $00, $92, $6E, $00, $E3, $E3, $E3, $E3, $E3;
302+  CDF4 00 E3 00 00
302+  CDF8 92 6E 00 E3
302+  CDFC E3 E3 E3 E3
303+  CE00
304+  CE00
305+  CE00
306+  CE00              spikealot_C_3:
307+  CE00 E3 E3 E3 E3  	db  $E3, $E3, $E3, $E3, $E3, $E3, $E3, $E3, $6E, $00, $49, $92, $B6, $B6, $92, $92;
307+  CE04 E3 E3 E3 E3
307+  CE08 6E 00 49 92
307+  CE0C B6 B6 92 92
308+  CE10 E3 E3 E3 E3  	db  $E3, $E3, $E3, $E3, $E3, $E3, $E3, $E3, $E3, $E3, $6E, $49, $6E, $6E, $49, $49;
308+  CE14 E3 E3 E3 E3
308+  CE18 E3 E3 6E 49
308+  CE1C 6E 6E 49 49
309+  CE20 E3 E3 E3 E3  	db  $E3, $E3, $E3, $E3, $E3, $E3, $E3, $E3, $E3, $E3, $6E, $B6, $49, $92, $B6, $B6;
309+  CE24 E3 E3 E3 E3
309+  CE28 E3 E3 6E B6
309+  CE2C 49 92 B6 B6
310+  CE30 E3 E3 E3 E3  	db  $E3, $E3, $E3, $E3, $E3, $E3, $E3, $E3, $E3, $E3, $49, $6E, $92, $B6, $B6, $B6;
310+  CE34 E3 E3 E3 E3
310+  CE38 E3 E3 49 6E
310+  CE3C 92 B6 B6 B6
311+  CE40 E3 E3 E3 E3  	db  $E3, $E3, $E3, $E3, $E3, $E3, $E3, $E3, $E3, $E3, $60, $00, $88, $88, $00, $88;
311+  CE44 E3 E3 E3 E3
311+  CE48 E3 E3 60 00
311+  CE4C 88 88 00 88
312+  CE50 E3 E3 E3 E3  	db  $E3, $E3, $E3, $E3, $E3, $E3, $E3, $E3, $E3, $E3, $49, $00, $60, $60, $00, $60;
312+  CE54 E3 E3 E3 E3
312+  CE58 E3 E3 49 00
312+  CE5C 60 60 00 60
313+  CE60 E3 E3 E3 E3  	db  $E3, $E3, $E3, $E3, $E3, $E3, $E3, $E3, $E3, $E3, $E3, $00, $00, $B6, $B6, $B6;
313+  CE64 E3 E3 E3 E3
313+  CE68 E3 E3 E3 00
313+  CE6C 00 B6 B6 B6
314+  CE70 E3 E3 E3 E3  	db  $E3, $E3, $E3, $E3, $E3, $E3, $E3, $E3, $E3, $E3, $E3, $92, $92, $00, $B6, $92;
314+  CE74 E3 E3 E3 E3
314+  CE78 E3 E3 E3 92
314+  CE7C 92 00 B6 92
315+  CE80 E3 E3 E3 E3  	db  $E3, $E3, $E3, $E3, $E3, $E3, $E3, $6E, $92, $49, $6E, $B6, $B6, $92, $00, $49;
315+  CE84 E3 E3 E3 6E
315+  CE88 92 49 6E B6
315+  CE8C B6 92 00 49
316+  CE90 E3 E3 E3 E3  	db  $E3, $E3, $E3, $E3, $E3, $E3, $E3, $49, $92, $92, $B6, $B6, $92, $49, $00, $49;
316+  CE94 E3 E3 E3 49
316+  CE98 92 92 B6 B6
316+  CE9C 92 49 00 49
317+  CEA0 E3 E3 E3 E3  	db  $E3, $E3, $E3, $E3, $E3, $E3, $E3, $E3, $E3, $6E, $92, $92, $6E, $00, $E3, $00;
317+  CEA4 E3 E3 E3 E3
317+  CEA8 E3 6E 92 92
317+  CEAC 6E 00 E3 00
318+  CEB0 E3 E3 E3 E3  	db  $E3, $E3, $E3, $E3, $E3, $E3, $E3, $E3, $E3, $E3, $49, $92, $49, $00, $E3, $E3;
318+  CEB4 E3 E3 E3 E3
318+  CEB8 E3 E3 49 92
318+  CEBC 49 00 E3 E3
319+  CEC0 E3 E3 E3 E3  	db  $E3, $E3, $E3, $E3, $E3, $E3, $E3, $E3, $E3, $E3, $E3, $00, $00, $E3, $E3, $E3;
319+  CEC4 E3 E3 E3 E3
319+  CEC8 E3 E3 E3 00
319+  CECC 00 E3 E3 E3
320+  CED0 E3 E3 E3 E3  	db  $E3, $E3, $E3, $E3, $E3, $E3, $E3, $E3, $E3, $E3, $E3, $E3, $E3, $E3, $E3, $E3;
320+  CED4 E3 E3 E3 E3
320+  CED8 E3 E3 E3 E3
320+  CEDC E3 E3 E3 E3
321+  CEE0 E3 E3 E3 E3  	db  $E3, $E3, $E3, $E3, $E3, $E3, $E3, $E3, $E3, $E3, $E3, $E3, $E3, $E3, $E3, $E3;
321+  CEE4 E3 E3 E3 E3
321+  CEE8 E3 E3 E3 E3
321+  CEEC E3 E3 E3 E3
322+  CEF0 E3 E3 E3 E3  	db  $E3, $E3, $E3, $E3, $E3, $E3, $E3, $E3, $E3, $E3, $E3, $E3, $E3, $E3, $E3, $E3;
322+  CEF4 E3 E3 E3 E3
322+  CEF8 E3 E3 E3 E3
322+  CEFC E3 E3 E3 E3
323+  CF00
324+  CF00
325+  CF00
326+  CF00              spikealot_C_4:
327+  CF00 00 00 49 49  	db  $00, $00, $49, $49, $00, $92, $B6, $B6, $00, $00, $E3, $E3, $E3, $E3, $E3, $E3;
327+  CF04 00 92 B6 B6
327+  CF08 00 00 E3 E3
327+  CF0C E3 E3 E3 E3
328+  CF10 49 49 49 B6  	db  $49, $49, $49, $B6, $B6, $B6, $B6, $B6, $92, $00, $E3, $E3, $E3, $E3, $E3, $E3;
328+  CF14 B6 B6 B6 B6
328+  CF18 92 00 E3 E3
328+  CF1C E3 E3 E3 E3
329+  CF20 B6 6E 49 B6  	db  $B6, $6E, $49, $B6, $B6, $B6, $B6, $00, $00, $E3, $E3, $E3, $E3, $E3, $E3, $E3;
329+  CF24 B6 B6 B6 00
329+  CF28 00 E3 E3 E3
329+  CF2C E3 E3 E3 E3
330+  CF30 92 49 00 92  	db  $92, $49, $00, $92, $B6, $92, $00, $E3, $E3, $E3, $E3, $E3, $E3, $E3, $E3, $E3;
330+  CF34 B6 92 00 E3
330+  CF38 E3 E3 E3 E3
330+  CF3C E3 E3 E3 E3
331+  CF40 00 60 60 00  	db  $00, $60, $60, $00, $00, $00, $E3, $E3, $E3, $E3, $E3, $E3, $E3, $E3, $E3, $E3;
331+  CF44 00 00 E3 E3
331+  CF48 E3 E3 E3 E3
331+  CF4C E3 E3 E3 E3
332+  CF50 00 00 00 00  	db  $00, $00, $00, $00, $E3, $E3, $E3, $E3, $E3, $E3, $E3, $E3, $E3, $E3, $E3, $E3;
332+  CF54 E3 E3 E3 E3
332+  CF58 E3 E3 E3 E3
332+  CF5C E3 E3 E3 E3
333+  CF60 00 49 49 00  	db  $00, $49, $49, $00, $00, $E3, $E3, $E3, $E3, $E3, $E3, $E3, $E3, $E3, $E3, $E3;
333+  CF64 00 E3 E3 E3
333+  CF68 E3 E3 E3 E3
333+  CF6C E3 E3 E3 E3
334+  CF70 92 00 00 49  	db  $92, $00, $00, $49, $6E, $00, $E3, $E3, $E3, $E3, $E3, $E3, $E3, $E3, $E3, $E3;
334+  CF74 6E 00 E3 E3
334+  CF78 E3 E3 E3 E3
334+  CF7C E3 E3 E3 E3
335+  CF80 00 00 49 6E  	db  $00, $00, $49, $6E, $92, $00, $E3, $E3, $E3, $E3, $E3, $E3, $E3, $E3, $E3, $E3;
335+  CF84 92 00 E3 E3
335+  CF88 E3 E3 E3 E3
335+  CF8C E3 E3 E3 E3
336+  CF90 6E 00 6E 92  	db  $6E, $00, $6E, $92, $B6, $6E, $00, $E3, $E3, $E3, $E3, $E3, $E3, $E3, $E3, $E3;
336+  CF94 B6 6E 00 E3
336+  CF98 E3 E3 E3 E3
336+  CF9C E3 E3 E3 E3
337+  CFA0 00 49 6E 6E  	db  $00, $49, $6E, $6E, $6E, $92, $00, $E3, $E3, $E3, $E3, $E3, $E3, $E3, $E3, $E3;
337+  CFA4 6E 92 00 E3
337+  CFA8 E3 E3 E3 E3
337+  CFAC E3 E3 E3 E3
338+  CFB0 00 00 00 00  	db  $00, $00, $00, $00, $49, $6E, $49, $00, $E3, $E3, $E3, $E3, $E3, $E3, $E3, $E3;
338+  CFB4 49 6E 49 00
338+  CFB8 E3 E3 E3 E3
338+  CFBC E3 E3 E3 E3
339+  CFC0 E3 E3 E3 E3  	db  $E3, $E3, $E3, $E3, $00, $49, $49, $00, $E3, $E3, $E3, $E3, $E3, $E3, $E3, $E3;
339+  CFC4 00 49 49 00
339+  CFC8 E3 E3 E3 E3
339+  CFCC E3 E3 E3 E3
340+  CFD0 E3 E3 E3 E3  	db  $E3, $E3, $E3, $E3, $E3, $00, $00, $E3, $E3, $E3, $E3, $E3, $E3, $E3, $E3, $E3;
340+  CFD4 E3 00 00 E3
340+  CFD8 E3 E3 E3 E3
340+  CFDC E3 E3 E3 E3
341+  CFE0 E3 E3 E3 E3  	db  $E3, $E3, $E3, $E3, $E3, $E3, $E3, $E3, $E3, $E3, $E3, $E3, $E3, $E3, $E3, $E3;
341+  CFE4 E3 E3 E3 E3
341+  CFE8 E3 E3 E3 E3
341+  CFEC E3 E3 E3 E3
342+  CFF0 E3 E3 E3 E3  	db  $E3, $E3, $E3, $E3, $E3, $E3, $E3, $E3, $E3, $E3, $E3, $E3, $E3, $E3, $E3, $E3;
342+  CFF4 E3 E3 E3 E3
342+  CFF8 E3 E3 E3 E3
342+  CFFC E3 E3 E3 E3
343+  D000
344+  D000
345+  D000              pumpkin_1:
346+  D000 E3 E3 E3 E3  	db  $E3, $E3, $E3, $E3, $E3, $E3, $E3, $E3, $E3, $E3, $E3, $E3, $E3, $E3, $E3, $E3;
346+  D004 E3 E3 E3 E3
346+  D008 E3 E3 E3 E3
346+  D00C E3 E3 E3 E3
347+  D010 E3 E3 E3 44  	db  $E3, $E3, $E3, $44, $44, $44, $44, $44, $64, $64, $64, $64, $64, $E3, $E3, $E3;
347+  D014 44 44 44 44
347+  D018 64 64 64 64
347+  D01C 64 E3 E3 E3
348+  D020 E3 E3 44 64  	db  $E3, $E3, $44, $64, $64, $64, $64, $0C, $0C, $64, $A8, $64, $A8, $64, $E3, $E3;
348+  D024 64 64 64 0C
348+  D028 0C 64 A8 64
348+  D02C A8 64 E3 E3
349+  D030 E3 44 64 64  	db  $E3, $44, $64, $64, $A8, $A8, $64, $08, $08, $64, $A8, $A8, $64, $A8, $64, $E3;
349+  D034 A8 A8 64 08
349+  D038 08 64 A8 A8
349+  D03C 64 A8 64 E3
350+  D040 44 64 64 64  	db  $44, $64, $64, $64, $A8, $A8, $64, $08, $08, $64, $A8, $A8, $A8, $64, $A8, $64;
350+  D044 A8 A8 64 08
350+  D048 08 64 A8 A8
350+  D04C A8 64 A8 64
351+  D050 44 64 A8 64  	db  $44, $64, $A8, $64, $A8, $EC, $64, $EC, $EC, $64, $EC, $A8, $A8, $64, $A8, $64;
351+  D054 A8 EC 64 EC
351+  D058 EC 64 EC A8
351+  D05C A8 64 A8 64
352+  D060 44 64 A8 00  	db  $44, $64, $A8, $00, $64, $EC, $64, $EC, $EC, $64, $EC, $64, $00, $64, $A8, $64;
352+  D064 64 EC 64 EC
352+  D068 EC 64 EC 64
352+  D06C 00 64 A8 64
353+  D070 44 64 A8 00  	db  $44, $64, $A8, $00, $00, $64, $64, $EC, $EC, $64, $64, $00, $00, $64, $A8, $64;
353+  D074 00 64 64 EC
353+  D078 EC 64 64 00
353+  D07C 00 64 A8 64
354+  D080 44 64 A8 A8  	db  $44, $64, $A8, $A8, $00, $00, $00, $EC, $EC, $00, $00, $00, $A8, $64, $A8, $64;
354+  D084 00 00 00 EC
354+  D088 EC 00 00 00
354+  D08C A8 64 A8 64
355+  D090 44 64 A8 A8  	db  $44, $64, $A8, $A8, $A8, $EC, $64, $EC, $EC, $64, $EC, $EC, $A8, $64, $A8, $64;
355+  D094 A8 EC 64 EC
355+  D098 EC 64 EC EC
355+  D09C A8 64 A8 64
356+  D0A0 44 64 A8 A8  	db  $44, $64, $A8, $A8, $00, $EC, $64, $EC, $EC, $64, $EC, $00, $A8, $64, $A8, $64;
356+  D0A4 00 EC 64 EC
356+  D0A8 EC 64 EC 00
356+  D0AC A8 64 A8 64
357+  D0B0 20 64 64 A8  	db  $20, $64, $64, $A8, $A8, $00, $00, $00, $00, $00, $00, $A8, $A8, $64, $64, $20;
357+  D0B4 A8 00 00 00
357+  D0B8 00 00 00 A8
357+  D0BC A8 64 64 20
358+  D0C0 E3 44 64 64  	db  $E3, $44, $64, $64, $A8, $A8, $64, $A8, $A8, $64, $A8, $A8, $64, $64, $44, $E3;
358+  D0C4 A8 A8 64 A8
358+  D0C8 A8 64 A8 A8
358+  D0CC 64 64 44 E3
359+  D0D0 E3 44 44 64  	db  $E3, $44, $44, $64, $64, $64, $64, $44, $44, $64, $64, $64, $64, $44, $44, $E3;
359+  D0D4 64 64 64 44
359+  D0D8 44 64 64 64
359+  D0DC 64 44 44 E3
360+  D0E0 E3 E3 44 44  	db  $E3, $E3, $44, $44, $44, $44, $44, $E3, $E3, $44, $44, $44, $44, $44, $E3, $E3;
360+  D0E4 44 44 44 E3
360+  D0E8 E3 44 44 44
360+  D0EC 44 44 E3 E3
361+  D0F0 E3 E3 E3 E3  	db  $E3, $E3, $E3, $E3, $E3, $E3, $E3, $E3, $E3, $E3, $E3, $E3, $E3, $E3, $E3, $E3;
361+  D0F4 E3 E3 E3 E3
361+  D0F8 E3 E3 E3 E3
361+  D0FC E3 E3 E3 E3
362+  D100
363+  D100
364+  D100
365+  D100              pumpkin_2:
366+  D100 E3 E3 E3 E3  	db  $E3, $E3, $E3, $E3, $E3, $E3, $E3, $E3, $E3, $E3, $E3, $E3, $E3, $E3, $E3, $E3;
366+  D104 E3 E3 E3 E3
366+  D108 E3 E3 E3 E3
366+  D10C E3 E3 E3 E3
367+  D110 E3 E3 E3 A8  	db  $E3, $E3, $E3, $A8, $A8, $A8, $A8, $A8, $A8, $A8, $A8, $A8, $A8, $E3, $E3, $E3;
367+  D114 A8 A8 A8 A8
367+  D118 A8 A8 A8 A8
367+  D11C A8 E3 E3 E3
368+  D120 E3 E3 A8 EC  	db  $E3, $E3, $A8, $EC, $A8, $EC, $A8, $0C, $0C, $A8, $EC, $A8, $EC, $EC, $E3, $E3;
368+  D124 A8 EC A8 0C
368+  D128 0C A8 EC A8
368+  D12C EC EC E3 E3
369+  D130 E3 A8 EC A8  	db  $E3, $A8, $EC, $A8, $EC, $EC, $A8, $08, $08, $A8, $EC, $EC, $A8, $EC, $EC, $E3;
369+  D134 EC EC A8 08
369+  D138 08 A8 EC EC
369+  D13C A8 EC EC E3
370+  D140 A8 EC A8 EC  	db  $A8, $EC, $A8, $EC, $EC, $EC, $A8, $08, $08, $A8, $EC, $EC, $EC, $A8, $EC, $EC;
370+  D144 EC EC A8 08
370+  D148 08 A8 EC EC
370+  D14C EC A8 EC EC
371+  D150 EC EC A8 EC  	db  $EC, $EC, $A8, $EC, $EC, $EC, $A8, $EC, $EC, $A8, $EC, $EC, $EC, $A8, $EC, $EC;
371+  D154 EC EC A8 EC
371+  D158 EC A8 EC EC
371+  D15C EC A8 EC EC
372+  D160 EC EC A8 E0  	db  $EC, $EC, $A8, $E0, $EC, $EC, $A8, $EC, $EC, $A8, $EC, $EC, $E0, $A8, $EC, $EC;
372+  D164 EC EC A8 EC
372+  D168 EC A8 EC EC
372+  D16C E0 A8 EC EC
373+  D170 EC EC A8 E0  	db  $EC, $EC, $A8, $E0, $E0, $E0, $A8, $EC, $EC, $A8, $E0, $E0, $E0, $A8, $EC, $EC;
373+  D174 E0 E0 A8 EC
373+  D178 EC A8 E0 E0
373+  D17C E0 A8 EC EC
374+  D180 EC EC A8 EC  	db  $EC, $EC, $A8, $EC, $E0, $B4, $FC, $EC, $EC, $FC, $B4, $E0, $EC, $A8, $EC, $EC;
374+  D184 E0 B4 FC EC
374+  D188 EC FC B4 E0
374+  D18C EC A8 EC EC
375+  D190 EC EC A8 EC  	db  $EC, $EC, $A8, $EC, $EC, $EC, $A8, $EC, $EC, $A8, $EC, $EC, $EC, $A8, $EC, $EC;
375+  D194 EC EC A8 EC
375+  D198 EC A8 EC EC
375+  D19C EC A8 EC EC
376+  D1A0 EC EC A8 EC  	db  $EC, $EC, $A8, $EC, $B4, $EC, $A8, $EC, $EC, $A8, $EC, $B4, $EC, $A8, $EC, $EC;
376+  D1A4 B4 EC A8 EC
376+  D1A8 EC A8 EC B4
376+  D1AC EC A8 EC EC
377+  D1B0 90 EC A8 EC  	db  $90, $EC, $A8, $EC, $EC, $B4, $B4, $B4, $B4, $B4, $B4, $EC, $EC, $A8, $EC, $90;
377+  D1B4 EC B4 B4 B4
377+  D1B8 B4 B4 B4 EC
377+  D1BC EC A8 EC 90
378+  D1C0 E3 B4 A8 EC  	db  $E3, $B4, $A8, $EC, $EC, $EC, $A8, $EC, $EC, $A8, $EC, $EC, $EC, $A8, $B4, $E3;
378+  D1C4 EC EC A8 EC
378+  D1C8 EC A8 EC EC
378+  D1CC EC A8 B4 E3
379+  D1D0 E3 B4 B4 EC  	db  $E3, $B4, $B4, $EC, $EC, $EC, $A8, $D8, $D8, $A8, $EC, $EC, $EC, $B4, $B4, $E3;
379+  D1D4 EC EC A8 D8
379+  D1D8 D8 A8 EC EC
379+  D1DC EC B4 B4 E3
380+  D1E0 E3 E3 B4 B4  	db  $E3, $E3, $B4, $B4, $B4, $D8, $D8, $E3, $E3, $D8, $D8, $B4, $B4, $B4, $E3, $E3;
380+  D1E4 B4 D8 D8 E3
380+  D1E8 E3 D8 D8 B4
380+  D1EC B4 B4 E3 E3
381+  D1F0 E3 E3 E3 E3  	db  $E3, $E3, $E3, $E3, $E3, $E3, $E3, $E3, $E3, $E3, $E3, $E3, $E3, $E3, $E3, $E3;
381+  D1F4 E3 E3 E3 E3
381+  D1F8 E3 E3 E3 E3
381+  D1FC E3 E3 E3 E3
382+  D200
383+  D200
384+  D200              pacghost_1:
385+  D200 E3 E3 E3 E3  	db  $E3, $E3, $E3, $E3, $E3, $7C, $7C, $7C, $7C, $7C, $7C, $E3, $E3, $E3, $E3, $E3;
385+  D204 E3 7C 7C 7C
385+  D208 7C 7C 7C E3
385+  D20C E3 E3 E3 E3
386+  D210 E3 E3 E3 7C  	db  $E3, $E3, $E3, $7C, $7C, $7C, $7C, $7C, $7C, $7C, $7C, $7C, $7C, $E3, $E3, $E3;
386+  D214 7C 7C 7C 7C
386+  D218 7C 7C 7C 7C
386+  D21C 7C E3 E3 E3
387+  D220 E3 E3 7C 7C  	db  $E3, $E3, $7C, $7C, $7C, $7C, $7C, $7C, $7C, $7C, $7C, $7C, $7C, $7C, $E3, $E3;
387+  D224 7C 7C 7C 7C
387+  D228 7C 7C 7C 7C
387+  D22C 7C 7C E3 E3
388+  D230 E3 7C 7C 7C  	db  $E3, $7C, $7C, $7C, $7C, $7C, $7C, $7C, $7C, $7C, $7C, $7C, $7C, $7C, $7C, $E3;
388+  D234 7C 7C 7C 7C
388+  D238 7C 7C 7C 7C
388+  D23C 7C 7C 7C E3
389+  D240 7C 7C FF FF  	db  $7C, $7C, $FF, $FF, $7C, $7C, $7C, $FF, $FF, $7C, $7C, $7C, $7C, $7C, $7C, $7C;
389+  D244 7C 7C 7C FF
389+  D248 FF 7C 7C 7C
389+  D24C 7C 7C 7C 7C
390+  D250 7C FF FF FF  	db  $7C, $FF, $FF, $FF, $FF, $7C, $FF, $FF, $FF, $FF, $7C, $7C, $7C, $7C, $7C, $7C;
390+  D254 FF 7C FF FF
390+  D258 FF FF 7C 7C
390+  D25C 7C 7C 7C 7C
391+  D260 7C 03 03 FF  	db  $7C, $03, $03, $FF, $FF, $7C, $03, $03, $FF, $FF, $7C, $7C, $7C, $7C, $7C, $7C;
391+  D264 FF 7C 03 03
391+  D268 FF FF 7C 7C
391+  D26C 7C 7C 7C 7C
392+  D270 7C 03 03 FF  	db  $7C, $03, $03, $FF, $FF, $7C, $03, $03, $FF, $FF, $7C, $7C, $7C, $7C, $7C, $7C;
392+  D274 FF 7C 03 03
392+  D278 FF FF 7C 7C
392+  D27C 7C 7C 7C 7C
393+  D280 7C 7C FF FF  	db  $7C, $7C, $FF, $FF, $7C, $7C, $7C, $FF, $FF, $7C, $7C, $7C, $7C, $7C, $7C, $7C;
393+  D284 7C 7C 7C FF
393+  D288 FF 7C 7C 7C
393+  D28C 7C 7C 7C 7C
394+  D290 7C 7C 7C 7C  	db  $7C, $7C, $7C, $7C, $7C, $7C, $7C, $7C, $7C, $7C, $7C, $7C, $7C, $7C, $7C, $7C;
394+  D294 7C 7C 7C 7C
394+  D298 7C 7C 7C 7C
394+  D29C 7C 7C 7C 7C
395+  D2A0 7C 7C 7C 7C  	db  $7C, $7C, $7C, $7C, $7C, $7C, $7C, $7C, $7C, $7C, $7C, $7C, $7C, $7C, $7C, $7C;
395+  D2A4 7C 7C 7C 7C
395+  D2A8 7C 7C 7C 7C
395+  D2AC 7C 7C 7C 7C
396+  D2B0 7C 7C 08 08  	db  $7C, $7C, $08, $08, $08, $08, $08, $08, $08, $08, $7C, $7C, $7C, $7C, $7C, $7C;
396+  D2B4 08 08 08 08
396+  D2B8 08 08 7C 7C
396+  D2BC 7C 7C 7C 7C
397+  D2C0 7C 7C 7C 7C  	db  $7C, $7C, $7C, $7C, $7C, $7C, $7C, $7C, $7C, $7C, $7C, $7C, $7C, $7C, $7C, $7C;
397+  D2C4 7C 7C 7C 7C
397+  D2C8 7C 7C 7C 7C
397+  D2CC 7C 7C 7C 7C
398+  D2D0 7C 7C 7C 7C  	db  $7C, $7C, $7C, $7C, $7C, $7C, $7C, $7C, $7C, $7C, $7C, $7C, $7C, $7C, $7C, $7C;
398+  D2D4 7C 7C 7C 7C
398+  D2D8 7C 7C 7C 7C
398+  D2DC 7C 7C 7C 7C
399+  D2E0 7C 7C E3 E3  	db  $7C, $7C, $E3, $E3, $7C, $7C, $7C, $E3, $E3, $7C, $7C, $7C, $E3, $E3, $7C, $7C;
399+  D2E4 7C 7C 7C E3
399+  D2E8 E3 7C 7C 7C
399+  D2EC E3 E3 7C 7C
400+  D2F0 7C E3 E3 E3  	db  $7C, $E3, $E3, $E3, $E3, $7C, $7C, $E3, $E3, $7C, $7C, $E3, $E3, $E3, $E3, $7C;
400+  D2F4 E3 7C 7C E3
400+  D2F8 E3 7C 7C E3
400+  D2FC E3 E3 E3 7C
401+  D300
402+  D300
403+  D300
404+  D300              pacghost_2:
405+  D300 E3 E3 E3 E3  	db  $E3, $E3, $E3, $E3, $E3, $7C, $7C, $7C, $7C, $7C, $7C, $E3, $E3, $E3, $E3, $E3;
405+  D304 E3 7C 7C 7C
405+  D308 7C 7C 7C E3
405+  D30C E3 E3 E3 E3
406+  D310 E3 E3 E3 7C  	db  $E3, $E3, $E3, $7C, $7C, $7C, $7C, $7C, $7C, $7C, $7C, $7C, $7C, $E3, $E3, $E3;
406+  D314 7C 7C 7C 7C
406+  D318 7C 7C 7C 7C
406+  D31C 7C E3 E3 E3
407+  D320 E3 E3 7C 7C  	db  $E3, $E3, $7C, $7C, $7C, $7C, $7C, $7C, $7C, $7C, $7C, $7C, $7C, $7C, $E3, $E3;
407+  D324 7C 7C 7C 7C
407+  D328 7C 7C 7C 7C
407+  D32C 7C 7C E3 E3
408+  D330 E3 7C 7C 7C  	db  $E3, $7C, $7C, $7C, $7C, $7C, $7C, $7C, $7C, $7C, $7C, $7C, $7C, $7C, $7C, $E3;
408+  D334 7C 7C 7C 7C
408+  D338 7C 7C 7C 7C
408+  D33C 7C 7C 7C E3
409+  D340 7C 7C FF FF  	db  $7C, $7C, $FF, $FF, $7C, $7C, $7C, $FF, $FF, $7C, $7C, $7C, $7C, $7C, $7C, $7C;
409+  D344 7C 7C 7C FF
409+  D348 FF 7C 7C 7C
409+  D34C 7C 7C 7C 7C
410+  D350 7C FF FF FF  	db  $7C, $FF, $FF, $FF, $FF, $7C, $FF, $FF, $FF, $FF, $7C, $7C, $7C, $7C, $7C, $7C;
410+  D354 FF 7C FF FF
410+  D358 FF FF 7C 7C
410+  D35C 7C 7C 7C 7C
411+  D360 7C 03 03 FF  	db  $7C, $03, $03, $FF, $FF, $7C, $03, $03, $FF, $FF, $7C, $7C, $7C, $7C, $7C, $7C;
411+  D364 FF 7C 03 03
411+  D368 FF FF 7C 7C
411+  D36C 7C 7C 7C 7C
412+  D370 7C 03 03 FF  	db  $7C, $03, $03, $FF, $FF, $7C, $03, $03, $FF, $FF, $7C, $7C, $7C, $7C, $7C, $7C;
412+  D374 FF 7C 03 03
412+  D378 FF FF 7C 7C
412+  D37C 7C 7C 7C 7C
413+  D380 7C 7C FF FF  	db  $7C, $7C, $FF, $FF, $7C, $7C, $7C, $FF, $FF, $7C, $7C, $7C, $7C, $7C, $7C, $7C;
413+  D384 7C 7C 7C FF
413+  D388 FF 7C 7C 7C
413+  D38C 7C 7C 7C 7C
414+  D390 7C 7C 7C 7C  	db  $7C, $7C, $7C, $7C, $7C, $7C, $7C, $7C, $7C, $7C, $7C, $7C, $7C, $7C, $7C, $7C;
414+  D394 7C 7C 7C 7C
414+  D398 7C 7C 7C 7C
414+  D39C 7C 7C 7C 7C
415+  D3A0 7C 7C 7C 7C  	db  $7C, $7C, $7C, $7C, $7C, $7C, $7C, $7C, $7C, $7C, $7C, $7C, $7C, $7C, $7C, $7C;
415+  D3A4 7C 7C 7C 7C
415+  D3A8 7C 7C 7C 7C
415+  D3AC 7C 7C 7C 7C
416+  D3B0 7C 7C 08 08  	db  $7C, $7C, $08, $08, $08, $08, $08, $08, $08, $08, $7C, $7C, $7C, $7C, $7C, $7C;
416+  D3B4 08 08 08 08
416+  D3B8 08 08 7C 7C
416+  D3BC 7C 7C 7C 7C
417+  D3C0 7C 7C 7C 7C  	db  $7C, $7C, $7C, $7C, $7C, $7C, $7C, $7C, $7C, $7C, $7C, $7C, $7C, $7C, $7C, $7C;
417+  D3C4 7C 7C 7C 7C
417+  D3C8 7C 7C 7C 7C
417+  D3CC 7C 7C 7C 7C
418+  D3D0 7C 7C 7C 7C  	db  $7C, $7C, $7C, $7C, $7C, $7C, $7C, $7C, $7C, $7C, $7C, $7C, $7C, $7C, $7C, $7C;
418+  D3D4 7C 7C 7C 7C
418+  D3D8 7C 7C 7C 7C
418+  D3DC 7C 7C 7C 7C
419+  D3E0 7C E3 7C 7C  	db  $7C, $E3, $7C, $7C, $7C, $E3, $E3, $7C, $7C, $7C, $E3, $E3, $7C, $7C, $7C, $7C;
419+  D3E4 7C E3 E3 7C
419+  D3E8 7C 7C E3 E3
419+  D3EC 7C 7C 7C 7C
420+  D3F0 7C E3 E3 7C  	db  $7C, $E3, $E3, $7C, $E3, $E3, $E3, $E3, $7C, $E3, $E3, $E3, $E3, $7C, $E3, $7C;
420+  D3F4 E3 E3 E3 E3
420+  D3F8 7C E3 E3 E3
420+  D3FC E3 7C E3 7C
421+  D400
422+  D400
423+  D400
424+  D400
425+  D400
426+  D400
427+  D400              ;;;;;;Fonts
428+  D400
429+  D400
430+  D400
431+  D400                  MMU 6,17
432+  D400              	org 0xC000
433+  C000
434+  C000 00 00 00...  	ds 64,0
435+  C040              	; incbin "fonts/font1.spr"
436+  C040              	; incbin "fonts/font2.spr"
437+  C040              	; incbin "fonts/font3.spr"
438+  C040              	; incbin "fonts/font4.spr"
439+  C040              	; incbin "fonts/font5.spr"
440+  C040              	; incbin "fonts/font6.spr"
441+  C040              	incbin "fonts/font7.spr"
442+  D040              	; incbin "fonts/font8.spr"
443+  D040              	; incbin "fonts/font9.spr"
444+  D040              	; incbin "fonts/font10.spr"
445+  D040              	; incbin "fonts/font11.spr"
446+  D040              	; incbin "fonts/font12.spr"
447+  D040              	; incbin "fonts/font13.spr"
448+  D040              	; incbin "fonts/font14.spr"
449+  D040              	; incbin "fonts/font15.spr"
450+  D040              	; incbin "fonts/font16.spr"
451+  D040              	; ; incbin "fonts/font17.spr"
452+  D040              	; incbin "fonts/font18.spr" *not mapped same as others (?)
453+  D040
454+  D040
455+  D040
456+  D040
457+  D040              ;; Layer2
458+  D040
459+  D040              	; MMU 7 n,40
460+  D040              	; org $e000
461+  D040              	; incbin "assets/sky.bmp", 1078
462+  D040
463+  D040              	MMU 7 n,40
464+  D040              	org $e000
465+  E000              	incbin "assets/skybigrotated.bmp", 1078
# file closed: src/loadbins.asm
 41   E000
 42   E000
 43   E000
 44   E000              	SAVENEX OPEN "main.nex", start , stack_top
 45   E000                  SAVENEX CORE 3, 0, 0
 46   E000                  SAVENEX CFG 0, 0
 47   E000              	SAVENEX AUTO
 48   E000                  SAVENEX CLOSE
 49   E000
 50   E000
 51   E000
# file closed: src/main.asm
